ccollections
OrderedDict
p0
((lp1
(lp2
S'DotProduct'
p3
ag0
((lp4
tp5
Rp6
aa(lp7
S'TPCHQ6'
p8
ag0
((lp9
(lp10
S'96000'
p11
ag0
((lp12
(lp13
S'TPCHQ6_96000_outerPar_1_tileSize_3000'
p14
ag0
((lp15
(lp16
S'cycle'
p17
aI33435
aa(lp18
S'pcuUtil'
p19
a(I5
I64
tp20
aa(lp21
S'mcuUtil'
p22
a(I4
I64
tp23
aa(lp24
S'scuUtil'
p25
a(I4
I34
tp26
aa(lp27
S'ocuUtil'
p28
a(I7
I153
tp29
aa(lp30
S'mcUtil'
p31
a(I4
I34
tp32
aa(lp33
S'slinkUtil'
p34
a(I27
I3360
tp35
aa(lp36
S'vlinkUtil'
p37
a(I1
I2240
tp38
aa(lp39
S'clinkUtil'
p40
a(I0
I6720
tp41
aa(lp42
S'totalRegUtil'
p43
a(I632
I19712
tp44
aa(lp45
S'totalFUUtil'
p46
a(I240
I1120
tp47
aa(lp48
S'totalSBufUtil'
p49
a(I21
I139
tp50
aa(lp51
S'totalVBufUtil'
p52
a(I3
I36
tp53
aatp54
Rp55
aa(lp56
S'TPCHQ6_96000_outerPar_1_tileSize_6000'
p57
ag0
((lp58
(lp59
g17
aI31633
aa(lp60
g19
a(I5
I64
tp61
aa(lp62
g22
a(I4
I64
tp63
aa(lp64
g25
a(I4
I34
tp65
aa(lp66
g28
a(I7
I153
tp67
aa(lp68
g31
a(I4
I34
tp69
aa(lp70
g34
a(I22
I3360
tp71
aa(lp72
g37
a(I1
I2240
tp73
aa(lp74
g40
a(I0
I6720
tp75
aa(lp76
g43
a(I632
I19712
tp77
aa(lp78
g46
a(I240
I1120
tp79
aa(lp80
g49
a(I21
I139
tp81
aa(lp82
g52
a(I3
I36
tp83
aatp84
Rp85
aa(lp86
S'TPCHQ6_96000_outerPar_3_tileSize_3000'
p87
ag0
((lp88
(lp89
g17
aI33381
aa(lp90
g19
a(I11
I64
tp91
aa(lp92
g22
a(I12
I64
tp93
aa(lp94
g25
a(I12
I34
tp95
aa(lp96
g28
a(I17
I153
tp97
aa(lp98
g31
a(I12
I34
tp99
aa(lp100
g34
a(I112
I3360
tp101
aa(lp102
g37
a(I4
I2240
tp103
aa(lp104
g40
a(I0
I6720
tp105
aa(lp106
g43
a(I1873
I52992
tp107
aa(lp108
g46
a(I713
I2976
tp109
aa(lp110
g49
a(I57
I365
tp111
aa(lp112
g52
a(I9
I92
tp113
aatp114
Rp115
aa(lp116
S'TPCHQ6_96000_outerPar_3_tileSize_6000'
p117
ag0
((lp118
(lp119
g17
aI32712
aa(lp120
g19
a(I11
I64
tp121
aa(lp122
g22
a(I12
I64
tp123
aa(lp124
g25
a(I12
I34
tp125
aa(lp126
g28
a(I17
I153
tp127
aa(lp128
g31
a(I12
I34
tp129
aa(lp130
g34
a(I95
I3360
tp131
aa(lp132
g37
a(I4
I2240
tp133
aa(lp134
g40
a(I0
I6720
tp135
aa(lp136
g43
a(I1873
I52992
tp137
aa(lp138
g46
a(I713
I2976
tp139
aa(lp140
g49
a(I57
I365
tp141
aa(lp142
g52
a(I9
I92
tp143
aatp144
Rp145
aa(lp146
S'TPCHQ6_96000_outerPar_5_tileSize_3000'
p147
ag0
((lp148
(lp149
g17
aI32514
aa(lp150
g19
a(I17
I64
tp151
aa(lp152
g22
a(I20
I64
tp153
aa(lp154
g25
a(I20
I34
tp155
aa(lp156
g28
a(I27
I153
tp157
aa(lp158
g31
a(I20
I34
tp159
aa(lp160
g34
a(I273
I3360
tp161
aa(lp162
g37
a(I7
I2240
tp163
aa(lp164
g40
a(I0
I6720
tp165
aa(lp166
g43
a(I3118
I86272
tp167
aa(lp168
g46
a(I1187
I4832
tp169
aa(lp170
g49
a(I93
I591
tp171
aa(lp172
g52
a(I15
I148
tp173
aatp174
Rp175
aa(lp176
S'TPCHQ6_96000_outerPar_6_tileSize_400'
p177
ag0
((lp178
(lp179
g17
aI36846
aa(lp180
g19
a(I20
I64
tp181
aa(lp182
g22
a(I24
I64
tp183
aa(lp184
g25
a(I24
I34
tp185
aa(lp186
g28
a(I32
I153
tp187
aa(lp188
g31
a(I24
I34
tp189
aa(lp190
g34
a(I339
I3360
tp191
aa(lp192
g37
a(I11
I2240
tp193
aa(lp194
g40
a(I0
I6720
tp195
aa(lp196
g43
a(I3742
I102912
tp197
aa(lp198
g46
a(I1424
I5760
tp199
aa(lp200
g49
a(I111
I704
tp201
aa(lp202
g52
a(I18
I176
tp203
aatp204
Rp205
aa(lp206
S'TPCHQ6_96000_outerPar_6_tileSize_1200'
p207
ag0
((lp208
(lp209
g17
aI33181
aa(lp210
g19
a(I20
I64
tp211
aa(lp212
g22
a(I24
I64
tp213
aa(lp214
g25
a(I24
I34
tp215
aa(lp216
g28
a(I32
I153
tp217
aa(lp218
g31
a(I24
I34
tp219
aa(lp220
g34
a(I337
I3360
tp221
aa(lp222
g37
a(I10
I2240
tp223
aa(lp224
g40
a(I0
I6720
tp225
aa(lp226
g43
a(I3742
I102912
tp227
aa(lp228
g46
a(I1424
I5760
tp229
aa(lp230
g49
a(I111
I704
tp231
aa(lp232
g52
a(I18
I176
tp233
aatp234
Rp235
aa(lp236
S'TPCHQ6_96000_outerPar_6_tileSize_2000'
p237
ag0
((lp238
(lp239
g17
aI33123
aa(lp240
g19
a(I20
I64
tp241
aa(lp242
g22
a(I24
I64
tp243
aa(lp244
g25
a(I24
I34
tp245
aa(lp246
g28
a(I32
I153
tp247
aa(lp248
g31
a(I24
I34
tp249
aa(lp250
g34
a(I337
I3360
tp251
aa(lp252
g37
a(I11
I2240
tp253
aa(lp254
g40
a(I0
I6720
tp255
aa(lp256
g43
a(I3742
I102912
tp257
aa(lp258
g46
a(I1424
I5760
tp259
aa(lp260
g49
a(I111
I704
tp261
aa(lp262
g52
a(I18
I176
tp263
aatp264
Rp265
aa(lp266
S'TPCHQ6_96000_outerPar_6_tileSize_2800'
p267
ag0
((lp268
(lp269
g17
aI32621
aa(lp270
g19
a(I20
I64
tp271
aa(lp272
g22
a(I24
I64
tp273
aa(lp274
g25
a(I24
I34
tp275
aa(lp276
g28
a(I32
I153
tp277
aa(lp278
g31
a(I24
I34
tp279
aa(lp280
g34
a(I344
I3360
tp281
aa(lp282
g37
a(I10
I2240
tp283
aa(lp284
g40
a(I0
I6720
tp285
aa(lp286
g43
a(I3742
I102912
tp287
aa(lp288
g46
a(I1424
I5760
tp289
aa(lp290
g49
a(I111
I704
tp291
aa(lp292
g52
a(I18
I176
tp293
aatp294
Rp295
aa(lp296
S'TPCHQ6_96000_outerPar_6_tileSize_3600'
p297
ag0
((lp298
(lp299
g17
aI32361
aa(lp300
g19
a(I20
I64
tp301
aa(lp302
g22
a(I24
I64
tp303
aa(lp304
g25
a(I24
I34
tp305
aa(lp306
g28
a(I32
I153
tp307
aa(lp308
g31
a(I24
I34
tp309
aa(lp310
g34
a(I343
I3360
tp311
aa(lp312
g37
a(I11
I2240
tp313
aa(lp314
g40
a(I0
I6720
tp315
aa(lp316
g43
a(I3742
I102912
tp317
aa(lp318
g46
a(I1424
I5760
tp319
aa(lp320
g49
a(I111
I704
tp321
aa(lp322
g52
a(I18
I176
tp323
aatp324
Rp325
aa(lp326
S'TPCHQ6_96000_outerPar_8_tileSize_400'
p327
ag0
((lp328
(lp329
g17
aI35423
aa(lp330
g19
a(I27
I64
tp331
aa(lp332
g22
a(I32
I64
tp333
aa(lp334
g25
a(I32
I34
tp335
aa(lp336
g28
a(I42
I153
tp337
aa(lp338
g31
a(I32
I34
tp339
aa(lp340
g34
a(I479
I3360
tp341
aa(lp342
g37
a(I17
I2240
tp343
aa(lp344
g40
a(I0
I6720
tp345
aa(lp346
g43
a(I4993
I137728
tp347
aa(lp348
g46
a(I1898
I7712
tp349
aa(lp350
g49
a(I149
I938
tp351
aa(lp352
g52
a(I24
I236
tp353
aatp354
Rp355
aa(lp356
S'TPCHQ6_96000_outerPar_8_tileSize_1200'
p357
ag0
((lp358
(lp359
g17
aI33196
aa(lp360
g19
a(I27
I64
tp361
aa(lp362
g22
a(I32
I64
tp363
aa(lp364
g25
a(I32
I34
tp365
aa(lp366
g28
a(I42
I153
tp367
aa(lp368
g31
a(I32
I34
tp369
aa(lp370
g34
a(I533
I3360
tp371
aa(lp372
g37
a(I34
I2240
tp373
aa(lp374
g40
a(I0
I6720
tp375
aa(lp376
g43
a(I4993
I137728
tp377
aa(lp378
g46
a(I1898
I7712
tp379
aa(lp380
g49
a(I149
I938
tp381
aa(lp382
g52
a(I24
I236
tp383
aatp384
Rp385
aa(lp386
S'TPCHQ6_96000_outerPar_8_tileSize_2000'
p387
ag0
((lp388
(lp389
g17
aI31906
aa(lp390
g19
a(I27
I64
tp391
aa(lp392
g22
a(I32
I64
tp393
aa(lp394
g25
a(I32
I34
tp395
aa(lp396
g28
a(I42
I153
tp397
aa(lp398
g31
a(I32
I34
tp399
aa(lp400
g34
a(I502
I3360
tp401
aa(lp402
g37
a(I26
I2240
tp403
aa(lp404
g40
a(I0
I6720
tp405
aa(lp406
g43
a(I4993
I137728
tp407
aa(lp408
g46
a(I1898
I7712
tp409
aa(lp410
g49
a(I149
I938
tp411
aa(lp412
g52
a(I24
I236
tp413
aatp414
Rp415
aa(lp416
S'TPCHQ6_96000_outerPar_8_tileSize_2800'
p417
ag0
((lp418
(lp419
g17
aI32844
aa(lp420
g19
a(I27
I64
tp421
aa(lp422
g22
a(I32
I64
tp423
aa(lp424
g25
a(I32
I34
tp425
aa(lp426
g28
a(I42
I153
tp427
aa(lp428
g31
a(I32
I34
tp429
aa(lp430
g34
a(I481
I3360
tp431
aa(lp432
g37
a(I17
I2240
tp433
aa(lp434
g40
a(I0
I6720
tp435
aa(lp436
g43
a(I4993
I137728
tp437
aa(lp438
g46
a(I1898
I7712
tp439
aa(lp440
g49
a(I149
I938
tp441
aa(lp442
g52
a(I24
I236
tp443
aatp444
Rp445
aa(lp446
S'TPCHQ6_96000_outerPar_2_tileSize_16'
p447
ag0
((lp448
(lp449
g17
aI405792
aa(lp450
g19
a(I8
I64
tp451
aa(lp452
g22
a(I8
I64
tp453
aa(lp454
g25
a(I8
I34
tp455
aa(lp456
g28
a(I12
I153
tp457
aa(lp458
g31
a(I8
I34
tp459
aa(lp460
g34
a(I105
I3360
tp461
aa(lp462
g37
a(I3
I2240
tp463
aa(lp464
g40
a(I0
I6720
tp465
aa(lp466
g43
a(I1252
I36352
tp467
aa(lp468
g46
a(I476
I2048
tp469
aa(lp470
g49
a(I39
I252
tp471
aa(lp472
g52
a(I6
I64
tp473
aatp474
Rp475
aa(lp476
S'TPCHQ6_96000_outerPar_2_tileSize_48'
p477
ag0
((lp478
(lp479
g17
aI137843
aa(lp480
g19
a(I8
I64
tp481
aa(lp482
g22
a(I8
I64
tp483
aa(lp484
g25
a(I8
I34
tp485
aa(lp486
g28
a(I12
I153
tp487
aa(lp488
g31
a(I8
I34
tp489
aa(lp490
g34
a(I75
I3360
tp491
aa(lp492
g37
a(I2
I2240
tp493
aa(lp494
g40
a(I0
I6720
tp495
aa(lp496
g43
a(I1252
I36352
tp497
aa(lp498
g46
a(I476
I2048
tp499
aa(lp500
g49
a(I39
I252
tp501
aa(lp502
g52
a(I6
I64
tp503
aatp504
Rp505
aa(lp506
S'TPCHQ6_96000_outerPar_2_tileSize_80'
p507
ag0
((lp508
(lp509
g17
aI99063
aa(lp510
g19
a(I8
I64
tp511
aa(lp512
g22
a(I8
I64
tp513
aa(lp514
g25
a(I8
I34
tp515
aa(lp516
g28
a(I12
I153
tp517
aa(lp518
g31
a(I8
I34
tp519
aa(lp520
g34
a(I74
I3360
tp521
aa(lp522
g37
a(I2
I2240
tp523
aa(lp524
g40
a(I0
I6720
tp525
aa(lp526
g43
a(I1252
I36352
tp527
aa(lp528
g46
a(I476
I2048
tp529
aa(lp530
g49
a(I39
I252
tp531
aa(lp532
g52
a(I6
I64
tp533
aatp534
Rp535
aa(lp536
S'TPCHQ6_96000_outerPar_2_tileSize_112'
p537
ag0
((lp538
(lp539
g17
aI78569
aa(lp540
g19
a(I8
I64
tp541
aa(lp542
g22
a(I8
I64
tp543
aa(lp544
g25
a(I8
I34
tp545
aa(lp546
g28
a(I12
I153
tp547
aa(lp548
g31
a(I8
I34
tp549
aa(lp550
g34
a(I70
I3360
tp551
aa(lp552
g37
a(I2
I2240
tp553
aa(lp554
g40
a(I0
I6720
tp555
aa(lp556
g43
a(I1252
I36352
tp557
aa(lp558
g46
a(I476
I2048
tp559
aa(lp560
g49
a(I39
I252
tp561
aa(lp562
g52
a(I6
I64
tp563
aatp564
Rp565
aa(lp566
S'TPCHQ6_96000_outerPar_2_tileSize_144'
p567
ag0
((lp568
(lp569
g17
aI64694
aa(lp570
g19
a(I8
I64
tp571
aa(lp572
g22
a(I8
I64
tp573
aa(lp574
g25
a(I8
I34
tp575
aa(lp576
g28
a(I12
I153
tp577
aa(lp578
g31
a(I8
I34
tp579
aa(lp580
g34
a(I80
I3360
tp581
aa(lp582
g37
a(I2
I2240
tp583
aa(lp584
g40
a(I0
I6720
tp585
aa(lp586
g43
a(I1252
I36352
tp587
aa(lp588
g46
a(I476
I2048
tp589
aa(lp590
g49
a(I39
I252
tp591
aa(lp592
g52
a(I6
I64
tp593
aatp594
Rp595
aa(lp596
S'TPCHQ6_96000_outerPar_2_tileSize_176'
p597
ag0
((lp598
(lp599
g17
aI59850
aa(lp600
g19
a(I8
I64
tp601
aa(lp602
g22
a(I8
I64
tp603
aa(lp604
g25
a(I8
I34
tp605
aa(lp606
g28
a(I12
I153
tp607
aa(lp608
g31
a(I8
I34
tp609
aa(lp610
g34
a(I66
I3360
tp611
aa(lp612
g37
a(I2
I2240
tp613
aa(lp614
g40
a(I0
I6720
tp615
aa(lp616
g43
a(I1252
I36352
tp617
aa(lp618
g46
a(I476
I2048
tp619
aa(lp620
g49
a(I39
I252
tp621
aa(lp622
g52
a(I6
I64
tp623
aatp624
Rp625
aa(lp626
S'TPCHQ6_96000_outerPar_2_tileSize_208'
p627
ag0
((lp628
(lp629
g17
aI55820
aa(lp630
g19
a(I8
I64
tp631
aa(lp632
g22
a(I8
I64
tp633
aa(lp634
g25
a(I8
I34
tp635
aa(lp636
g28
a(I12
I153
tp637
aa(lp638
g31
a(I8
I34
tp639
aa(lp640
g34
a(I69
I3360
tp641
aa(lp642
g37
a(I2
I2240
tp643
aa(lp644
g40
a(I0
I6720
tp645
aa(lp646
g43
a(I1252
I36352
tp647
aa(lp648
g46
a(I476
I2048
tp649
aa(lp650
g49
a(I39
I252
tp651
aa(lp652
g52
a(I6
I64
tp653
aatp654
Rp655
aa(lp656
S'TPCHQ6_96000_outerPar_2_tileSize_240'
p657
ag0
((lp658
(lp659
g17
aI51062
aa(lp660
g19
a(I8
I64
tp661
aa(lp662
g22
a(I8
I64
tp663
aa(lp664
g25
a(I8
I34
tp665
aa(lp666
g28
a(I12
I153
tp667
aa(lp668
g31
a(I8
I34
tp669
aa(lp670
g34
a(I80
I3360
tp671
aa(lp672
g37
a(I2
I2240
tp673
aa(lp674
g40
a(I0
I6720
tp675
aa(lp676
g43
a(I1252
I36352
tp677
aa(lp678
g46
a(I476
I2048
tp679
aa(lp680
g49
a(I39
I252
tp681
aa(lp682
g52
a(I6
I64
tp683
aatp684
Rp685
aa(lp686
S'TPCHQ6_96000_outerPar_4_tileSize_16'
p687
ag0
((lp688
(lp689
g17
aI201953
aa(lp690
g19
a(I14
I64
tp691
aa(lp692
g22
a(I16
I64
tp693
aa(lp694
g25
a(I16
I34
tp695
aa(lp696
g28
a(I22
I153
tp697
aa(lp698
g31
a(I16
I34
tp699
aa(lp700
g34
a(I217
I3360
tp701
aa(lp702
g37
a(I5
I2240
tp703
aa(lp704
g40
a(I0
I6720
tp705
aa(lp706
g43
a(I2495
I69632
tp707
aa(lp708
g46
a(I950
I3904
tp709
aa(lp710
g49
a(I75
I478
tp711
aa(lp712
g52
a(I12
I120
tp713
aatp714
Rp715
aa(lp716
S'TPCHQ6_96000_outerPar_4_tileSize_48'
p717
ag0
((lp718
(lp719
g17
aI84737
aa(lp720
g19
a(I14
I64
tp721
aa(lp722
g22
a(I16
I64
tp723
aa(lp724
g25
a(I16
I34
tp725
aa(lp726
g28
a(I22
I153
tp727
aa(lp728
g31
a(I16
I34
tp729
aa(lp730
g34
a(I207
I3360
tp731
aa(lp732
g37
a(I5
I2240
tp733
aa(lp734
g40
a(I0
I6720
tp735
aa(lp736
g43
a(I2495
I69632
tp737
aa(lp738
g46
a(I950
I3904
tp739
aa(lp740
g49
a(I75
I478
tp741
aa(lp742
g52
a(I12
I120
tp743
aatp744
Rp745
aa(lp746
S'TPCHQ6_96000_outerPar_4_tileSize_80'
p747
ag0
((lp748
(lp749
g17
aI60710
aa(lp750
g19
a(I14
I64
tp751
aa(lp752
g22
a(I16
I64
tp753
aa(lp754
g25
a(I16
I34
tp755
aa(lp756
g28
a(I22
I153
tp757
aa(lp758
g31
a(I16
I34
tp759
aa(lp760
g34
a(I186
I3360
tp761
aa(lp762
g37
a(I5
I2240
tp763
aa(lp764
g40
a(I0
I6720
tp765
aa(lp766
g43
a(I2495
I69632
tp767
aa(lp768
g46
a(I950
I3904
tp769
aa(lp770
g49
a(I75
I478
tp771
aa(lp772
g52
a(I12
I120
tp773
aatp774
Rp775
aa(lp776
S'TPCHQ6_96000_outerPar_4_tileSize_112'
p777
ag0
((lp778
(lp779
g17
aI53686
aa(lp780
g19
a(I14
I64
tp781
aa(lp782
g22
a(I16
I64
tp783
aa(lp784
g25
a(I16
I34
tp785
aa(lp786
g28
a(I22
I153
tp787
aa(lp788
g31
a(I16
I34
tp789
aa(lp790
g34
a(I202
I3360
tp791
aa(lp792
g37
a(I5
I2240
tp793
aa(lp794
g40
a(I0
I6720
tp795
aa(lp796
g43
a(I2495
I69632
tp797
aa(lp798
g46
a(I950
I3904
tp799
aa(lp800
g49
a(I75
I478
tp801
aa(lp802
g52
a(I12
I120
tp803
aatp804
Rp805
aa(lp806
S'TPCHQ6_96000_outerPar_6_tileSize_16'
p807
ag0
((lp808
(lp809
g17
aI164316
aa(lp810
g19
a(I20
I64
tp811
aa(lp812
g22
a(I24
I64
tp813
aa(lp814
g25
a(I24
I34
tp815
aa(lp816
g28
a(I32
I153
tp817
aa(lp818
g31
a(I24
I34
tp819
aa(lp820
g34
a(I375
I3360
tp821
aa(lp822
g37
a(I11
I2240
tp823
aa(lp824
g40
a(I0
I6720
tp825
aa(lp826
g43
a(I3742
I102912
tp827
aa(lp828
g46
a(I1424
I5760
tp829
aa(lp830
g49
a(I111
I704
tp831
aa(lp832
g52
a(I18
I176
tp833
aatp834
Rp835
aa(lp836
S'TPCHQ6_96000_outerPar_6_tileSize_48'
p837
ag0
((lp838
(lp839
g17
aI68913
aa(lp840
g19
a(I20
I64
tp841
aa(lp842
g22
a(I24
I64
tp843
aa(lp844
g25
a(I24
I34
tp845
aa(lp846
g28
a(I32
I153
tp847
aa(lp848
g31
a(I24
I34
tp849
aa(lp850
g34
a(I348
I3360
tp851
aa(lp852
g37
a(I10
I2240
tp853
aa(lp854
g40
a(I0
I6720
tp855
aa(lp856
g43
a(I3742
I102912
tp857
aa(lp858
g46
a(I1424
I5760
tp859
aa(lp860
g49
a(I111
I704
tp861
aa(lp862
g52
a(I18
I176
tp863
aatp864
Rp865
aa(lp866
S'TPCHQ6_96000_outerPar_6_tileSize_80'
p867
ag0
((lp868
(lp869
g17
aI49357
aa(lp870
g19
a(I20
I64
tp871
aa(lp872
g22
a(I24
I64
tp873
aa(lp874
g25
a(I24
I34
tp875
aa(lp876
g28
a(I32
I153
tp877
aa(lp878
g31
a(I24
I34
tp879
aa(lp880
g34
a(I347
I3360
tp881
aa(lp882
g37
a(I11
I2240
tp883
aa(lp884
g40
a(I0
I6720
tp885
aa(lp886
g43
a(I3742
I102912
tp887
aa(lp888
g46
a(I1424
I5760
tp889
aa(lp890
g49
a(I111
I704
tp891
aa(lp892
g52
a(I18
I176
tp893
aatp894
Rp895
aa(lp896
S'TPCHQ6_96000_outerPar_8_tileSize_16'
p897
ag0
((lp898
(lp899
g17
aI133521
aa(lp900
g19
a(I27
I64
tp901
aa(lp902
g22
a(I32
I64
tp903
aa(lp904
g25
a(I32
I34
tp905
aa(lp906
g28
a(I42
I153
tp907
aa(lp908
g31
a(I32
I34
tp909
aa(lp910
g34
a(I495
I3360
tp911
aa(lp912
g37
a(I17
I2240
tp913
aa(lp914
g40
a(I0
I6720
tp915
aa(lp916
g43
a(I4993
I137728
tp917
aa(lp918
g46
a(I1898
I7712
tp919
aa(lp920
g49
a(I149
I938
tp921
aa(lp922
g52
a(I24
I236
tp923
aatp924
Rp925
aa(lp926
S'TPCHQ6_96000_outerPar_8_tileSize_48'
p927
ag0
((lp928
(lp929
g17
aI54641
aa(lp930
g19
a(I27
I64
tp931
aa(lp932
g22
a(I32
I64
tp933
aa(lp934
g25
a(I32
I34
tp935
aa(lp936
g28
a(I42
I153
tp937
aa(lp938
g31
a(I32
I34
tp939
aa(lp940
g34
a(I507
I3360
tp941
aa(lp942
g37
a(I19
I2240
tp943
aa(lp944
g40
a(I0
I6720
tp945
aa(lp946
g43
a(I4993
I137728
tp947
aa(lp948
g46
a(I1898
I7712
tp949
aa(lp950
g49
a(I149
I938
tp951
aa(lp952
g52
a(I24
I236
tp953
aatp954
Rp955
aatp956
Rp957
aatp958
Rp959
aa(lp960
S'GDA'
p961
ag0
((lp962
(lp963
S'192000'
p964
ag0
((lp965
(lp966
S'GDA_192000_tileSize_16_outerPar_1_midPar_4'
p967
ag0
((lp968
(lp969
S'cycle'
p970
aI156652715
aa(lp971
S'pcuUtil'
p972
a(I11
I64
tp973
aa(lp974
S'mcuUtil'
p975
a(I29
I64
tp976
aa(lp977
S'scuUtil'
p978
a(I5
I34
tp979
aa(lp980
S'ocuUtil'
p981
a(I8
I153
tp982
aa(lp983
S'mcUtil'
p984
a(I5
I34
tp985
aa(lp986
S'slinkUtil'
p987
a(I314
I3360
tp988
aa(lp989
S'vlinkUtil'
p990
a(I0
I2240
tp991
aa(lp992
S'clinkUtil'
p993
a(I0
I6720
tp994
aa(lp995
S'totalRegUtil'
p996
a(I1151
I67264
tp997
aa(lp998
S'totalFUUtil'
p999
a(I331
I3392
tp1000
aa(lp1001
S'totalSBufUtil'
p1002
a(I85
I400
tp1003
aa(lp1004
S'totalVBufUtil'
p1005
a(I0
I160
tp1006
aatp1007
Rp1008
aatp1009
Rp1010
aatp1011
Rp1012
aa(lp1013
S'BlackScholes'
p1014
ag0
((lp1015
(lp1016
S'1966080'
p1017
ag0
((lp1018
tp1019
Rp1020
aatp1021
Rp1022
aa(lp1023
S'Kmeans_plasticine'
p1024
ag0
((lp1025
(lp1026
S'1_6144'
p1027
ag0
((lp1028
tp1029
Rp1030
aatp1031
Rp1032
aa(lp1033
S'PageRank_plasticine'
p1034
ag0
((lp1035
(lp1036
S'1_491520_0.125'
p1037
ag0
((lp1038
tp1039
Rp1040
aatp1041
Rp1042
aa(lp1043
S'SPMV_CRS'
p1044
ag0
((lp1045
(lp1046
S''
p1047
ag0
((lp1048
(lp1049
S'SPMV_CRS__tileSize_80_tile_par_1_pt_par_1'
p1050
ag0
((lp1051
(lp1052
S'cycle'
p1053
aI93202
aa(lp1054
S'pcuUtil'
p1055
a(I25
I64
tp1056
aa(lp1057
S'mcuUtil'
p1058
a(I6
I64
tp1059
aa(lp1060
S'scuUtil'
p1061
a(I5
I34
tp1062
aa(lp1063
S'ocuUtil'
p1064
a(I15
I153
tp1065
aa(lp1066
S'mcUtil'
p1067
a(I5
I34
tp1068
aa(lp1069
S'slinkUtil'
p1070
a(I303
I3360
tp1071
aa(lp1072
S'vlinkUtil'
p1073
a(I0
I2240
tp1074
aa(lp1075
S'clinkUtil'
p1076
a(I0
I6720
tp1077
aa(lp1078
S'totalRegUtil'
p1079
a(I868
I54912
tp1080
aa(lp1081
S'totalFUUtil'
p1082
a(I319
I3264
tp1083
aa(lp1084
S'totalSBufUtil'
p1085
a(I107
I363
tp1086
aa(lp1087
S'totalVBufUtil'
p1088
a(I1
I124
tp1089
aatp1090
Rp1091
aa(lp1092
S'SPMV_CRS__tileSize_144_tile_par_1_pt_par_1'
p1093
ag0
((lp1094
(lp1095
g1053
aI83563
aa(lp1096
g1055
a(I25
I64
tp1097
aa(lp1098
g1058
a(I6
I64
tp1099
aa(lp1100
g1061
a(I5
I34
tp1101
aa(lp1102
g1064
a(I15
I153
tp1103
aa(lp1104
g1067
a(I5
I34
tp1105
aa(lp1106
g1070
a(I307
I3360
tp1107
aa(lp1108
g1073
a(I0
I2240
tp1109
aa(lp1110
g1076
a(I0
I6720
tp1111
aa(lp1112
g1079
a(I868
I54912
tp1113
aa(lp1114
g1082
a(I319
I3264
tp1115
aa(lp1116
g1085
a(I107
I363
tp1117
aa(lp1118
g1088
a(I1
I124
tp1119
aatp1120
Rp1121
aa(lp1122
S'SPMV_CRS__tileSize_144_tile_par_1_pt_par_2'
p1123
ag0
((lp1124
(lp1125
g1053
aI74606
aa(lp1126
g1055
a(I40
I64
tp1127
aa(lp1128
g1058
a(I9
I64
tp1129
aa(lp1130
g1061
a(I8
I34
tp1131
aa(lp1132
g1064
a(I22
I153
tp1133
aa(lp1134
g1067
a(I8
I34
tp1135
aa(lp1136
g1070
a(I592
I3360
tp1137
aa(lp1138
g1073
a(I0
I2240
tp1139
aa(lp1140
g1076
a(I0
I6720
tp1141
aa(lp1142
g1079
a(I1321
I86976
tp1143
aa(lp1144
g1082
a(I497
I5184
tp1145
aa(lp1146
g1085
a(I168
I566
tp1147
aa(lp1148
g1088
a(I2
I196
tp1149
aatp1150
Rp1151
aa(lp1152
S'SPMV_CRS__tileSize_208_tile_par_1_pt_par_1'
p1153
ag0
((lp1154
(lp1155
g1053
aI80064
aa(lp1156
g1055
a(I25
I64
tp1157
aa(lp1158
g1058
a(I6
I64
tp1159
aa(lp1160
g1061
a(I5
I34
tp1161
aa(lp1162
g1064
a(I15
I153
tp1163
aa(lp1164
g1067
a(I5
I34
tp1165
aa(lp1166
g1070
a(I254
I3360
tp1167
aa(lp1168
g1073
a(I0
I2240
tp1169
aa(lp1170
g1076
a(I0
I6720
tp1171
aa(lp1172
g1079
a(I868
I54912
tp1173
aa(lp1174
g1082
a(I319
I3264
tp1175
aa(lp1176
g1085
a(I107
I363
tp1177
aa(lp1178
g1088
a(I1
I124
tp1179
aatp1180
Rp1181
aa(lp1182
S'SPMV_CRS__tileSize_208_tile_par_1_pt_par_2'
p1183
ag0
((lp1184
(lp1185
g1053
aI71824
aa(lp1186
g1055
a(I40
I64
tp1187
aa(lp1188
g1058
a(I9
I64
tp1189
aa(lp1190
g1061
a(I8
I34
tp1191
aa(lp1192
g1064
a(I22
I153
tp1193
aa(lp1194
g1067
a(I8
I34
tp1195
aa(lp1196
g1070
a(I527
I3360
tp1197
aa(lp1198
g1073
a(I0
I2240
tp1199
aa(lp1200
g1076
a(I0
I6720
tp1201
aa(lp1202
g1079
a(I1321
I86976
tp1203
aa(lp1204
g1082
a(I497
I5184
tp1205
aa(lp1206
g1085
a(I168
I566
tp1207
aa(lp1208
g1088
a(I2
I196
tp1209
aatp1210
Rp1211
aa(lp1212
S'SPMV_CRS__tileSize_400_tile_par_2_pt_par_1'
p1213
ag0
((lp1214
(lp1215
g1053
aI76913
aa(lp1216
g1055
a(I49
I64
tp1217
aa(lp1218
g1058
a(I12
I64
tp1219
aa(lp1220
g1061
a(I10
I34
tp1221
aa(lp1222
g1064
a(I28
I153
tp1223
aa(lp1224
g1067
a(I10
I34
tp1225
aa(lp1226
g1070
a(I719
I3360
tp1227
aa(lp1228
g1073
a(I0
I2240
tp1229
aa(lp1230
g1076
a(I0
I6720
tp1231
aa(lp1232
g1079
a(I1730
I108288
tp1233
aa(lp1234
g1082
a(I637
I6432
tp1235
aa(lp1236
g1085
a(I212
I708
tp1237
aa(lp1238
g1088
a(I2
I244
tp1239
aatp1240
Rp1241
aatp1242
Rp1243
aatp1244
Rp1245
aa(lp1246
S'GEMM_Blocked'
p1247
ag0
((lp1248
(lp1249
g1047
ag0
((lp1250
tp1251
Rp1252
aatp1253
Rp1254
aatp1255
Rp1256
.