ccollections
OrderedDict
p0
((lp1
(lp2
S'DotProduct'
p3
ag0
((lp4
tp5
Rp6
aa(lp7
S'TPCHQ6'
p8
ag0
((lp9
(lp10
S'96000'
p11
ag0
((lp12
(lp13
S'TPCHQ6_96000_outerPar_1_tileSize_3000'
p14
ag0
((lp15
(lp16
S'cycle'
p17
aI33435
aa(lp18
S'pcuUtil'
p19
a(I5
I64
tp20
aa(lp21
S'mcuUtil'
p22
a(I4
I64
tp23
aa(lp24
S'scuUtil'
p25
a(I4
I34
tp26
aa(lp27
S'ocuUtil'
p28
a(I7
I153
tp29
aa(lp30
S'mcUtil'
p31
a(I4
I34
tp32
aa(lp33
S'slinkUtil'
p34
a(I27
I3360
tp35
aa(lp36
S'vlinkUtil'
p37
a(I1
I2240
tp38
aa(lp39
S'clinkUtil'
p40
a(I0
I6720
tp41
aa(lp42
S'totalRegUtil'
p43
a(I632
I19712
tp44
aa(lp45
S'totalFUUtil'
p46
a(I240
I1120
tp47
aa(lp48
S'totalSBufUtil'
p49
a(I21
I139
tp50
aa(lp51
S'totalVBufUtil'
p52
a(I3
I36
tp53
aatp54
Rp55
aa(lp56
S'TPCHQ6_96000_outerPar_1_tileSize_6000'
p57
ag0
((lp58
(lp59
g17
aI31633
aa(lp60
g19
a(I5
I64
tp61
aa(lp62
g22
a(I4
I64
tp63
aa(lp64
g25
a(I4
I34
tp65
aa(lp66
g28
a(I7
I153
tp67
aa(lp68
g31
a(I4
I34
tp69
aa(lp70
g34
a(I22
I3360
tp71
aa(lp72
g37
a(I1
I2240
tp73
aa(lp74
g40
a(I0
I6720
tp75
aa(lp76
g43
a(I632
I19712
tp77
aa(lp78
g46
a(I240
I1120
tp79
aa(lp80
g49
a(I21
I139
tp81
aa(lp82
g52
a(I3
I36
tp83
aatp84
Rp85
aa(lp86
S'TPCHQ6_96000_outerPar_3_tileSize_3000'
p87
ag0
((lp88
(lp89
g17
aI33381
aa(lp90
g19
a(I11
I64
tp91
aa(lp92
g22
a(I12
I64
tp93
aa(lp94
g25
a(I12
I34
tp95
aa(lp96
g28
a(I17
I153
tp97
aa(lp98
g31
a(I12
I34
tp99
aa(lp100
g34
a(I112
I3360
tp101
aa(lp102
g37
a(I4
I2240
tp103
aa(lp104
g40
a(I0
I6720
tp105
aa(lp106
g43
a(I1873
I52992
tp107
aa(lp108
g46
a(I713
I2976
tp109
aa(lp110
g49
a(I57
I365
tp111
aa(lp112
g52
a(I9
I92
tp113
aatp114
Rp115
aa(lp116
S'TPCHQ6_96000_outerPar_3_tileSize_6000'
p117
ag0
((lp118
(lp119
g17
aI32712
aa(lp120
g19
a(I11
I64
tp121
aa(lp122
g22
a(I12
I64
tp123
aa(lp124
g25
a(I12
I34
tp125
aa(lp126
g28
a(I17
I153
tp127
aa(lp128
g31
a(I12
I34
tp129
aa(lp130
g34
a(I95
I3360
tp131
aa(lp132
g37
a(I4
I2240
tp133
aa(lp134
g40
a(I0
I6720
tp135
aa(lp136
g43
a(I1873
I52992
tp137
aa(lp138
g46
a(I713
I2976
tp139
aa(lp140
g49
a(I57
I365
tp141
aa(lp142
g52
a(I9
I92
tp143
aatp144
Rp145
aa(lp146
S'TPCHQ6_96000_outerPar_5_tileSize_3000'
p147
ag0
((lp148
(lp149
g17
aI32514
aa(lp150
g19
a(I17
I64
tp151
aa(lp152
g22
a(I20
I64
tp153
aa(lp154
g25
a(I20
I34
tp155
aa(lp156
g28
a(I27
I153
tp157
aa(lp158
g31
a(I20
I34
tp159
aa(lp160
g34
a(I273
I3360
tp161
aa(lp162
g37
a(I7
I2240
tp163
aa(lp164
g40
a(I0
I6720
tp165
aa(lp166
g43
a(I3118
I86272
tp167
aa(lp168
g46
a(I1187
I4832
tp169
aa(lp170
g49
a(I93
I591
tp171
aa(lp172
g52
a(I15
I148
tp173
aatp174
Rp175
aa(lp176
S'TPCHQ6_96000_outerPar_6_tileSize_400'
p177
ag0
((lp178
(lp179
g17
aI36846
aa(lp180
g19
a(I20
I64
tp181
aa(lp182
g22
a(I24
I64
tp183
aa(lp184
g25
a(I24
I34
tp185
aa(lp186
g28
a(I32
I153
tp187
aa(lp188
g31
a(I24
I34
tp189
aa(lp190
g34
a(I339
I3360
tp191
aa(lp192
g37
a(I11
I2240
tp193
aa(lp194
g40
a(I0
I6720
tp195
aa(lp196
g43
a(I3742
I102912
tp197
aa(lp198
g46
a(I1424
I5760
tp199
aa(lp200
g49
a(I111
I704
tp201
aa(lp202
g52
a(I18
I176
tp203
aatp204
Rp205
aa(lp206
S'TPCHQ6_96000_outerPar_6_tileSize_1200'
p207
ag0
((lp208
(lp209
g17
aI33181
aa(lp210
g19
a(I20
I64
tp211
aa(lp212
g22
a(I24
I64
tp213
aa(lp214
g25
a(I24
I34
tp215
aa(lp216
g28
a(I32
I153
tp217
aa(lp218
g31
a(I24
I34
tp219
aa(lp220
g34
a(I337
I3360
tp221
aa(lp222
g37
a(I10
I2240
tp223
aa(lp224
g40
a(I0
I6720
tp225
aa(lp226
g43
a(I3742
I102912
tp227
aa(lp228
g46
a(I1424
I5760
tp229
aa(lp230
g49
a(I111
I704
tp231
aa(lp232
g52
a(I18
I176
tp233
aatp234
Rp235
aa(lp236
S'TPCHQ6_96000_outerPar_6_tileSize_2000'
p237
ag0
((lp238
(lp239
g17
aI33123
aa(lp240
g19
a(I20
I64
tp241
aa(lp242
g22
a(I24
I64
tp243
aa(lp244
g25
a(I24
I34
tp245
aa(lp246
g28
a(I32
I153
tp247
aa(lp248
g31
a(I24
I34
tp249
aa(lp250
g34
a(I337
I3360
tp251
aa(lp252
g37
a(I11
I2240
tp253
aa(lp254
g40
a(I0
I6720
tp255
aa(lp256
g43
a(I3742
I102912
tp257
aa(lp258
g46
a(I1424
I5760
tp259
aa(lp260
g49
a(I111
I704
tp261
aa(lp262
g52
a(I18
I176
tp263
aatp264
Rp265
aa(lp266
S'TPCHQ6_96000_outerPar_6_tileSize_2800'
p267
ag0
((lp268
(lp269
g17
aI32621
aa(lp270
g19
a(I20
I64
tp271
aa(lp272
g22
a(I24
I64
tp273
aa(lp274
g25
a(I24
I34
tp275
aa(lp276
g28
a(I32
I153
tp277
aa(lp278
g31
a(I24
I34
tp279
aa(lp280
g34
a(I344
I3360
tp281
aa(lp282
g37
a(I10
I2240
tp283
aa(lp284
g40
a(I0
I6720
tp285
aa(lp286
g43
a(I3742
I102912
tp287
aa(lp288
g46
a(I1424
I5760
tp289
aa(lp290
g49
a(I111
I704
tp291
aa(lp292
g52
a(I18
I176
tp293
aatp294
Rp295
aa(lp296
S'TPCHQ6_96000_outerPar_6_tileSize_3600'
p297
ag0
((lp298
(lp299
g17
aI32361
aa(lp300
g19
a(I20
I64
tp301
aa(lp302
g22
a(I24
I64
tp303
aa(lp304
g25
a(I24
I34
tp305
aa(lp306
g28
a(I32
I153
tp307
aa(lp308
g31
a(I24
I34
tp309
aa(lp310
g34
a(I343
I3360
tp311
aa(lp312
g37
a(I11
I2240
tp313
aa(lp314
g40
a(I0
I6720
tp315
aa(lp316
g43
a(I3742
I102912
tp317
aa(lp318
g46
a(I1424
I5760
tp319
aa(lp320
g49
a(I111
I704
tp321
aa(lp322
g52
a(I18
I176
tp323
aatp324
Rp325
aa(lp326
S'TPCHQ6_96000_outerPar_8_tileSize_400'
p327
ag0
((lp328
(lp329
g17
aI35423
aa(lp330
g19
a(I27
I64
tp331
aa(lp332
g22
a(I32
I64
tp333
aa(lp334
g25
a(I32
I34
tp335
aa(lp336
g28
a(I42
I153
tp337
aa(lp338
g31
a(I32
I34
tp339
aa(lp340
g34
a(I479
I3360
tp341
aa(lp342
g37
a(I17
I2240
tp343
aa(lp344
g40
a(I0
I6720
tp345
aa(lp346
g43
a(I4993
I137728
tp347
aa(lp348
g46
a(I1898
I7712
tp349
aa(lp350
g49
a(I149
I938
tp351
aa(lp352
g52
a(I24
I236
tp353
aatp354
Rp355
aa(lp356
S'TPCHQ6_96000_outerPar_8_tileSize_1200'
p357
ag0
((lp358
(lp359
g17
aI33196
aa(lp360
g19
a(I27
I64
tp361
aa(lp362
g22
a(I32
I64
tp363
aa(lp364
g25
a(I32
I34
tp365
aa(lp366
g28
a(I42
I153
tp367
aa(lp368
g31
a(I32
I34
tp369
aa(lp370
g34
a(I533
I3360
tp371
aa(lp372
g37
a(I34
I2240
tp373
aa(lp374
g40
a(I0
I6720
tp375
aa(lp376
g43
a(I4993
I137728
tp377
aa(lp378
g46
a(I1898
I7712
tp379
aa(lp380
g49
a(I149
I938
tp381
aa(lp382
g52
a(I24
I236
tp383
aatp384
Rp385
aa(lp386
S'TPCHQ6_96000_outerPar_8_tileSize_2000'
p387
ag0
((lp388
(lp389
g17
aI31906
aa(lp390
g19
a(I27
I64
tp391
aa(lp392
g22
a(I32
I64
tp393
aa(lp394
g25
a(I32
I34
tp395
aa(lp396
g28
a(I42
I153
tp397
aa(lp398
g31
a(I32
I34
tp399
aa(lp400
g34
a(I502
I3360
tp401
aa(lp402
g37
a(I26
I2240
tp403
aa(lp404
g40
a(I0
I6720
tp405
aa(lp406
g43
a(I4993
I137728
tp407
aa(lp408
g46
a(I1898
I7712
tp409
aa(lp410
g49
a(I149
I938
tp411
aa(lp412
g52
a(I24
I236
tp413
aatp414
Rp415
aa(lp416
S'TPCHQ6_96000_outerPar_8_tileSize_2800'
p417
ag0
((lp418
(lp419
g17
aI32844
aa(lp420
g19
a(I27
I64
tp421
aa(lp422
g22
a(I32
I64
tp423
aa(lp424
g25
a(I32
I34
tp425
aa(lp426
g28
a(I42
I153
tp427
aa(lp428
g31
a(I32
I34
tp429
aa(lp430
g34
a(I481
I3360
tp431
aa(lp432
g37
a(I17
I2240
tp433
aa(lp434
g40
a(I0
I6720
tp435
aa(lp436
g43
a(I4993
I137728
tp437
aa(lp438
g46
a(I1898
I7712
tp439
aa(lp440
g49
a(I149
I938
tp441
aa(lp442
g52
a(I24
I236
tp443
aatp444
Rp445
aa(lp446
S'TPCHQ6_96000_outerPar_2_tileSize_16'
p447
ag0
((lp448
(lp449
g17
aI405792
aa(lp450
g19
a(I8
I64
tp451
aa(lp452
g22
a(I8
I64
tp453
aa(lp454
g25
a(I8
I34
tp455
aa(lp456
g28
a(I12
I153
tp457
aa(lp458
g31
a(I8
I34
tp459
aa(lp460
g34
a(I105
I3360
tp461
aa(lp462
g37
a(I3
I2240
tp463
aa(lp464
g40
a(I0
I6720
tp465
aa(lp466
g43
a(I1252
I36352
tp467
aa(lp468
g46
a(I476
I2048
tp469
aa(lp470
g49
a(I39
I252
tp471
aa(lp472
g52
a(I6
I64
tp473
aatp474
Rp475
aa(lp476
S'TPCHQ6_96000_outerPar_2_tileSize_48'
p477
ag0
((lp478
(lp479
g17
aI137843
aa(lp480
g19
a(I8
I64
tp481
aa(lp482
g22
a(I8
I64
tp483
aa(lp484
g25
a(I8
I34
tp485
aa(lp486
g28
a(I12
I153
tp487
aa(lp488
g31
a(I8
I34
tp489
aa(lp490
g34
a(I75
I3360
tp491
aa(lp492
g37
a(I2
I2240
tp493
aa(lp494
g40
a(I0
I6720
tp495
aa(lp496
g43
a(I1252
I36352
tp497
aa(lp498
g46
a(I476
I2048
tp499
aa(lp500
g49
a(I39
I252
tp501
aa(lp502
g52
a(I6
I64
tp503
aatp504
Rp505
aa(lp506
S'TPCHQ6_96000_outerPar_2_tileSize_80'
p507
ag0
((lp508
(lp509
g17
aI99063
aa(lp510
g19
a(I8
I64
tp511
aa(lp512
g22
a(I8
I64
tp513
aa(lp514
g25
a(I8
I34
tp515
aa(lp516
g28
a(I12
I153
tp517
aa(lp518
g31
a(I8
I34
tp519
aa(lp520
g34
a(I74
I3360
tp521
aa(lp522
g37
a(I2
I2240
tp523
aa(lp524
g40
a(I0
I6720
tp525
aa(lp526
g43
a(I1252
I36352
tp527
aa(lp528
g46
a(I476
I2048
tp529
aa(lp530
g49
a(I39
I252
tp531
aa(lp532
g52
a(I6
I64
tp533
aatp534
Rp535
aa(lp536
S'TPCHQ6_96000_outerPar_2_tileSize_112'
p537
ag0
((lp538
(lp539
g17
aI78569
aa(lp540
g19
a(I8
I64
tp541
aa(lp542
g22
a(I8
I64
tp543
aa(lp544
g25
a(I8
I34
tp545
aa(lp546
g28
a(I12
I153
tp547
aa(lp548
g31
a(I8
I34
tp549
aa(lp550
g34
a(I70
I3360
tp551
aa(lp552
g37
a(I2
I2240
tp553
aa(lp554
g40
a(I0
I6720
tp555
aa(lp556
g43
a(I1252
I36352
tp557
aa(lp558
g46
a(I476
I2048
tp559
aa(lp560
g49
a(I39
I252
tp561
aa(lp562
g52
a(I6
I64
tp563
aatp564
Rp565
aa(lp566
S'TPCHQ6_96000_outerPar_2_tileSize_144'
p567
ag0
((lp568
(lp569
g17
aI64694
aa(lp570
g19
a(I8
I64
tp571
aa(lp572
g22
a(I8
I64
tp573
aa(lp574
g25
a(I8
I34
tp575
aa(lp576
g28
a(I12
I153
tp577
aa(lp578
g31
a(I8
I34
tp579
aa(lp580
g34
a(I80
I3360
tp581
aa(lp582
g37
a(I2
I2240
tp583
aa(lp584
g40
a(I0
I6720
tp585
aa(lp586
g43
a(I1252
I36352
tp587
aa(lp588
g46
a(I476
I2048
tp589
aa(lp590
g49
a(I39
I252
tp591
aa(lp592
g52
a(I6
I64
tp593
aatp594
Rp595
aa(lp596
S'TPCHQ6_96000_outerPar_2_tileSize_176'
p597
ag0
((lp598
(lp599
g17
aI59850
aa(lp600
g19
a(I8
I64
tp601
aa(lp602
g22
a(I8
I64
tp603
aa(lp604
g25
a(I8
I34
tp605
aa(lp606
g28
a(I12
I153
tp607
aa(lp608
g31
a(I8
I34
tp609
aa(lp610
g34
a(I66
I3360
tp611
aa(lp612
g37
a(I2
I2240
tp613
aa(lp614
g40
a(I0
I6720
tp615
aa(lp616
g43
a(I1252
I36352
tp617
aa(lp618
g46
a(I476
I2048
tp619
aa(lp620
g49
a(I39
I252
tp621
aa(lp622
g52
a(I6
I64
tp623
aatp624
Rp625
aa(lp626
S'TPCHQ6_96000_outerPar_2_tileSize_208'
p627
ag0
((lp628
(lp629
g17
aI55820
aa(lp630
g19
a(I8
I64
tp631
aa(lp632
g22
a(I8
I64
tp633
aa(lp634
g25
a(I8
I34
tp635
aa(lp636
g28
a(I12
I153
tp637
aa(lp638
g31
a(I8
I34
tp639
aa(lp640
g34
a(I69
I3360
tp641
aa(lp642
g37
a(I2
I2240
tp643
aa(lp644
g40
a(I0
I6720
tp645
aa(lp646
g43
a(I1252
I36352
tp647
aa(lp648
g46
a(I476
I2048
tp649
aa(lp650
g49
a(I39
I252
tp651
aa(lp652
g52
a(I6
I64
tp653
aatp654
Rp655
aa(lp656
S'TPCHQ6_96000_outerPar_2_tileSize_240'
p657
ag0
((lp658
(lp659
g17
aI51062
aa(lp660
g19
a(I8
I64
tp661
aa(lp662
g22
a(I8
I64
tp663
aa(lp664
g25
a(I8
I34
tp665
aa(lp666
g28
a(I12
I153
tp667
aa(lp668
g31
a(I8
I34
tp669
aa(lp670
g34
a(I80
I3360
tp671
aa(lp672
g37
a(I2
I2240
tp673
aa(lp674
g40
a(I0
I6720
tp675
aa(lp676
g43
a(I1252
I36352
tp677
aa(lp678
g46
a(I476
I2048
tp679
aa(lp680
g49
a(I39
I252
tp681
aa(lp682
g52
a(I6
I64
tp683
aatp684
Rp685
aa(lp686
S'TPCHQ6_96000_outerPar_4_tileSize_16'
p687
ag0
((lp688
(lp689
g17
aI201953
aa(lp690
g19
a(I14
I64
tp691
aa(lp692
g22
a(I16
I64
tp693
aa(lp694
g25
a(I16
I34
tp695
aa(lp696
g28
a(I22
I153
tp697
aa(lp698
g31
a(I16
I34
tp699
aa(lp700
g34
a(I217
I3360
tp701
aa(lp702
g37
a(I5
I2240
tp703
aa(lp704
g40
a(I0
I6720
tp705
aa(lp706
g43
a(I2495
I69632
tp707
aa(lp708
g46
a(I950
I3904
tp709
aa(lp710
g49
a(I75
I478
tp711
aa(lp712
g52
a(I12
I120
tp713
aatp714
Rp715
aa(lp716
S'TPCHQ6_96000_outerPar_4_tileSize_48'
p717
ag0
((lp718
(lp719
g17
aI84737
aa(lp720
g19
a(I14
I64
tp721
aa(lp722
g22
a(I16
I64
tp723
aa(lp724
g25
a(I16
I34
tp725
aa(lp726
g28
a(I22
I153
tp727
aa(lp728
g31
a(I16
I34
tp729
aa(lp730
g34
a(I207
I3360
tp731
aa(lp732
g37
a(I5
I2240
tp733
aa(lp734
g40
a(I0
I6720
tp735
aa(lp736
g43
a(I2495
I69632
tp737
aa(lp738
g46
a(I950
I3904
tp739
aa(lp740
g49
a(I75
I478
tp741
aa(lp742
g52
a(I12
I120
tp743
aatp744
Rp745
aa(lp746
S'TPCHQ6_96000_outerPar_4_tileSize_80'
p747
ag0
((lp748
(lp749
g17
aI60710
aa(lp750
g19
a(I14
I64
tp751
aa(lp752
g22
a(I16
I64
tp753
aa(lp754
g25
a(I16
I34
tp755
aa(lp756
g28
a(I22
I153
tp757
aa(lp758
g31
a(I16
I34
tp759
aa(lp760
g34
a(I186
I3360
tp761
aa(lp762
g37
a(I5
I2240
tp763
aa(lp764
g40
a(I0
I6720
tp765
aa(lp766
g43
a(I2495
I69632
tp767
aa(lp768
g46
a(I950
I3904
tp769
aa(lp770
g49
a(I75
I478
tp771
aa(lp772
g52
a(I12
I120
tp773
aatp774
Rp775
aa(lp776
S'TPCHQ6_96000_outerPar_4_tileSize_112'
p777
ag0
((lp778
(lp779
g17
aI53686
aa(lp780
g19
a(I14
I64
tp781
aa(lp782
g22
a(I16
I64
tp783
aa(lp784
g25
a(I16
I34
tp785
aa(lp786
g28
a(I22
I153
tp787
aa(lp788
g31
a(I16
I34
tp789
aa(lp790
g34
a(I202
I3360
tp791
aa(lp792
g37
a(I5
I2240
tp793
aa(lp794
g40
a(I0
I6720
tp795
aa(lp796
g43
a(I2495
I69632
tp797
aa(lp798
g46
a(I950
I3904
tp799
aa(lp800
g49
a(I75
I478
tp801
aa(lp802
g52
a(I12
I120
tp803
aatp804
Rp805
aa(lp806
S'TPCHQ6_96000_outerPar_6_tileSize_16'
p807
ag0
((lp808
(lp809
g17
aI164316
aa(lp810
g19
a(I20
I64
tp811
aa(lp812
g22
a(I24
I64
tp813
aa(lp814
g25
a(I24
I34
tp815
aa(lp816
g28
a(I32
I153
tp817
aa(lp818
g31
a(I24
I34
tp819
aa(lp820
g34
a(I375
I3360
tp821
aa(lp822
g37
a(I11
I2240
tp823
aa(lp824
g40
a(I0
I6720
tp825
aa(lp826
g43
a(I3742
I102912
tp827
aa(lp828
g46
a(I1424
I5760
tp829
aa(lp830
g49
a(I111
I704
tp831
aa(lp832
g52
a(I18
I176
tp833
aatp834
Rp835
aa(lp836
S'TPCHQ6_96000_outerPar_6_tileSize_48'
p837
ag0
((lp838
(lp839
g17
aI68913
aa(lp840
g19
a(I20
I64
tp841
aa(lp842
g22
a(I24
I64
tp843
aa(lp844
g25
a(I24
I34
tp845
aa(lp846
g28
a(I32
I153
tp847
aa(lp848
g31
a(I24
I34
tp849
aa(lp850
g34
a(I348
I3360
tp851
aa(lp852
g37
a(I10
I2240
tp853
aa(lp854
g40
a(I0
I6720
tp855
aa(lp856
g43
a(I3742
I102912
tp857
aa(lp858
g46
a(I1424
I5760
tp859
aa(lp860
g49
a(I111
I704
tp861
aa(lp862
g52
a(I18
I176
tp863
aatp864
Rp865
aa(lp866
S'TPCHQ6_96000_outerPar_6_tileSize_80'
p867
ag0
((lp868
(lp869
g17
aI49357
aa(lp870
g19
a(I20
I64
tp871
aa(lp872
g22
a(I24
I64
tp873
aa(lp874
g25
a(I24
I34
tp875
aa(lp876
g28
a(I32
I153
tp877
aa(lp878
g31
a(I24
I34
tp879
aa(lp880
g34
a(I347
I3360
tp881
aa(lp882
g37
a(I11
I2240
tp883
aa(lp884
g40
a(I0
I6720
tp885
aa(lp886
g43
a(I3742
I102912
tp887
aa(lp888
g46
a(I1424
I5760
tp889
aa(lp890
g49
a(I111
I704
tp891
aa(lp892
g52
a(I18
I176
tp893
aatp894
Rp895
aa(lp896
S'TPCHQ6_96000_outerPar_8_tileSize_16'
p897
ag0
((lp898
(lp899
g17
aI133521
aa(lp900
g19
a(I27
I64
tp901
aa(lp902
g22
a(I32
I64
tp903
aa(lp904
g25
a(I32
I34
tp905
aa(lp906
g28
a(I42
I153
tp907
aa(lp908
g31
a(I32
I34
tp909
aa(lp910
g34
a(I495
I3360
tp911
aa(lp912
g37
a(I17
I2240
tp913
aa(lp914
g40
a(I0
I6720
tp915
aa(lp916
g43
a(I4993
I137728
tp917
aa(lp918
g46
a(I1898
I7712
tp919
aa(lp920
g49
a(I149
I938
tp921
aa(lp922
g52
a(I24
I236
tp923
aatp924
Rp925
aa(lp926
S'TPCHQ6_96000_outerPar_8_tileSize_48'
p927
ag0
((lp928
(lp929
g17
aI54641
aa(lp930
g19
a(I27
I64
tp931
aa(lp932
g22
a(I32
I64
tp933
aa(lp934
g25
a(I32
I34
tp935
aa(lp936
g28
a(I42
I153
tp937
aa(lp938
g31
a(I32
I34
tp939
aa(lp940
g34
a(I507
I3360
tp941
aa(lp942
g37
a(I19
I2240
tp943
aa(lp944
g40
a(I0
I6720
tp945
aa(lp946
g43
a(I4993
I137728
tp947
aa(lp948
g46
a(I1898
I7712
tp949
aa(lp950
g49
a(I149
I938
tp951
aa(lp952
g52
a(I24
I236
tp953
aatp954
Rp955
aatp956
Rp957
aatp958
Rp959
aa(lp960
S'GDA'
p961
ag0
((lp962
(lp963
S'192000'
p964
ag0
((lp965
(lp966
S'GDA_192000_tileSize_16_outerPar_1_midPar_4'
p967
ag0
((lp968
(lp969
S'cycle'
p970
aI156652715
aa(lp971
S'pcuUtil'
p972
a(I11
I64
tp973
aa(lp974
S'mcuUtil'
p975
a(I29
I64
tp976
aa(lp977
S'scuUtil'
p978
a(I5
I34
tp979
aa(lp980
S'ocuUtil'
p981
a(I8
I153
tp982
aa(lp983
S'mcUtil'
p984
a(I5
I34
tp985
aa(lp986
S'slinkUtil'
p987
a(I314
I3360
tp988
aa(lp989
S'vlinkUtil'
p990
a(I0
I2240
tp991
aa(lp992
S'clinkUtil'
p993
a(I0
I6720
tp994
aa(lp995
S'totalRegUtil'
p996
a(I1151
I67264
tp997
aa(lp998
S'totalFUUtil'
p999
a(I331
I3392
tp1000
aa(lp1001
S'totalSBufUtil'
p1002
a(I85
I400
tp1003
aa(lp1004
S'totalVBufUtil'
p1005
a(I0
I160
tp1006
aatp1007
Rp1008
aatp1009
Rp1010
aatp1011
Rp1012
aa(lp1013
S'BlackScholes'
p1014
ag0
((lp1015
(lp1016
S'1966080'
p1017
ag0
((lp1018
(lp1019
S'BlackScholes_1966080_outerPar_1_tileSize_1024'
p1020
ag0
((lp1021
(lp1022
S'cycle'
p1023
aI1248537
aa(lp1024
S'pcuUtil'
p1025
a(I37
I64
tp1026
aa(lp1027
S'mcuUtil'
p1028
a(I7
I64
tp1029
aa(lp1030
S'scuUtil'
p1031
a(I7
I34
tp1032
aa(lp1033
S'ocuUtil'
p1034
a(I9
I153
tp1035
aa(lp1036
S'mcUtil'
p1037
a(I7
I34
tp1038
aa(lp1039
S'slinkUtil'
p1040
a(I125
I3360
tp1041
aa(lp1042
S'vlinkUtil'
p1043
a(I154
I2240
tp1044
aa(lp1045
S'clinkUtil'
p1046
a(I0
I6720
tp1047
aa(lp1048
S'totalRegUtil'
p1049
a(I9069
I77888
tp1050
aa(lp1051
S'totalFUUtil'
p1052
a(I2821
I4672
tp1053
aa(lp1054
S'totalSBufUtil'
p1055
a(I37
I453
tp1056
aa(lp1057
S'totalVBufUtil'
p1058
a(I96
I176
tp1059
aatp1060
Rp1061
aa(lp1062
S'BlackScholes_1966080_outerPar_1_tileSize_2048'
p1063
ag0
((lp1064
(lp1065
g1023
aI1167681
aa(lp1066
g1025
a(I37
I64
tp1067
aa(lp1068
g1028
a(I7
I64
tp1069
aa(lp1070
g1031
a(I7
I34
tp1071
aa(lp1072
g1034
a(I9
I153
tp1073
aa(lp1074
g1037
a(I7
I34
tp1075
aa(lp1076
g1040
a(I111
I3360
tp1077
aa(lp1078
g1043
a(I186
I2240
tp1079
aa(lp1080
g1046
a(I0
I6720
tp1081
aa(lp1082
g1049
a(I9069
I77888
tp1083
aa(lp1084
g1052
a(I2821
I4672
tp1085
aa(lp1086
g1055
a(I37
I453
tp1087
aa(lp1088
g1058
a(I96
I176
tp1089
aatp1090
Rp1091
aa(lp1092
S'BlackScholes_1966080_outerPar_1_tileSize_3072'
p1093
ag0
((lp1094
(lp1095
g1023
aI1238092
aa(lp1096
g1025
a(I37
I64
tp1097
aa(lp1098
g1028
a(I7
I64
tp1099
aa(lp1100
g1031
a(I7
I34
tp1101
aa(lp1102
g1034
a(I9
I153
tp1103
aa(lp1104
g1037
a(I7
I34
tp1105
aa(lp1106
g1040
a(I152
I3360
tp1107
aa(lp1108
g1043
a(I162
I2240
tp1109
aa(lp1110
g1046
a(I0
I6720
tp1111
aa(lp1112
g1049
a(I9069
I77888
tp1113
aa(lp1114
g1052
a(I2821
I4672
tp1115
aa(lp1116
g1055
a(I37
I453
tp1117
aa(lp1118
g1058
a(I96
I176
tp1119
aatp1120
Rp1121
aa(lp1122
S'BlackScholes_1966080_outerPar_1_tileSize_4096'
p1123
ag0
((lp1124
(lp1125
g1023
aI1150591
aa(lp1126
g1025
a(I37
I64
tp1127
aa(lp1128
g1028
a(I7
I64
tp1129
aa(lp1130
g1031
a(I7
I34
tp1131
aa(lp1132
g1034
a(I9
I153
tp1133
aa(lp1134
g1037
a(I7
I34
tp1135
aa(lp1136
g1040
a(I128
I3360
tp1137
aa(lp1138
g1043
a(I154
I2240
tp1139
aa(lp1140
g1046
a(I0
I6720
tp1141
aa(lp1142
g1049
a(I9069
I77888
tp1143
aa(lp1144
g1052
a(I2821
I4672
tp1145
aa(lp1146
g1055
a(I37
I453
tp1147
aa(lp1148
g1058
a(I96
I176
tp1149
aatp1150
Rp1151
aa(lp1152
S'BlackScholes_1966080_outerPar_1_tileSize_5120'
p1153
ag0
((lp1154
(lp1155
g1023
aI1123589
aa(lp1156
g1025
a(I37
I64
tp1157
aa(lp1158
g1028
a(I7
I64
tp1159
aa(lp1160
g1031
a(I7
I34
tp1161
aa(lp1162
g1034
a(I9
I153
tp1163
aa(lp1164
g1037
a(I7
I34
tp1165
aa(lp1166
g1040
a(I116
I3360
tp1167
aa(lp1168
g1043
a(I173
I2240
tp1169
aa(lp1170
g1046
a(I0
I6720
tp1171
aa(lp1172
g1049
a(I9069
I77888
tp1173
aa(lp1174
g1052
a(I2821
I4672
tp1175
aa(lp1176
g1055
a(I37
I453
tp1177
aa(lp1178
g1058
a(I96
I176
tp1179
aatp1180
Rp1181
aa(lp1182
S'BlackScholes_1966080_outerPar_1_tileSize_6144'
p1183
ag0
((lp1184
(lp1185
g1023
aI1118236
aa(lp1186
g1025
a(I37
I64
tp1187
aa(lp1188
g1028
a(I7
I64
tp1189
aa(lp1190
g1031
a(I7
I34
tp1191
aa(lp1192
g1034
a(I9
I153
tp1193
aa(lp1194
g1037
a(I7
I34
tp1195
aa(lp1196
g1040
a(I114
I3360
tp1197
aa(lp1198
g1043
a(I194
I2240
tp1199
aa(lp1200
g1046
a(I0
I6720
tp1201
aa(lp1202
g1049
a(I9069
I77888
tp1203
aa(lp1204
g1052
a(I2821
I4672
tp1205
aa(lp1206
g1055
a(I37
I453
tp1207
aa(lp1208
g1058
a(I96
I176
tp1209
aatp1210
Rp1211
aa(lp1212
S'BlackScholes_1966080_outerPar_1_tileSize_7168'
p1213
ag0
((lp1214
(lp1215
g1023
aI1116949
aa(lp1216
g1025
a(I37
I64
tp1217
aa(lp1218
g1028
a(I7
I64
tp1219
aa(lp1220
g1031
a(I7
I34
tp1221
aa(lp1222
g1034
a(I9
I153
tp1223
aa(lp1224
g1037
a(I7
I34
tp1225
aa(lp1226
g1040
a(I103
I3360
tp1227
aa(lp1228
g1043
a(I195
I2240
tp1229
aa(lp1230
g1046
a(I0
I6720
tp1231
aa(lp1232
g1049
a(I9069
I77888
tp1233
aa(lp1234
g1052
a(I2821
I4672
tp1235
aa(lp1236
g1055
a(I37
I453
tp1237
aa(lp1238
g1058
a(I96
I176
tp1239
aatp1240
Rp1241
aa(lp1242
S'BlackScholes_1966080_outerPar_1_tileSize_8192'
p1243
ag0
((lp1244
(lp1245
g1023
aI1114544
aa(lp1246
g1025
a(I37
I64
tp1247
aa(lp1248
g1028
a(I7
I64
tp1249
aa(lp1250
g1031
a(I7
I34
tp1251
aa(lp1252
g1034
a(I9
I153
tp1253
aa(lp1254
g1037
a(I7
I34
tp1255
aa(lp1256
g1040
a(I98
I3360
tp1257
aa(lp1258
g1043
a(I196
I2240
tp1259
aa(lp1260
g1046
a(I0
I6720
tp1261
aa(lp1262
g1049
a(I9069
I77888
tp1263
aa(lp1264
g1052
a(I2821
I4672
tp1265
aa(lp1266
g1055
a(I37
I453
tp1267
aa(lp1268
g1058
a(I96
I176
tp1269
aatp1270
Rp1271
aa(lp1272
S'BlackScholes_1966080_outerPar_1_tileSize_16384'
p1273
ag0
((lp1274
(lp1275
g1023
aI1106333
aa(lp1276
g1025
a(I37
I64
tp1277
aa(lp1278
g1028
a(I7
I64
tp1279
aa(lp1280
g1031
a(I7
I34
tp1281
aa(lp1282
g1034
a(I9
I153
tp1283
aa(lp1284
g1037
a(I7
I34
tp1285
aa(lp1286
g1040
a(I116
I3360
tp1287
aa(lp1288
g1043
a(I191
I2240
tp1289
aa(lp1290
g1046
a(I0
I6720
tp1291
aa(lp1292
g1049
a(I9069
I80464
tp1293
aa(lp1294
g1052
a(I2821
I4784
tp1295
aa(lp1296
g1055
a(I37
I453
tp1297
aa(lp1298
g1058
a(I96
I176
tp1299
aatp1300
Rp1301
aa(lp1302
S'BlackScholes_1966080_outerPar_1_tileSize_32768'
p1303
ag0
((lp1304
(lp1305
g1023
aI1090177
aa(lp1306
g1025
a(I37
I64
tp1307
aa(lp1308
g1028
a(I7
I64
tp1309
aa(lp1310
g1031
a(I7
I34
tp1311
aa(lp1312
g1034
a(I9
I153
tp1313
aa(lp1314
g1037
a(I7
I34
tp1315
aa(lp1316
g1040
a(I120
I3360
tp1317
aa(lp1318
g1043
a(I199
I2240
tp1319
aa(lp1320
g1046
a(I0
I6720
tp1321
aa(lp1322
g1049
a(I9069
I80464
tp1323
aa(lp1324
g1052
a(I2821
I4784
tp1325
aa(lp1326
g1055
a(I37
I453
tp1327
aa(lp1328
g1058
a(I96
I176
tp1329
aatp1330
Rp1331
aa(lp1332
S'BlackScholes_1966080_outerPar_1_tileSize_49152'
p1333
ag0
((lp1334
(lp1335
g1023
aI1094698
aa(lp1336
g1025
a(I37
I64
tp1337
aa(lp1338
g1028
a(I7
I64
tp1339
aa(lp1340
g1031
a(I7
I34
tp1341
aa(lp1342
g1034
a(I9
I153
tp1343
aa(lp1344
g1037
a(I7
I34
tp1345
aa(lp1346
g1040
a(I122
I3360
tp1347
aa(lp1348
g1043
a(I178
I2240
tp1349
aa(lp1350
g1046
a(I0
I6720
tp1351
aa(lp1352
g1049
a(I9069
I80464
tp1353
aa(lp1354
g1052
a(I2821
I4784
tp1355
aa(lp1356
g1055
a(I37
I453
tp1357
aa(lp1358
g1058
a(I96
I176
tp1359
aatp1360
Rp1361
aa(lp1362
S'BlackScholes_1966080_outerPar_1_tileSize_65536'
p1363
ag0
((lp1364
(lp1365
g1023
aI1103476
aa(lp1366
g1025
a(I37
I64
tp1367
aa(lp1368
g1028
a(I7
I64
tp1369
aa(lp1370
g1031
a(I7
I34
tp1371
aa(lp1372
g1034
a(I9
I153
tp1373
aa(lp1374
g1037
a(I7
I34
tp1375
aa(lp1376
g1040
a(I118
I3360
tp1377
aa(lp1378
g1043
a(I166
I2240
tp1379
aa(lp1380
g1046
a(I0
I6720
tp1381
aa(lp1382
g1049
a(I9069
I80464
tp1383
aa(lp1384
g1052
a(I2821
I4784
tp1385
aa(lp1386
g1055
a(I37
I453
tp1387
aa(lp1388
g1058
a(I96
I176
tp1389
aatp1390
Rp1391
aa(lp1392
S'BlackScholes_1966080_outerPar_1_tileSize_81920'
p1393
ag0
((lp1394
(lp1395
g1023
aI1104239
aa(lp1396
g1025
a(I37
I64
tp1397
aa(lp1398
g1028
a(I7
I64
tp1399
aa(lp1400
g1031
a(I7
I34
tp1401
aa(lp1402
g1034
a(I9
I153
tp1403
aa(lp1404
g1037
a(I7
I34
tp1405
aa(lp1406
g1040
a(I118
I3360
tp1407
aa(lp1408
g1043
a(I213
I2240
tp1409
aa(lp1410
g1046
a(I0
I6720
tp1411
aa(lp1412
g1049
a(I9069
I80464
tp1413
aa(lp1414
g1052
a(I2821
I4784
tp1415
aa(lp1416
g1055
a(I37
I453
tp1417
aa(lp1418
g1058
a(I96
I176
tp1419
aatp1420
Rp1421
aa(lp1422
S'BlackScholes_1966080_outerPar_1_tileSize_98304'
p1423
ag0
((lp1424
(lp1425
g1023
aI1098941
aa(lp1426
g1025
a(I37
I64
tp1427
aa(lp1428
g1028
a(I7
I64
tp1429
aa(lp1430
g1031
a(I7
I34
tp1431
aa(lp1432
g1034
a(I9
I153
tp1433
aa(lp1434
g1037
a(I7
I34
tp1435
aa(lp1436
g1040
a(I122
I3360
tp1437
aa(lp1438
g1043
a(I172
I2240
tp1439
aa(lp1440
g1046
a(I0
I6720
tp1441
aa(lp1442
g1049
a(I9069
I80464
tp1443
aa(lp1444
g1052
a(I2821
I4784
tp1445
aa(lp1446
g1055
a(I37
I453
tp1447
aa(lp1448
g1058
a(I96
I176
tp1449
aatp1450
Rp1451
aa(lp1452
S'BlackScholes_1966080_outerPar_1_tileSize_131072'
p1453
ag0
((lp1454
(lp1455
g1023
aI1095237
aa(lp1456
g1025
a(I37
I64
tp1457
aa(lp1458
g1028
a(I7
I64
tp1459
aa(lp1460
g1031
a(I7
I34
tp1461
aa(lp1462
g1034
a(I9
I153
tp1463
aa(lp1464
g1037
a(I7
I34
tp1465
aa(lp1466
g1040
a(I129
I3360
tp1467
aa(lp1468
g1043
a(I155
I2240
tp1469
aa(lp1470
g1046
a(I0
I6720
tp1471
aa(lp1472
g1049
a(I9069
I80464
tp1473
aa(lp1474
g1052
a(I2821
I4784
tp1475
aa(lp1476
g1055
a(I37
I453
tp1477
aa(lp1478
g1058
a(I96
I176
tp1479
aatp1480
Rp1481
aatp1482
Rp1483
aatp1484
Rp1485
aa(lp1486
S'Kmeans_plasticine'
p1487
ag0
((lp1488
(lp1489
S'1_6144'
p1490
ag0
((lp1491
(lp1492
S'Kmeans_plasticine_1_6144_tileSize_128'
p1493
ag0
((lp1494
(lp1495
g1023
aI5963667
aa(lp1496
g1025
a(I8
I64
tp1497
aa(lp1498
g1028
a(I11
I64
tp1499
aa(lp1500
g1031
a(I3
I34
tp1501
aa(lp1502
g1034
a(I9
I153
tp1503
aa(lp1504
g1037
a(I3
I34
tp1505
aa(lp1506
g1040
a(I57
I3360
tp1507
aa(lp1508
g1043
a(I6
I2240
tp1509
aa(lp1510
g1046
a(I0
I6720
tp1511
aa(lp1512
g1049
a(I605
I37136
tp1513
aa(lp1514
g1052
a(I249
I1936
tp1515
aa(lp1516
g1055
a(I34
I221
tp1517
aa(lp1518
g1058
a(I1
I76
tp1519
aatp1520
Rp1521
aa(lp1522
S'Kmeans_plasticine_1_6144_tileSize_256'
p1523
ag0
((lp1524
(lp1525
g1023
aI5950139
aa(lp1526
g1025
a(I8
I64
tp1527
aa(lp1528
g1028
a(I11
I64
tp1529
aa(lp1530
g1031
a(I3
I34
tp1531
aa(lp1532
g1034
a(I9
I153
tp1533
aa(lp1534
g1037
a(I3
I34
tp1535
aa(lp1536
g1040
a(I48
I3360
tp1537
aa(lp1538
g1043
a(I7
I2240
tp1539
aa(lp1540
g1046
a(I0
I6720
tp1541
aa(lp1542
g1049
a(I605
I37136
tp1543
aa(lp1544
g1052
a(I249
I1936
tp1545
aa(lp1546
g1055
a(I34
I221
tp1547
aa(lp1548
g1058
a(I1
I76
tp1549
aatp1550
Rp1551
aa(lp1552
S'Kmeans_plasticine_1_6144_tileSize_384'
p1553
ag0
((lp1554
(lp1555
g1023
aI5946286
aa(lp1556
g1025
a(I8
I64
tp1557
aa(lp1558
g1028
a(I11
I64
tp1559
aa(lp1560
g1031
a(I3
I34
tp1561
aa(lp1562
g1034
a(I9
I153
tp1563
aa(lp1564
g1037
a(I3
I34
tp1565
aa(lp1566
g1040
a(I54
I3360
tp1567
aa(lp1568
g1043
a(I2
I2240
tp1569
aa(lp1570
g1046
a(I0
I6720
tp1571
aa(lp1572
g1049
a(I605
I37136
tp1573
aa(lp1574
g1052
a(I249
I1936
tp1575
aa(lp1576
g1055
a(I34
I221
tp1577
aa(lp1578
g1058
a(I1
I76
tp1579
aatp1580
Rp1581
aa(lp1582
S'Kmeans_plasticine_1_6144_tileSize_512'
p1583
ag0
((lp1584
(lp1585
g1023
aI5945063
aa(lp1586
g1025
a(I8
I64
tp1587
aa(lp1588
g1028
a(I11
I64
tp1589
aa(lp1590
g1031
a(I3
I34
tp1591
aa(lp1592
g1034
a(I9
I153
tp1593
aa(lp1594
g1037
a(I3
I34
tp1595
aa(lp1596
g1040
a(I62
I3360
tp1597
aa(lp1598
g1043
a(I9
I2240
tp1599
aa(lp1600
g1046
a(I0
I6720
tp1601
aa(lp1602
g1049
a(I605
I37136
tp1603
aa(lp1604
g1052
a(I249
I1936
tp1605
aa(lp1606
g1055
a(I34
I221
tp1607
aa(lp1608
g1058
a(I1
I76
tp1609
aatp1610
Rp1611
aa(lp1612
S'Kmeans_plasticine_1_6144_tileSize_1024'
p1613
ag0
((lp1614
(lp1615
g1023
aI5945409
aa(lp1616
g1025
a(I8
I64
tp1617
aa(lp1618
g1028
a(I11
I64
tp1619
aa(lp1620
g1031
a(I3
I34
tp1621
aa(lp1622
g1034
a(I9
I153
tp1623
aa(lp1624
g1037
a(I3
I34
tp1625
aa(lp1626
g1040
a(I54
I3360
tp1627
aa(lp1628
g1043
a(I1
I2240
tp1629
aa(lp1630
g1046
a(I0
I6720
tp1631
aa(lp1632
g1049
a(I605
I33088
tp1633
aa(lp1634
g1052
a(I249
I1760
tp1635
aa(lp1636
g1055
a(I34
I221
tp1637
aa(lp1638
g1058
a(I1
I76
tp1639
aatp1640
Rp1641
aatp1642
Rp1643
aatp1644
Rp1645
aa(lp1646
S'PageRank_plasticine'
p1647
ag0
((lp1648
(lp1649
S'1_491520_0.125'
p1650
ag0
((lp1651
tp1652
Rp1653
aatp1654
Rp1655
aa(lp1656
S'SPMV_CRS'
p1657
ag0
((lp1658
(lp1659
S''
p1660
ag0
((lp1661
(lp1662
S'SPMV_CRS__tileSize_80_tile_par_1_pt_par_1'
p1663
ag0
((lp1664
(lp1665
S'cycle'
p1666
aI93202
aa(lp1667
S'pcuUtil'
p1668
a(I25
I64
tp1669
aa(lp1670
S'mcuUtil'
p1671
a(I6
I64
tp1672
aa(lp1673
S'scuUtil'
p1674
a(I5
I34
tp1675
aa(lp1676
S'ocuUtil'
p1677
a(I15
I153
tp1678
aa(lp1679
S'mcUtil'
p1680
a(I5
I34
tp1681
aa(lp1682
S'slinkUtil'
p1683
a(I303
I3360
tp1684
aa(lp1685
S'vlinkUtil'
p1686
a(I0
I2240
tp1687
aa(lp1688
S'clinkUtil'
p1689
a(I0
I6720
tp1690
aa(lp1691
S'totalRegUtil'
p1692
a(I868
I54912
tp1693
aa(lp1694
S'totalFUUtil'
p1695
a(I319
I3264
tp1696
aa(lp1697
S'totalSBufUtil'
p1698
a(I107
I363
tp1699
aa(lp1700
S'totalVBufUtil'
p1701
a(I1
I124
tp1702
aatp1703
Rp1704
aa(lp1705
S'SPMV_CRS__tileSize_144_tile_par_1_pt_par_1'
p1706
ag0
((lp1707
(lp1708
g1666
aI83563
aa(lp1709
g1668
a(I25
I64
tp1710
aa(lp1711
g1671
a(I6
I64
tp1712
aa(lp1713
g1674
a(I5
I34
tp1714
aa(lp1715
g1677
a(I15
I153
tp1716
aa(lp1717
g1680
a(I5
I34
tp1718
aa(lp1719
g1683
a(I307
I3360
tp1720
aa(lp1721
g1686
a(I0
I2240
tp1722
aa(lp1723
g1689
a(I0
I6720
tp1724
aa(lp1725
g1692
a(I868
I54912
tp1726
aa(lp1727
g1695
a(I319
I3264
tp1728
aa(lp1729
g1698
a(I107
I363
tp1730
aa(lp1731
g1701
a(I1
I124
tp1732
aatp1733
Rp1734
aa(lp1735
S'SPMV_CRS__tileSize_144_tile_par_1_pt_par_2'
p1736
ag0
((lp1737
(lp1738
g1666
aI74606
aa(lp1739
g1668
a(I40
I64
tp1740
aa(lp1741
g1671
a(I9
I64
tp1742
aa(lp1743
g1674
a(I8
I34
tp1744
aa(lp1745
g1677
a(I22
I153
tp1746
aa(lp1747
g1680
a(I8
I34
tp1748
aa(lp1749
g1683
a(I592
I3360
tp1750
aa(lp1751
g1686
a(I0
I2240
tp1752
aa(lp1753
g1689
a(I0
I6720
tp1754
aa(lp1755
g1692
a(I1321
I86976
tp1756
aa(lp1757
g1695
a(I497
I5184
tp1758
aa(lp1759
g1698
a(I168
I566
tp1760
aa(lp1761
g1701
a(I2
I196
tp1762
aatp1763
Rp1764
aa(lp1765
S'SPMV_CRS__tileSize_208_tile_par_1_pt_par_1'
p1766
ag0
((lp1767
(lp1768
g1666
aI80064
aa(lp1769
g1668
a(I25
I64
tp1770
aa(lp1771
g1671
a(I6
I64
tp1772
aa(lp1773
g1674
a(I5
I34
tp1774
aa(lp1775
g1677
a(I15
I153
tp1776
aa(lp1777
g1680
a(I5
I34
tp1778
aa(lp1779
g1683
a(I254
I3360
tp1780
aa(lp1781
g1686
a(I0
I2240
tp1782
aa(lp1783
g1689
a(I0
I6720
tp1784
aa(lp1785
g1692
a(I868
I54912
tp1786
aa(lp1787
g1695
a(I319
I3264
tp1788
aa(lp1789
g1698
a(I107
I363
tp1790
aa(lp1791
g1701
a(I1
I124
tp1792
aatp1793
Rp1794
aa(lp1795
S'SPMV_CRS__tileSize_208_tile_par_1_pt_par_2'
p1796
ag0
((lp1797
(lp1798
g1666
aI71824
aa(lp1799
g1668
a(I40
I64
tp1800
aa(lp1801
g1671
a(I9
I64
tp1802
aa(lp1803
g1674
a(I8
I34
tp1804
aa(lp1805
g1677
a(I22
I153
tp1806
aa(lp1807
g1680
a(I8
I34
tp1808
aa(lp1809
g1683
a(I527
I3360
tp1810
aa(lp1811
g1686
a(I0
I2240
tp1812
aa(lp1813
g1689
a(I0
I6720
tp1814
aa(lp1815
g1692
a(I1321
I86976
tp1816
aa(lp1817
g1695
a(I497
I5184
tp1818
aa(lp1819
g1698
a(I168
I566
tp1820
aa(lp1821
g1701
a(I2
I196
tp1822
aatp1823
Rp1824
aa(lp1825
S'SPMV_CRS__tileSize_400_tile_par_2_pt_par_1'
p1826
ag0
((lp1827
(lp1828
g1666
aI76913
aa(lp1829
g1668
a(I49
I64
tp1830
aa(lp1831
g1671
a(I12
I64
tp1832
aa(lp1833
g1674
a(I10
I34
tp1834
aa(lp1835
g1677
a(I28
I153
tp1836
aa(lp1837
g1680
a(I10
I34
tp1838
aa(lp1839
g1683
a(I719
I3360
tp1840
aa(lp1841
g1686
a(I0
I2240
tp1842
aa(lp1843
g1689
a(I0
I6720
tp1844
aa(lp1845
g1692
a(I1730
I108288
tp1846
aa(lp1847
g1695
a(I637
I6432
tp1848
aa(lp1849
g1698
a(I212
I708
tp1850
aa(lp1851
g1701
a(I2
I244
tp1852
aatp1853
Rp1854
aatp1855
Rp1856
aatp1857
Rp1858
aa(lp1859
S'GEMM_Blocked'
p1860
ag0
((lp1861
(lp1862
g1660
ag0
((lp1863
(lp1864
S'GEMM_Blocked__tileSize_16_i_tileSize_16_loop_jj_1_loop_ii_1_loop_kk_1_loop_i_1_loop_k_1'
p1865
ag0
((lp1866
(lp1867
g1023
aI71521420
aa(lp1868
g1025
a(I18
I64
tp1869
aa(lp1870
g1028
a(I8
I64
tp1871
aa(lp1872
g1031
a(I3
I34
tp1873
aa(lp1874
g1034
a(I11
I153
tp1875
aa(lp1876
g1037
a(I3
I34
tp1877
aa(lp1878
g1040
a(I170
I3360
tp1879
aa(lp1880
g1043
a(I0
I2240
tp1881
aa(lp1882
g1046
a(I0
I6720
tp1883
aa(lp1884
g1049
a(I789
I46976
tp1885
aa(lp1886
g1052
a(I236
I2656
tp1887
aa(lp1888
g1055
a(I81
I287
tp1889
aa(lp1890
g1058
a(I0
I104
tp1891
aatp1892
Rp1893
aa(lp1894
S'GEMM_Blocked__tileSize_16_i_tileSize_16_loop_jj_1_loop_ii_1_loop_kk_1_loop_i_2_loop_k_1'
p1895
ag0
((lp1896
(lp1897
g1023
aI38484739
aa(lp1898
g1025
a(I25
I64
tp1899
aa(lp1900
g1028
a(I14
I64
tp1901
aa(lp1902
g1031
a(I4
I34
tp1903
aa(lp1904
g1034
a(I14
I153
tp1905
aa(lp1906
g1037
a(I4
I34
tp1907
aa(lp1908
g1040
a(I274
I3360
tp1909
aa(lp1910
g1043
a(I0
I2240
tp1911
aa(lp1912
g1046
a(I0
I6720
tp1913
aa(lp1914
g1049
a(I1076
I70304
tp1915
aa(lp1916
g1052
a(I303
I3904
tp1917
aa(lp1918
g1055
a(I114
I414
tp1919
aa(lp1920
g1058
a(I0
I156
tp1921
aatp1922
Rp1923
aa(lp1924
S'GEMM_Blocked__tileSize_16_i_tileSize_16_loop_jj_1_loop_ii_1_loop_kk_1_loop_i_2_loop_k_2'
p1925
ag0
((lp1926
(lp1927
g1023
aI28935759
aa(lp1928
g1025
a(I27
I64
tp1929
aa(lp1930
g1028
a(I18
I64
tp1931
aa(lp1932
g1031
a(I4
I34
tp1933
aa(lp1934
g1034
a(I14
I153
tp1935
aa(lp1936
g1037
a(I4
I34
tp1937
aa(lp1938
g1040
a(I262
I3360
tp1939
aa(lp1940
g1043
a(I0
I2240
tp1941
aa(lp1942
g1046
a(I0
I6720
tp1943
aa(lp1944
g1049
a(I1312
I80736
tp1945
aa(lp1946
g1052
a(I377
I4416
tp1947
aa(lp1948
g1055
a(I130
I462
tp1949
aa(lp1950
g1058
a(I0
I180
tp1951
aatp1952
Rp1953
aa(lp1954
S'GEMM_Blocked__tileSize_16_i_tileSize_16_loop_jj_1_loop_ii_1_loop_kk_2_loop_i_1_loop_k_1'
p1955
ag0
((lp1956
(lp1957
g1023
aI36502225
aa(lp1958
g1025
a(I30
I64
tp1959
aa(lp1960
g1028
a(I14
I64
tp1961
aa(lp1962
g1031
a(I5
I34
tp1963
aa(lp1964
g1034
a(I17
I153
tp1965
aa(lp1966
g1037
a(I5
I34
tp1967
aa(lp1968
g1040
a(I359
I3360
tp1969
aa(lp1970
g1043
a(I0
I2240
tp1971
aa(lp1972
g1046
a(I0
I6720
tp1973
aa(lp1974
g1049
a(I1206
I79520
tp1975
aa(lp1976
g1052
a(I375
I4480
tp1977
aa(lp1978
g1055
a(I134
I477
tp1979
aa(lp1980
g1058
a(I0
I176
tp1981
aatp1982
Rp1983
aa(lp1984
S'GEMM_Blocked__tileSize_16_i_tileSize_16_loop_jj_1_loop_ii_1_loop_kk_2_loop_i_1_loop_k_2'
p1985
ag0
((lp1986
(lp1987
g1023
aI26960180
aa(lp1988
g1025
a(I32
I64
tp1989
aa(lp1990
g1028
a(I18
I64
tp1991
aa(lp1992
g1031
a(I5
I34
tp1993
aa(lp1994
g1034
a(I17
I153
tp1995
aa(lp1996
g1037
a(I5
I34
tp1997
aa(lp1998
g1040
a(I407
I3360
tp1999
aa(lp2000
g1043
a(I0
I2240
tp2001
aa(lp2002
g1046
a(I0
I6720
tp2003
aa(lp2004
g1049
a(I1442
I89952
tp2005
aa(lp2006
g1052
a(I449
I4992
tp2007
aa(lp2008
g1055
a(I150
I525
tp2009
aa(lp2010
g1058
a(I0
I200
tp2011
aatp2012
Rp2013
aa(lp2014
S'GEMM_Blocked__tileSize_16_i_tileSize_16_loop_jj_1_loop_ii_1_loop_kk_2_loop_i_2_loop_k_1'
p2015
ag0
((lp2016
(lp2017
g1023
aI19968305
aa(lp2018
g1025
a(I44
I64
tp2019
aa(lp2020
g1028
a(I26
I64
tp2021
aa(lp2022
g1031
a(I7
I34
tp2023
aa(lp2024
g1034
a(I23
I153
tp2025
aa(lp2026
g1037
a(I7
I34
tp2027
aa(lp2028
g1040
a(I535
I3360
tp2029
aa(lp2030
g1043
a(I0
I2240
tp2031
aa(lp2032
g1046
a(I0
I6720
tp2033
aa(lp2034
g1049
a(I1780
I126176
tp2035
aa(lp2036
g1052
a(I509
I6976
tp2037
aa(lp2038
g1055
a(I200
I731
tp2039
aa(lp2040
g1058
a(I0
I280
tp2041
aatp2042
Rp2043
aa(lp2044
S'GEMM_Blocked__tileSize_16_i_tileSize_16_loop_jj_1_loop_ii_1_loop_kk_2_loop_i_2_loop_k_2'
p2045
ag0
((lp2046
(lp2047
g1023
aI15225514
aa(lp2048
g1025
a(I48
I64
tp2049
aa(lp2050
g1028
a(I34
I64
tp2051
aa(lp2052
g1031
a(I7
I34
tp2053
aa(lp2054
g1034
a(I23
I153
tp2055
aa(lp2056
g1037
a(I7
I34
tp2057
aa(lp2058
g1040
a(I662
I3360
tp2059
aa(lp2060
g1043
a(I0
I2240
tp2061
aa(lp2062
g1046
a(I0
I6720
tp2063
aa(lp2064
g1049
a(I2252
I147040
tp2065
aa(lp2066
g1052
a(I657
I8000
tp2067
aa(lp2068
g1055
a(I232
I827
tp2069
aa(lp2070
g1058
a(I0
I328
tp2071
aatp2072
Rp2073
aa(lp2074
S'GEMM_Blocked__tileSize_16_i_tileSize_16_loop_jj_1_loop_ii_2_loop_kk_1_loop_i_1_loop_k_2'
p2075
ag0
((lp2076
(lp2077
g1023
aI26373270
aa(lp2078
g1025
a(I38
I64
tp2079
aa(lp2080
g1028
a(I20
I64
tp2081
aa(lp2082
g1031
a(I6
I34
tp2083
aa(lp2084
g1034
a(I23
I153
tp2085
aa(lp2086
g1037
a(I6
I34
tp2087
aa(lp2088
g1040
a(I507
I3360
tp2089
aa(lp2090
g1043
a(I0
I2240
tp2091
aa(lp2092
g1046
a(I0
I6720
tp2093
aa(lp2094
g1049
a(I1814
I104384
tp2095
aa(lp2096
g1052
a(I546
I5824
tp2097
aa(lp2098
g1055
a(I179
I627
tp2099
aa(lp2100
g1058
a(I0
I232
tp2101
aatp2102
Rp2103
aa(lp2104
S'GEMM_Blocked__tileSize_16_i_tileSize_16_loop_jj_1_loop_ii_2_loop_kk_1_loop_i_2_loop_k_2'
p2105
ag0
((lp2106
(lp2107
g1023
aI14668242
aa(lp2108
g1025
a(I54
I64
tp2109
aa(lp2110
g1028
a(I36
I64
tp2111
aa(lp2112
g1031
a(I8
I34
tp2113
aa(lp2114
g1034
a(I29
I153
tp2115
aa(lp2116
g1037
a(I8
I34
tp2117
aa(lp2118
g1040
a(I786
I3360
tp2119
aa(lp2120
g1043
a(I0
I2240
tp2121
aa(lp2122
g1046
a(I0
I6720
tp2123
aa(lp2124
g1049
a(I2624
I161472
tp2125
aa(lp2126
g1052
a(I754
I8832
tp2127
aa(lp2128
g1055
a(I261
I929
tp2129
aa(lp2130
g1058
a(I0
I360
tp2131
aatp2132
Rp2133
aa(lp2134
S'GEMM_Blocked__tileSize_16_i_tileSize_16_loop_jj_1_loop_ii_2_loop_kk_2_loop_i_1_loop_k_2'
p2135
ag0
((lp2136
(lp2137
g1023
aI13866271
aa(lp2138
g1025
a(I64
I64
tp2139
aa(lp2140
g1028
a(I36
I64
tp2141
aa(lp2142
g1031
a(I10
I34
tp2143
aa(lp2144
g1034
a(I35
I153
tp2145
aa(lp2146
g1037
a(I10
I34
tp2147
aa(lp2148
g1040
a(I920
I3360
tp2149
aa(lp2150
g1043
a(I0
I2240
tp2151
aa(lp2152
g1046
a(I0
I6720
tp2153
aa(lp2154
g1049
a(I2884
I179904
tp2155
aa(lp2156
g1052
a(I898
I9984
tp2157
aa(lp2158
g1055
a(I301
I1055
tp2159
aa(lp2160
g1058
a(I0
I400
tp2161
aatp2162
Rp2163
aa(lp2164
S'GEMM_Blocked__tileSize_16_i_tileSize_16_loop_jj_2_loop_ii_1_loop_kk_1_loop_i_1_loop_k_1'
p2165
ag0
((lp2166
(lp2167
g1023
aI35922717
aa(lp2168
g1025
a(I36
I64
tp2169
aa(lp2170
g1028
a(I16
I64
tp2171
aa(lp2172
g1031
a(I6
I34
tp2173
aa(lp2174
g1034
a(I21
I153
tp2175
aa(lp2176
g1037
a(I6
I34
tp2177
aa(lp2178
g1040
a(I457
I3360
tp2179
aa(lp2180
g1043
a(I0
I2240
tp2181
aa(lp2182
g1046
a(I0
I6720
tp2183
aa(lp2184
g1049
a(I1578
I93952
tp2185
aa(lp2186
g1052
a(I472
I5312
tp2187
aa(lp2188
g1055
a(I161
I569
tp2189
aa(lp2190
g1058
a(I0
I208
tp2191
aatp2192
Rp2193
aa(lp2194
S'GEMM_Blocked__tileSize_16_i_tileSize_16_loop_jj_2_loop_ii_1_loop_kk_1_loop_i_2_loop_k_2'
p2195
ag0
((lp2196
(lp2197
g1023
aI14594499
aa(lp2198
g1025
a(I54
I64
tp2199
aa(lp2200
g1028
a(I36
I64
tp2201
aa(lp2202
g1031
a(I8
I34
tp2203
aa(lp2204
g1034
a(I27
I153
tp2205
aa(lp2206
g1037
a(I8
I34
tp2207
aa(lp2208
g1040
a(I830
I3360
tp2209
aa(lp2210
g1043
a(I0
I2240
tp2211
aa(lp2212
g1046
a(I0
I6720
tp2213
aa(lp2214
g1049
a(I2624
I161472
tp2215
aa(lp2216
g1052
a(I754
I8832
tp2217
aa(lp2218
g1055
a(I259
I919
tp2219
aa(lp2220
g1058
a(I0
I360
tp2221
aatp2222
Rp2223
aa(lp2224
S'GEMM_Blocked__tileSize_16_i_tileSize_16_loop_jj_2_loop_ii_1_loop_kk_2_loop_i_1_loop_k_1'
p2225
ag0
((lp2226
(lp2227
g1023
aI18283225
aa(lp2228
g1025
a(I60
I64
tp2229
aa(lp2230
g1028
a(I28
I64
tp2231
aa(lp2232
g1031
a(I10
I34
tp2233
aa(lp2234
g1034
a(I33
I153
tp2235
aa(lp2236
g1037
a(I10
I34
tp2237
aa(lp2238
g1040
a(I839
I3360
tp2239
aa(lp2240
g1043
a(I0
I2240
tp2241
aa(lp2242
g1046
a(I0
I6720
tp2243
aa(lp2244
g1049
a(I2412
I159040
tp2245
aa(lp2246
g1052
a(I750
I8960
tp2247
aa(lp2248
g1055
a(I267
I949
tp2249
aa(lp2250
g1058
a(I0
I352
tp2251
aatp2252
Rp2253
aa(lp2254
S'GEMM_Blocked__tileSize_16_i_tileSize_256_loop_jj_1_loop_ii_1_loop_kk_1_loop_i_1_loop_k_1'
p2255
ag0
((lp2256
(lp2257
g1023
aI68229998
aa(lp2258
g1025
a(I18
I64
tp2259
aa(lp2260
g1028
a(I8
I64
tp2261
aa(lp2262
g1031
a(I3
I34
tp2263
aa(lp2264
g1034
a(I11
I153
tp2265
aa(lp2266
g1037
a(I3
I34
tp2267
aa(lp2268
g1040
a(I176
I3360
tp2269
aa(lp2270
g1043
a(I0
I2240
tp2271
aa(lp2272
g1046
a(I0
I6720
tp2273
aa(lp2274
g1049
a(I789
I46976
tp2275
aa(lp2276
g1052
a(I236
I2656
tp2277
aa(lp2278
g1055
a(I81
I287
tp2279
aa(lp2280
g1058
a(I0
I104
tp2281
aatp2282
Rp2283
aa(lp2284
S'GEMM_Blocked__tileSize_16_i_tileSize_256_loop_jj_1_loop_ii_1_loop_kk_1_loop_i_2_loop_k_1'
p2285
ag0
((lp2286
(lp2287
g1023
aI34846139
aa(lp2288
g1025
a(I25
I64
tp2289
aa(lp2290
g1028
a(I14
I64
tp2291
aa(lp2292
g1031
a(I4
I34
tp2293
aa(lp2294
g1034
a(I14
I153
tp2295
aa(lp2296
g1037
a(I4
I34
tp2297
aa(lp2298
g1040
a(I304
I3360
tp2299
aa(lp2300
g1043
a(I0
I2240
tp2301
aa(lp2302
g1046
a(I0
I6720
tp2303
aa(lp2304
g1049
a(I1076
I70304
tp2305
aa(lp2306
g1052
a(I303
I3904
tp2307
aa(lp2308
g1055
a(I114
I414
tp2309
aa(lp2310
g1058
a(I0
I156
tp2311
aatp2312
Rp2313
aa(lp2314
S'GEMM_Blocked__tileSize_16_i_tileSize_256_loop_jj_1_loop_ii_1_loop_kk_2_loop_i_1_loop_k_2'
p2315
ag0
((lp2316
(lp2317
g1023
aI24598886
aa(lp2318
g1025
a(I32
I64
tp2319
aa(lp2320
g1028
a(I18
I64
tp2321
aa(lp2322
g1031
a(I5
I34
tp2323
aa(lp2324
g1034
a(I17
I153
tp2325
aa(lp2326
g1037
a(I5
I34
tp2327
aa(lp2328
g1040
a(I386
I3360
tp2329
aa(lp2330
g1043
a(I0
I2240
tp2331
aa(lp2332
g1046
a(I0
I6720
tp2333
aa(lp2334
g1049
a(I1442
I89952
tp2335
aa(lp2336
g1052
a(I449
I4992
tp2337
aa(lp2338
g1055
a(I150
I525
tp2339
aa(lp2340
g1058
a(I0
I200
tp2341
aatp2342
Rp2343
aa(lp2344
S'GEMM_Blocked__tileSize_16_i_tileSize_256_loop_jj_1_loop_ii_1_loop_kk_2_loop_i_2_loop_k_1'
p2345
ag0
((lp2346
(lp2347
g1023
aI17541238
aa(lp2348
g1025
a(I44
I64
tp2349
aa(lp2350
g1028
a(I26
I64
tp2351
aa(lp2352
g1031
a(I7
I34
tp2353
aa(lp2354
g1034
a(I23
I153
tp2355
aa(lp2356
g1037
a(I7
I34
tp2357
aa(lp2358
g1040
a(I506
I3360
tp2359
aa(lp2360
g1043
a(I0
I2240
tp2361
aa(lp2362
g1046
a(I0
I6720
tp2363
aa(lp2364
g1049
a(I1780
I126176
tp2365
aa(lp2366
g1052
a(I509
I6976
tp2367
aa(lp2368
g1055
a(I200
I731
tp2369
aa(lp2370
g1058
a(I0
I280
tp2371
aatp2372
Rp2373
aa(lp2374
S'GEMM_Blocked__tileSize_16_i_tileSize_256_loop_jj_1_loop_ii_1_loop_kk_2_loop_i_2_loop_k_2'
p2375
ag0
((lp2376
(lp2377
g1023
aI12713018
aa(lp2378
g1025
a(I48
I64
tp2379
aa(lp2380
g1028
a(I34
I64
tp2381
aa(lp2382
g1031
a(I7
I34
tp2383
aa(lp2384
g1034
a(I23
I153
tp2385
aa(lp2386
g1037
a(I7
I34
tp2387
aa(lp2388
g1040
a(I634
I3360
tp2389
aa(lp2390
g1043
a(I0
I2240
tp2391
aa(lp2392
g1046
a(I0
I6720
tp2393
aa(lp2394
g1049
a(I2252
I147040
tp2395
aa(lp2396
g1052
a(I657
I8000
tp2397
aa(lp2398
g1055
a(I232
I827
tp2399
aa(lp2400
g1058
a(I0
I328
tp2401
aatp2402
Rp2403
aa(lp2404
S'GEMM_Blocked__tileSize_16_i_tileSize_256_loop_jj_1_loop_ii_2_loop_kk_1_loop_i_1_loop_k_2'
p2405
ag0
((lp2406
(lp2407
g1023
aI25823937
aa(lp2408
g1025
a(I38
I64
tp2409
aa(lp2410
g1028
a(I20
I64
tp2411
aa(lp2412
g1031
a(I6
I34
tp2413
aa(lp2414
g1034
a(I23
I153
tp2415
aa(lp2416
g1037
a(I6
I34
tp2417
aa(lp2418
g1040
a(I509
I3360
tp2419
aa(lp2420
g1043
a(I0
I2240
tp2421
aa(lp2422
g1046
a(I0
I6720
tp2423
aa(lp2424
g1049
a(I1814
I104384
tp2425
aa(lp2426
g1052
a(I546
I5824
tp2427
aa(lp2428
g1055
a(I179
I627
tp2429
aa(lp2430
g1058
a(I0
I232
tp2431
aatp2432
Rp2433
aa(lp2434
S'GEMM_Blocked__tileSize_16_i_tileSize_256_loop_jj_1_loop_ii_2_loop_kk_1_loop_i_2_loop_k_1'
p2435
ag0
((lp2436
(lp2437
g1023
aI17506145
aa(lp2438
g1025
a(I50
I64
tp2439
aa(lp2440
g1028
a(I28
I64
tp2441
aa(lp2442
g1031
a(I8
I34
tp2443
aa(lp2444
g1034
a(I29
I153
tp2445
aa(lp2446
g1037
a(I8
I34
tp2447
aa(lp2448
g1040
a(I655
I3360
tp2449
aa(lp2450
g1043
a(I0
I2240
tp2451
aa(lp2452
g1046
a(I0
I6720
tp2453
aa(lp2454
g1049
a(I2152
I140608
tp2455
aa(lp2456
g1052
a(I606
I7808
tp2457
aa(lp2458
g1055
a(I229
I833
tp2459
aa(lp2460
g1058
a(I0
I312
tp2461
aatp2462
Rp2463
aa(lp2464
S'GEMM_Blocked__tileSize_16_i_tileSize_256_loop_jj_1_loop_ii_2_loop_kk_1_loop_i_2_loop_k_2'
p2465
ag0
((lp2466
(lp2467
g1023
aI12800236
aa(lp2468
g1025
a(I54
I64
tp2469
aa(lp2470
g1028
a(I36
I64
tp2471
aa(lp2472
g1031
a(I8
I34
tp2473
aa(lp2474
g1034
a(I29
I153
tp2475
aa(lp2476
g1037
a(I8
I34
tp2477
aa(lp2478
g1040
a(I808
I3360
tp2479
aa(lp2480
g1043
a(I0
I2240
tp2481
aa(lp2482
g1046
a(I0
I6720
tp2483
aa(lp2484
g1049
a(I2624
I161472
tp2485
aa(lp2486
g1052
a(I754
I8832
tp2487
aa(lp2488
g1055
a(I261
I929
tp2489
aa(lp2490
g1058
a(I0
I360
tp2491
aatp2492
Rp2493
aa(lp2494
S'GEMM_Blocked__tileSize_16_i_tileSize_256_loop_jj_1_loop_ii_2_loop_kk_2_loop_i_1_loop_k_2'
p2495
ag0
((lp2496
(lp2497
g1023
aI13025035
aa(lp2498
g1025
a(I64
I64
tp2499
aa(lp2500
g1028
a(I36
I64
tp2501
aa(lp2502
g1031
a(I10
I34
tp2503
aa(lp2504
g1034
a(I35
I153
tp2505
aa(lp2506
g1037
a(I10
I34
tp2507
aa(lp2508
g1040
a(I1027
I3360
tp2509
aa(lp2510
g1043
a(I0
I2240
tp2511
aa(lp2512
g1046
a(I0
I6720
tp2513
aa(lp2514
g1049
a(I2884
I179904
tp2515
aa(lp2516
g1052
a(I898
I9984
tp2517
aa(lp2518
g1055
a(I301
I1055
tp2519
aa(lp2520
g1058
a(I0
I400
tp2521
aatp2522
Rp2523
aa(lp2524
S'GEMM_Blocked__tileSize_16_i_tileSize_256_loop_jj_2_loop_ii_1_loop_kk_1_loop_i_1_loop_k_1'
p2525
ag0
((lp2526
(lp2527
g1023
aI34144736
aa(lp2528
g1025
a(I36
I64
tp2529
aa(lp2530
g1028
a(I16
I64
tp2531
aa(lp2532
g1031
a(I6
I34
tp2533
aa(lp2534
g1034
a(I21
I153
tp2535
aa(lp2536
g1037
a(I6
I34
tp2537
aa(lp2538
g1040
a(I470
I3360
tp2539
aa(lp2540
g1043
a(I0
I2240
tp2541
aa(lp2542
g1046
a(I0
I6720
tp2543
aa(lp2544
g1049
a(I1578
I93952
tp2545
aa(lp2546
g1052
a(I472
I5312
tp2547
aa(lp2548
g1055
a(I161
I569
tp2549
aa(lp2550
g1058
a(I0
I208
tp2551
aatp2552
Rp2553
aa(lp2554
S'GEMM_Blocked__tileSize_16_i_tileSize_256_loop_jj_2_loop_ii_1_loop_kk_1_loop_i_1_loop_k_2'
p2555
ag0
((lp2556
(lp2557
g1023
aI24586004
aa(lp2558
g1025
a(I38
I64
tp2559
aa(lp2560
g1028
a(I20
I64
tp2561
aa(lp2562
g1031
a(I6
I34
tp2563
aa(lp2564
g1034
a(I21
I153
tp2565
aa(lp2566
g1037
a(I6
I34
tp2567
aa(lp2568
g1040
a(I566
I3360
tp2569
aa(lp2570
g1043
a(I0
I2240
tp2571
aa(lp2572
g1046
a(I0
I6720
tp2573
aa(lp2574
g1049
a(I1814
I104384
tp2575
aa(lp2576
g1052
a(I546
I5824
tp2577
aa(lp2578
g1055
a(I177
I617
tp2579
aa(lp2580
g1058
a(I0
I232
tp2581
aatp2582
Rp2583
aa(lp2584
S'GEMM_Blocked__tileSize_16_i_tileSize_256_loop_jj_2_loop_ii_1_loop_kk_1_loop_i_2_loop_k_2'
p2585
ag0
((lp2586
(lp2587
g1023
aI12714609
aa(lp2588
g1025
a(I54
I64
tp2589
aa(lp2590
g1028
a(I36
I64
tp2591
aa(lp2592
g1031
a(I8
I34
tp2593
aa(lp2594
g1034
a(I27
I153
tp2595
aa(lp2596
g1037
a(I8
I34
tp2597
aa(lp2598
g1040
a(I781
I3360
tp2599
aa(lp2600
g1043
a(I0
I2240
tp2601
aa(lp2602
g1046
a(I0
I6720
tp2603
aa(lp2604
g1049
a(I2624
I161472
tp2605
aa(lp2606
g1052
a(I754
I8832
tp2607
aa(lp2608
g1055
a(I259
I919
tp2609
aa(lp2610
g1058
a(I0
I360
tp2611
aatp2612
Rp2613
aa(lp2614
S'GEMM_Blocked__tileSize_16_i_tileSize_256_loop_jj_2_loop_ii_1_loop_kk_2_loop_i_1_loop_k_2'
p2615
ag0
((lp2616
(lp2617
g1023
aI12337205
aa(lp2618
g1025
a(I64
I64
tp2619
aa(lp2620
g1028
a(I36
I64
tp2621
aa(lp2622
g1031
a(I10
I34
tp2623
aa(lp2624
g1034
a(I33
I153
tp2625
aa(lp2626
g1037
a(I10
I34
tp2627
aa(lp2628
g1040
a(I931
I3360
tp2629
aa(lp2630
g1043
a(I0
I2240
tp2631
aa(lp2632
g1046
a(I0
I6720
tp2633
aa(lp2634
g1049
a(I2884
I179904
tp2635
aa(lp2636
g1052
a(I898
I9984
tp2637
aa(lp2638
g1055
a(I299
I1045
tp2639
aa(lp2640
g1058
a(I0
I400
tp2641
aatp2642
Rp2643
aa(lp2644
S'GEMM_Blocked__tileSize_256_i_tileSize_16_loop_jj_1_loop_ii_1_loop_kk_1_loop_i_1_loop_k_2'
p2645
ag0
((lp2646
(lp2647
g1023
aI5572523
aa(lp2648
g1025
a(I19
I64
tp2649
aa(lp2650
g1028
a(I10
I64
tp2651
aa(lp2652
g1031
a(I3
I34
tp2653
aa(lp2654
g1034
a(I11
I153
tp2655
aa(lp2656
g1037
a(I3
I34
tp2657
aa(lp2658
g1040
a(I221
I3360
tp2659
aa(lp2660
g1043
a(I0
I2240
tp2661
aa(lp2662
g1046
a(I0
I6720
tp2663
aa(lp2664
g1049
a(I907
I52192
tp2665
aa(lp2666
g1052
a(I273
I2912
tp2667
aa(lp2668
g1055
a(I89
I311
tp2669
aa(lp2670
g1058
a(I0
I116
tp2671
aatp2672
Rp2673
aa(lp2674
S'GEMM_Blocked__tileSize_256_i_tileSize_16_loop_jj_1_loop_ii_1_loop_kk_1_loop_i_2_loop_k_2'
p2675
ag0
((lp2676
(lp2677
g1023
aI3408851
aa(lp2678
g1025
a(I27
I64
tp2679
aa(lp2680
g1028
a(I18
I64
tp2681
aa(lp2682
g1031
a(I4
I34
tp2683
aa(lp2684
g1034
a(I14
I153
tp2685
aa(lp2686
g1037
a(I4
I34
tp2687
aa(lp2688
g1040
a(I294
I3360
tp2689
aa(lp2690
g1043
a(I0
I2240
tp2691
aa(lp2692
g1046
a(I0
I6720
tp2693
aa(lp2694
g1049
a(I1312
I80736
tp2695
aa(lp2696
g1052
a(I377
I4416
tp2697
aa(lp2698
g1055
a(I130
I462
tp2699
aa(lp2700
g1058
a(I0
I180
tp2701
aatp2702
Rp2703
aa(lp2704
S'GEMM_Blocked__tileSize_256_i_tileSize_16_loop_jj_1_loop_ii_1_loop_kk_2_loop_i_1_loop_k_1'
p2705
ag0
((lp2706
(lp2707
g1023
aI5271241
aa(lp2708
g1025
a(I30
I64
tp2709
aa(lp2710
g1028
a(I14
I64
tp2711
aa(lp2712
g1031
a(I5
I34
tp2713
aa(lp2714
g1034
a(I17
I153
tp2715
aa(lp2716
g1037
a(I5
I34
tp2717
aa(lp2718
g1040
a(I369
I3360
tp2719
aa(lp2720
g1043
a(I0
I2240
tp2721
aa(lp2722
g1046
a(I0
I6720
tp2723
aa(lp2724
g1049
a(I1206
I79520
tp2725
aa(lp2726
g1052
a(I375
I4480
tp2727
aa(lp2728
g1055
a(I134
I477
tp2729
aa(lp2730
g1058
a(I0
I176
tp2731
aatp2732
Rp2733
aa(lp2734
S'GEMM_Blocked__tileSize_256_i_tileSize_16_loop_jj_1_loop_ii_1_loop_kk_2_loop_i_1_loop_k_2'
p2735
ag0
((lp2736
(lp2737
g1023
aI3638520
aa(lp2738
g1025
a(I32
I64
tp2739
aa(lp2740
g1028
a(I18
I64
tp2741
aa(lp2742
g1031
a(I5
I34
tp2743
aa(lp2744
g1034
a(I17
I153
tp2745
aa(lp2746
g1037
a(I5
I34
tp2747
aa(lp2748
g1040
a(I400
I3360
tp2749
aa(lp2750
g1043
a(I0
I2240
tp2751
aa(lp2752
g1046
a(I0
I6720
tp2753
aa(lp2754
g1049
a(I1442
I89952
tp2755
aa(lp2756
g1052
a(I449
I4992
tp2757
aa(lp2758
g1055
a(I150
I525
tp2759
aa(lp2760
g1058
a(I0
I200
tp2761
aatp2762
Rp2763
aa(lp2764
S'GEMM_Blocked__tileSize_256_i_tileSize_16_loop_jj_1_loop_ii_1_loop_kk_2_loop_i_2_loop_k_1'
p2765
ag0
((lp2766
(lp2767
g1023
aI3368261
aa(lp2768
g1025
a(I44
I64
tp2769
aa(lp2770
g1028
a(I26
I64
tp2771
aa(lp2772
g1031
a(I7
I34
tp2773
aa(lp2774
g1034
a(I23
I153
tp2775
aa(lp2776
g1037
a(I7
I34
tp2777
aa(lp2778
g1040
a(I517
I3360
tp2779
aa(lp2780
g1043
a(I0
I2240
tp2781
aa(lp2782
g1046
a(I0
I6720
tp2783
aa(lp2784
g1049
a(I1780
I126176
tp2785
aa(lp2786
g1052
a(I509
I6976
tp2787
aa(lp2788
g1055
a(I200
I731
tp2789
aa(lp2790
g1058
a(I0
I280
tp2791
aatp2792
Rp2793
aa(lp2794
S'GEMM_Blocked__tileSize_256_i_tileSize_16_loop_jj_1_loop_ii_2_loop_kk_1_loop_i_1_loop_k_1'
p2795
ag0
((lp2796
(lp2797
g1023
aI4864954
aa(lp2798
g1025
a(I36
I64
tp2799
aa(lp2800
g1028
a(I16
I64
tp2801
aa(lp2802
g1031
a(I6
I34
tp2803
aa(lp2804
g1034
a(I23
I153
tp2805
aa(lp2806
g1037
a(I6
I34
tp2807
aa(lp2808
g1040
a(I465
I3360
tp2809
aa(lp2810
g1043
a(I0
I2240
tp2811
aa(lp2812
g1046
a(I0
I6720
tp2813
aa(lp2814
g1049
a(I1578
I93952
tp2815
aa(lp2816
g1052
a(I472
I5312
tp2817
aa(lp2818
g1055
a(I163
I579
tp2819
aa(lp2820
g1058
a(I0
I208
tp2821
aatp2822
Rp2823
aa(lp2824
S'GEMM_Blocked__tileSize_256_i_tileSize_16_loop_jj_1_loop_ii_2_loop_kk_1_loop_i_1_loop_k_2'
p2825
ag0
((lp2826
(lp2827
g1023
aI3331849
aa(lp2828
g1025
a(I38
I64
tp2829
aa(lp2830
g1028
a(I20
I64
tp2831
aa(lp2832
g1031
a(I6
I34
tp2833
aa(lp2834
g1034
a(I23
I153
tp2835
aa(lp2836
g1037
a(I6
I34
tp2837
aa(lp2838
g1040
a(I520
I3360
tp2839
aa(lp2840
g1043
a(I0
I2240
tp2841
aa(lp2842
g1046
a(I0
I6720
tp2843
aa(lp2844
g1049
a(I1814
I104384
tp2845
aa(lp2846
g1052
a(I546
I5824
tp2847
aa(lp2848
g1055
a(I179
I627
tp2849
aa(lp2850
g1058
a(I0
I232
tp2851
aatp2852
Rp2853
aa(lp2854
S'GEMM_Blocked__tileSize_256_i_tileSize_16_loop_jj_1_loop_ii_2_loop_kk_1_loop_i_2_loop_k_1'
p2855
ag0
((lp2856
(lp2857
g1023
aI2939744
aa(lp2858
g1025
a(I50
I64
tp2859
aa(lp2860
g1028
a(I28
I64
tp2861
aa(lp2862
g1031
a(I8
I34
tp2863
aa(lp2864
g1034
a(I29
I153
tp2865
aa(lp2866
g1037
a(I8
I34
tp2867
aa(lp2868
g1040
a(I717
I3360
tp2869
aa(lp2870
g1043
a(I0
I2240
tp2871
aa(lp2872
g1046
a(I0
I6720
tp2873
aa(lp2874
g1049
a(I2152
I140608
tp2875
aa(lp2876
g1052
a(I606
I7808
tp2877
aa(lp2878
g1055
a(I229
I833
tp2879
aa(lp2880
g1058
a(I0
I312
tp2881
aatp2882
Rp2883
aa(lp2884
S'GEMM_Blocked__tileSize_256_i_tileSize_16_loop_jj_1_loop_ii_2_loop_kk_2_loop_i_1_loop_k_1'
p2885
ag0
((lp2886
(lp2887
g1023
aI3336106
aa(lp2888
g1025
a(I60
I64
tp2889
aa(lp2890
g1028
a(I28
I64
tp2891
aa(lp2892
g1031
a(I10
I34
tp2893
aa(lp2894
g1034
a(I35
I153
tp2895
aa(lp2896
g1037
a(I10
I34
tp2897
aa(lp2898
g1040
a(I881
I3360
tp2899
aa(lp2900
g1043
a(I0
I2240
tp2901
aa(lp2902
g1046
a(I0
I6720
tp2903
aa(lp2904
g1049
a(I2412
I159040
tp2905
aa(lp2906
g1052
a(I750
I8960
tp2907
aa(lp2908
g1055
a(I269
I959
tp2909
aa(lp2910
g1058
a(I0
I352
tp2911
aatp2912
Rp2913
aa(lp2914
S'GEMM_Blocked__tileSize_256_i_tileSize_16_loop_jj_1_loop_ii_2_loop_kk_2_loop_i_1_loop_k_2'
p2915
ag0
((lp2916
(lp2917
g1023
aI2518525
aa(lp2918
g1025
a(I64
I64
tp2919
aa(lp2920
g1028
a(I36
I64
tp2921
aa(lp2922
g1031
a(I10
I34
tp2923
aa(lp2924
g1034
a(I35
I153
tp2925
aa(lp2926
g1037
a(I10
I34
tp2927
aa(lp2928
g1040
a(I920
I3360
tp2929
aa(lp2930
g1043
a(I0
I2240
tp2931
aa(lp2932
g1046
a(I0
I6720
tp2933
aa(lp2934
g1049
a(I2884
I179904
tp2935
aa(lp2936
g1052
a(I898
I9984
tp2937
aa(lp2938
g1055
a(I301
I1055
tp2939
aa(lp2940
g1058
a(I0
I400
tp2941
aatp2942
Rp2943
aa(lp2944
S'GEMM_Blocked__tileSize_256_i_tileSize_16_loop_jj_2_loop_ii_1_loop_kk_1_loop_i_1_loop_k_1'
p2945
ag0
((lp2946
(lp2947
g1023
aI5120110
aa(lp2948
g1025
a(I36
I64
tp2949
aa(lp2950
g1028
a(I16
I64
tp2951
aa(lp2952
g1031
a(I6
I34
tp2953
aa(lp2954
g1034
a(I21
I153
tp2955
aa(lp2956
g1037
a(I6
I34
tp2957
aa(lp2958
g1040
a(I448
I3360
tp2959
aa(lp2960
g1043
a(I0
I2240
tp2961
aa(lp2962
g1046
a(I0
I6720
tp2963
aa(lp2964
g1049
a(I1578
I93952
tp2965
aa(lp2966
g1052
a(I472
I5312
tp2967
aa(lp2968
g1055
a(I161
I569
tp2969
aa(lp2970
g1058
a(I0
I208
tp2971
aatp2972
Rp2973
aa(lp2974
S'GEMM_Blocked__tileSize_256_i_tileSize_16_loop_jj_2_loop_ii_1_loop_kk_1_loop_i_2_loop_k_1'
p2975
ag0
((lp2976
(lp2977
g1023
aI3243147
aa(lp2978
g1025
a(I50
I64
tp2979
aa(lp2980
g1028
a(I28
I64
tp2981
aa(lp2982
g1031
a(I8
I34
tp2983
aa(lp2984
g1034
a(I27
I153
tp2985
aa(lp2986
g1037
a(I8
I34
tp2987
aa(lp2988
g1040
a(I711
I3360
tp2989
aa(lp2990
g1043
a(I0
I2240
tp2991
aa(lp2992
g1046
a(I0
I6720
tp2993
aa(lp2994
g1049
a(I2152
I140608
tp2995
aa(lp2996
g1052
a(I606
I7808
tp2997
aa(lp2998
g1055
a(I227
I823
tp2999
aa(lp3000
g1058
a(I0
I312
tp3001
aatp3002
Rp3003
aa(lp3004
S'GEMM_Blocked__tileSize_256_i_tileSize_16_loop_jj_2_loop_ii_1_loop_kk_1_loop_i_2_loop_k_2'
p3005
ag0
((lp3006
(lp3007
g1023
aI2465940
aa(lp3008
g1025
a(I54
I64
tp3009
aa(lp3010
g1028
a(I36
I64
tp3011
aa(lp3012
g1031
a(I8
I34
tp3013
aa(lp3014
g1034
a(I27
I153
tp3015
aa(lp3016
g1037
a(I8
I34
tp3017
aa(lp3018
g1040
a(I818
I3360
tp3019
aa(lp3020
g1043
a(I0
I2240
tp3021
aa(lp3022
g1046
a(I0
I6720
tp3023
aa(lp3024
g1049
a(I2624
I161472
tp3025
aa(lp3026
g1052
a(I754
I8832
tp3027
aa(lp3028
g1055
a(I259
I919
tp3029
aa(lp3030
g1058
a(I0
I360
tp3031
aatp3032
Rp3033
aa(lp3034
S'GEMM_Blocked__tileSize_256_i_tileSize_16_loop_jj_2_loop_ii_1_loop_kk_2_loop_i_1_loop_k_1'
p3035
ag0
((lp3036
(lp3037
g1023
aI3314015
aa(lp3038
g1025
a(I60
I64
tp3039
aa(lp3040
g1028
a(I28
I64
tp3041
aa(lp3042
g1031
a(I10
I34
tp3043
aa(lp3044
g1034
a(I33
I153
tp3045
aa(lp3046
g1037
a(I10
I34
tp3047
aa(lp3048
g1040
a(I855
I3360
tp3049
aa(lp3050
g1043
a(I0
I2240
tp3051
aa(lp3052
g1046
a(I0
I6720
tp3053
aa(lp3054
g1049
a(I2412
I159040
tp3055
aa(lp3056
g1052
a(I750
I8960
tp3057
aa(lp3058
g1055
a(I267
I949
tp3059
aa(lp3060
g1058
a(I0
I352
tp3061
aatp3062
Rp3063
aa(lp3064
S'GEMM_Blocked__tileSize_256_i_tileSize_256_loop_jj_1_loop_ii_1_loop_kk_1_loop_i_1_loop_k_1'
p3065
ag0
((lp3066
(lp3067
g1023
aI7766298
aa(lp3068
g1025
a(I18
I64
tp3069
aa(lp3070
g1028
a(I8
I64
tp3071
aa(lp3072
g1031
a(I3
I34
tp3073
aa(lp3074
g1034
a(I11
I153
tp3075
aa(lp3076
g1037
a(I3
I34
tp3077
aa(lp3078
g1040
a(I188
I3360
tp3079
aa(lp3080
g1043
a(I0
I2240
tp3081
aa(lp3082
g1046
a(I0
I6720
tp3083
aa(lp3084
g1049
a(I789
I46976
tp3085
aa(lp3086
g1052
a(I236
I2656
tp3087
aa(lp3088
g1055
a(I81
I287
tp3089
aa(lp3090
g1058
a(I0
I104
tp3091
aatp3092
Rp3093
aa(lp3094
S'GEMM_Blocked__tileSize_256_i_tileSize_256_loop_jj_1_loop_ii_1_loop_kk_1_loop_i_1_loop_k_2'
p3095
ag0
((lp3096
(lp3097
g1023
aI4510843
aa(lp3098
g1025
a(I19
I64
tp3099
aa(lp3100
g1028
a(I10
I64
tp3101
aa(lp3102
g1031
a(I3
I34
tp3103
aa(lp3104
g1034
a(I11
I153
tp3105
aa(lp3106
g1037
a(I3
I34
tp3107
aa(lp3108
g1040
a(I161
I3360
tp3109
aa(lp3110
g1043
a(I0
I2240
tp3111
aa(lp3112
g1046
a(I0
I6720
tp3113
aa(lp3114
g1049
a(I907
I52192
tp3115
aa(lp3116
g1052
a(I273
I2912
tp3117
aa(lp3118
g1055
a(I89
I311
tp3119
aa(lp3120
g1058
a(I0
I116
tp3121
aatp3122
Rp3123
aa(lp3124
S'GEMM_Blocked__tileSize_256_i_tileSize_256_loop_jj_1_loop_ii_1_loop_kk_1_loop_i_2_loop_k_1'
p3125
ag0
((lp3126
(lp3127
g1023
aI3947718
aa(lp3128
g1025
a(I25
I64
tp3129
aa(lp3130
g1028
a(I14
I64
tp3131
aa(lp3132
g1031
a(I4
I34
tp3133
aa(lp3134
g1034
a(I14
I153
tp3135
aa(lp3136
g1037
a(I4
I34
tp3137
aa(lp3138
g1040
a(I308
I3360
tp3139
aa(lp3140
g1043
a(I0
I2240
tp3141
aa(lp3142
g1046
a(I0
I6720
tp3143
aa(lp3144
g1049
a(I1076
I70304
tp3145
aa(lp3146
g1052
a(I303
I3904
tp3147
aa(lp3148
g1055
a(I114
I414
tp3149
aa(lp3150
g1058
a(I0
I156
tp3151
aatp3152
Rp3153
aa(lp3154
S'GEMM_Blocked__tileSize_256_i_tileSize_256_loop_jj_1_loop_ii_1_loop_kk_1_loop_i_2_loop_k_2'
p3155
ag0
((lp3156
(lp3157
g1023
aI2319805
aa(lp3158
g1025
a(I27
I64
tp3159
aa(lp3160
g1028
a(I18
I64
tp3161
aa(lp3162
g1031
a(I4
I34
tp3163
aa(lp3164
g1034
a(I14
I153
tp3165
aa(lp3166
g1037
a(I4
I34
tp3167
aa(lp3168
g1040
a(I355
I3360
tp3169
aa(lp3170
g1043
a(I0
I2240
tp3171
aa(lp3172
g1046
a(I0
I6720
tp3173
aa(lp3174
g1049
a(I1312
I80736
tp3175
aa(lp3176
g1052
a(I377
I4416
tp3177
aa(lp3178
g1055
a(I130
I462
tp3179
aa(lp3180
g1058
a(I0
I180
tp3181
aatp3182
Rp3183
aa(lp3184
S'GEMM_Blocked__tileSize_256_i_tileSize_256_loop_jj_1_loop_ii_1_loop_kk_2_loop_i_1_loop_k_1'
p3185
ag0
((lp3186
(lp3187
g1023
aI3968536
aa(lp3188
g1025
a(I30
I64
tp3189
aa(lp3190
g1028
a(I14
I64
tp3191
aa(lp3192
g1031
a(I5
I34
tp3193
aa(lp3194
g1034
a(I17
I153
tp3195
aa(lp3196
g1037
a(I5
I34
tp3197
aa(lp3198
g1040
a(I341
I3360
tp3199
aa(lp3200
g1043
a(I0
I2240
tp3201
aa(lp3202
g1046
a(I0
I6720
tp3203
aa(lp3204
g1049
a(I1206
I79520
tp3205
aa(lp3206
g1052
a(I375
I4480
tp3207
aa(lp3208
g1055
a(I134
I477
tp3209
aa(lp3210
g1058
a(I0
I176
tp3211
aatp3212
Rp3213
aa(lp3214
S'GEMM_Blocked__tileSize_256_i_tileSize_256_loop_jj_1_loop_ii_1_loop_kk_2_loop_i_1_loop_k_2'
p3215
ag0
((lp3216
(lp3217
g1023
aI2333046
aa(lp3218
g1025
a(I32
I64
tp3219
aa(lp3220
g1028
a(I18
I64
tp3221
aa(lp3222
g1031
a(I5
I34
tp3223
aa(lp3224
g1034
a(I17
I153
tp3225
aa(lp3226
g1037
a(I5
I34
tp3227
aa(lp3228
g1040
a(I396
I3360
tp3229
aa(lp3230
g1043
a(I0
I2240
tp3231
aa(lp3232
g1046
a(I0
I6720
tp3233
aa(lp3234
g1049
a(I1442
I89952
tp3235
aa(lp3236
g1052
a(I449
I4992
tp3237
aa(lp3238
g1055
a(I150
I525
tp3239
aa(lp3240
g1058
a(I0
I200
tp3241
aatp3242
Rp3243
aa(lp3244
S'GEMM_Blocked__tileSize_256_i_tileSize_256_loop_jj_1_loop_ii_1_loop_kk_2_loop_i_2_loop_k_1'
p3245
ag0
((lp3246
(lp3247
g1023
aI2056265
aa(lp3248
g1025
a(I44
I64
tp3249
aa(lp3250
g1028
a(I26
I64
tp3251
aa(lp3252
g1031
a(I7
I34
tp3253
aa(lp3254
g1034
a(I23
I153
tp3255
aa(lp3256
g1037
a(I7
I34
tp3257
aa(lp3258
g1040
a(I521
I3360
tp3259
aa(lp3260
g1043
a(I0
I2240
tp3261
aa(lp3262
g1046
a(I0
I6720
tp3263
aa(lp3264
g1049
a(I1780
I126176
tp3265
aa(lp3266
g1052
a(I509
I6976
tp3267
aa(lp3268
g1055
a(I200
I731
tp3269
aa(lp3270
g1058
a(I0
I280
tp3271
aatp3272
Rp3273
aa(lp3274
S'GEMM_Blocked__tileSize_256_i_tileSize_256_loop_jj_1_loop_ii_1_loop_kk_1_loop_i_1_loop_k_3'
p3275
ag0
((lp3276
(lp3277
g1023
aI3096349
aa(lp3278
g1025
a(I20
I64
tp3279
aa(lp3280
g1028
a(I12
I64
tp3281
aa(lp3282
g1031
a(I3
I34
tp3283
aa(lp3284
g1034
a(I11
I153
tp3285
aa(lp3286
g1037
a(I3
I34
tp3287
aa(lp3288
g1040
a(I193
I3360
tp3289
aa(lp3290
g1043
a(I0
I2240
tp3291
aa(lp3292
g1046
a(I0
I6720
tp3293
aa(lp3294
g1049
a(I1041
I57408
tp3295
aa(lp3296
g1052
a(I310
I3168
tp3297
aa(lp3298
g1055
a(I97
I335
tp3299
aa(lp3300
g1058
a(I0
I128
tp3301
aatp3302
Rp3303
aa(lp3304
S'GEMM_Blocked__tileSize_256_i_tileSize_256_loop_jj_1_loop_ii_1_loop_kk_1_loop_i_1_loop_k_4'
p3305
ag0
((lp3306
(lp3307
g1023
aI2353981
aa(lp3308
g1025
a(I21
I64
tp3309
aa(lp3310
g1028
a(I14
I64
tp3311
aa(lp3312
g1031
a(I3
I34
tp3313
aa(lp3314
g1034
a(I11
I153
tp3315
aa(lp3316
g1037
a(I3
I34
tp3317
aa(lp3318
g1040
a(I196
I3360
tp3319
aa(lp3320
g1043
a(I0
I2240
tp3321
aa(lp3322
g1046
a(I0
I6720
tp3323
aa(lp3324
g1049
a(I1191
I62624
tp3325
aa(lp3326
g1052
a(I347
I3424
tp3327
aa(lp3328
g1055
a(I105
I359
tp3329
aa(lp3330
g1058
a(I0
I140
tp3331
aatp3332
Rp3333
aa(lp3334
S'GEMM_Blocked__tileSize_256_i_tileSize_256_loop_jj_1_loop_ii_1_loop_kk_1_loop_i_2_loop_k_3'
p3335
ag0
((lp3336
(lp3337
g1023
aI1612503
aa(lp3338
g1025
a(I29
I64
tp3339
aa(lp3340
g1028
a(I22
I64
tp3341
aa(lp3342
g1031
a(I4
I34
tp3343
aa(lp3344
g1034
a(I14
I153
tp3345
aa(lp3346
g1037
a(I4
I34
tp3347
aa(lp3348
g1040
a(I391
I3360
tp3349
aa(lp3350
g1043
a(I0
I2240
tp3351
aa(lp3352
g1046
a(I0
I6720
tp3353
aa(lp3354
g1049
a(I1580
I91168
tp3355
aa(lp3356
g1052
a(I451
I4928
tp3357
aa(lp3358
g1055
a(I146
I510
tp3359
aa(lp3360
g1058
a(I0
I204
tp3361
aatp3362
Rp3363
aa(lp3364
S'GEMM_Blocked__tileSize_256_i_tileSize_256_loop_jj_1_loop_ii_1_loop_kk_1_loop_i_3_loop_k_1'
p3365
ag0
((lp3366
(lp3367
g1023
aI2693928
aa(lp3368
g1025
a(I32
I64
tp3369
aa(lp3370
g1028
a(I20
I64
tp3371
aa(lp3372
g1031
a(I5
I34
tp3373
aa(lp3374
g1034
a(I17
I153
tp3375
aa(lp3376
g1037
a(I5
I34
tp3377
aa(lp3378
g1040
a(I328
I3360
tp3379
aa(lp3380
g1043
a(I0
I2240
tp3381
aa(lp3382
g1046
a(I0
I6720
tp3383
aa(lp3384
g1049
a(I1363
I93632
tp3385
aa(lp3386
g1052
a(I370
I5152
tp3387
aa(lp3388
g1055
a(I147
I541
tp3389
aa(lp3390
g1058
a(I0
I208
tp3391
aatp3392
Rp3393
aa(lp3394
S'GEMM_Blocked__tileSize_256_i_tileSize_256_loop_jj_1_loop_ii_1_loop_kk_1_loop_i_3_loop_k_3'
p3395
ag0
((lp3396
(lp3397
g1023
aI1132475
aa(lp3398
g1025
a(I38
I64
tp3399
aa(lp3400
g1028
a(I32
I64
tp3401
aa(lp3402
g1031
a(I5
I34
tp3403
aa(lp3404
g1034
a(I17
I153
tp3405
aa(lp3406
g1037
a(I5
I34
tp3407
aa(lp3408
g1040
a(I553
I3360
tp3409
aa(lp3410
g1043
a(I0
I2240
tp3411
aa(lp3412
g1046
a(I0
I6720
tp3413
aa(lp3414
g1049
a(I2119
I124928
tp3415
aa(lp3416
g1052
a(I592
I6688
tp3417
aa(lp3418
g1055
a(I195
I685
tp3419
aa(lp3420
g1058
a(I0
I280
tp3421
aatp3422
Rp3423
aa(lp3424
S'GEMM_Blocked__tileSize_256_i_tileSize_256_loop_jj_1_loop_ii_1_loop_kk_1_loop_i_3_loop_k_4'
p3425
ag0
((lp3426
(lp3427
g1023
aI884363
aa(lp3428
g1025
a(I41
I64
tp3429
aa(lp3430
g1028
a(I38
I64
tp3431
aa(lp3432
g1031
a(I5
I34
tp3433
aa(lp3434
g1034
a(I17
I153
tp3435
aa(lp3436
g1037
a(I5
I34
tp3437
aa(lp3438
g1040
a(I577
I3360
tp3439
aa(lp3440
g1043
a(I0
I2240
tp3441
aa(lp3442
g1046
a(I0
I6720
tp3443
aa(lp3444
g1049
a(I2569
I140576
tp3445
aa(lp3446
g1052
a(I703
I7456
tp3447
aa(lp3448
g1055
a(I219
I757
tp3449
aa(lp3450
g1058
a(I0
I316
tp3451
aatp3452
Rp3453
aa(lp3454
S'GEMM_Blocked__tileSize_256_i_tileSize_256_loop_jj_1_loop_ii_1_loop_kk_1_loop_i_4_loop_k_1'
p3455
ag0
((lp3456
(lp3457
g1023
aI2030451
aa(lp3458
g1025
a(I39
I64
tp3459
aa(lp3460
g1028
a(I26
I64
tp3461
aa(lp3462
g1031
a(I6
I34
tp3463
aa(lp3464
g1034
a(I20
I153
tp3465
aa(lp3466
g1037
a(I6
I34
tp3467
aa(lp3468
g1040
a(I519
I3360
tp3469
aa(lp3470
g1043
a(I0
I2240
tp3471
aa(lp3472
g1046
a(I0
I6720
tp3473
aa(lp3474
g1049
a(I1650
I116960
tp3475
aa(lp3476
g1052
a(I437
I6400
tp3477
aa(lp3478
g1055
a(I180
I668
tp3479
aa(lp3480
g1058
a(I0
I260
tp3481
aatp3482
Rp3483
aa(lp3484
S'GEMM_Blocked__tileSize_256_i_tileSize_256_loop_jj_1_loop_ii_1_loop_kk_1_loop_i_4_loop_k_2'
p3485
ag0
((lp3486
(lp3487
g1023
aI1226891
aa(lp3488
g1025
a(I43
I64
tp3489
aa(lp3490
g1028
a(I34
I64
tp3491
aa(lp3492
g1031
a(I6
I34
tp3493
aa(lp3494
g1034
a(I20
I153
tp3495
aa(lp3496
g1037
a(I6
I34
tp3497
aa(lp3498
g1040
a(I584
I3360
tp3499
aa(lp3500
g1043
a(I0
I2240
tp3501
aa(lp3502
g1046
a(I0
I6720
tp3503
aa(lp3504
g1049
a(I2122
I137824
tp3505
aa(lp3506
g1052
a(I585
I7424
tp3507
aa(lp3508
g1055
a(I212
I764
tp3509
aa(lp3510
g1058
a(I0
I308
tp3511
aatp3512
Rp3513
aa(lp3514
S'GEMM_Blocked__tileSize_256_i_tileSize_256_loop_jj_1_loop_ii_1_loop_kk_1_loop_i_4_loop_k_3'
p3515
ag0
((lp3516
(lp3517
g1023
aI875881
aa(lp3518
g1025
a(I47
I64
tp3519
aa(lp3520
g1028
a(I42
I64
tp3521
aa(lp3522
g1031
a(I6
I34
tp3523
aa(lp3524
g1034
a(I20
I153
tp3525
aa(lp3526
g1037
a(I6
I34
tp3527
aa(lp3528
g1040
a(I693
I3360
tp3529
aa(lp3530
g1043
a(I0
I2240
tp3531
aa(lp3532
g1046
a(I0
I6720
tp3533
aa(lp3534
g1049
a(I2658
I158688
tp3535
aa(lp3536
g1052
a(I733
I8448
tp3537
aa(lp3538
g1055
a(I244
I860
tp3539
aa(lp3540
g1058
a(I0
I356
tp3541
aatp3542
Rp3543
aatp3544
Rp3545
aatp3546
Rp3547
aatp3548
Rp3549
.