ccollections
OrderedDict
p0
((lp1
(lp2
S'DotProduct'
p3
ag0
((lp4
tp5
Rp6
aa(lp7
S'TPCHQ6'
p8
ag0
((lp9
(lp10
S'96000'
p11
ag0
((lp12
(lp13
S'TPCHQ6_96000_outerPar_1_tileSize_3000'
p14
ag0
((lp15
(lp16
S'cycle'
p17
aI33435
aa(lp18
S'lavgbw'
p19
aF45.93988335576491
aa(lp20
S'savgbw'
p21
aF0.0
aa(lp22
S'pcuUtil'
p23
a(I5
I64
tp24
aa(lp25
S'mcuUtil'
p26
a(I4
I64
tp27
aa(lp28
S'scuUtil'
p29
a(I4
I34
tp30
aa(lp31
S'ocuUtil'
p32
a(I7
I153
tp33
aa(lp34
S'mcUtil'
p35
a(I4
I34
tp36
aa(lp37
S'slinkUtil'
p38
a(I27
I3360
tp39
aa(lp40
S'vlinkUtil'
p41
a(I1
I2240
tp42
aa(lp43
S'clinkUtil'
p44
a(I0
I6720
tp45
aa(lp46
S'totalRegUtil'
p47
a(I632
I19712
tp48
aa(lp49
S'totalFUUtil'
p50
a(I240
I1120
tp51
aa(lp52
S'totalSBufUtil'
p53
a(I21
I139
tp54
aa(lp55
S'totalVBufUtil'
p56
a(I3
I36
tp57
aatp58
Rp59
aa(lp60
S'TPCHQ6_96000_outerPar_1_tileSize_6000'
p61
ag0
((lp62
(lp63
g17
aI31633
aa(lp64
g19
aF48.55688679543515
aa(lp65
g21
aF0.0
aa(lp66
g23
a(I5
I64
tp67
aa(lp68
g26
a(I4
I64
tp69
aa(lp70
g29
a(I4
I34
tp71
aa(lp72
g32
a(I7
I153
tp73
aa(lp74
g35
a(I4
I34
tp75
aa(lp76
g38
a(I22
I3360
tp77
aa(lp78
g41
a(I1
I2240
tp79
aa(lp80
g44
a(I0
I6720
tp81
aa(lp82
g47
a(I632
I19712
tp83
aa(lp84
g50
a(I240
I1120
tp85
aa(lp86
g53
a(I21
I139
tp87
aa(lp88
g56
a(I3
I36
tp89
aatp90
Rp91
aa(lp92
S'TPCHQ6_96000_outerPar_3_tileSize_3000'
p93
ag0
((lp94
(lp95
g17
aI33381
aa(lp96
g19
aF46.01419969443696
aa(lp97
g21
aF0.0
aa(lp98
g23
a(I11
I64
tp99
aa(lp100
g26
a(I12
I64
tp101
aa(lp102
g29
a(I12
I34
tp103
aa(lp104
g32
a(I17
I153
tp105
aa(lp106
g35
a(I12
I34
tp107
aa(lp108
g38
a(I112
I3360
tp109
aa(lp110
g41
a(I4
I2240
tp111
aa(lp112
g44
a(I0
I6720
tp113
aa(lp114
g47
a(I1873
I52992
tp115
aa(lp116
g50
a(I713
I2976
tp117
aa(lp118
g53
a(I57
I365
tp119
aa(lp120
g56
a(I9
I92
tp121
aatp122
Rp123
aa(lp124
S'TPCHQ6_96000_outerPar_3_tileSize_6000'
p125
ag0
((lp126
(lp127
g17
aI32712
aa(lp128
g19
aF46.95524578136463
aa(lp129
g21
aF0.0
aa(lp130
g23
a(I11
I64
tp131
aa(lp132
g26
a(I12
I64
tp133
aa(lp134
g29
a(I12
I34
tp135
aa(lp136
g32
a(I17
I153
tp137
aa(lp138
g35
a(I12
I34
tp139
aa(lp140
g38
a(I95
I3360
tp141
aa(lp142
g41
a(I4
I2240
tp143
aa(lp144
g44
a(I0
I6720
tp145
aa(lp146
g47
a(I1873
I52992
tp147
aa(lp148
g50
a(I713
I2976
tp149
aa(lp150
g53
a(I57
I365
tp151
aa(lp152
g56
a(I9
I92
tp153
aatp154
Rp155
aa(lp156
S'TPCHQ6_96000_outerPar_5_tileSize_3000'
p157
ag0
((lp158
(lp159
g17
aI32514
aa(lp160
g19
aF47.24118841114596
aa(lp161
g21
aF0.0
aa(lp162
g23
a(I17
I64
tp163
aa(lp164
g26
a(I20
I64
tp165
aa(lp166
g29
a(I20
I34
tp167
aa(lp168
g32
a(I27
I153
tp169
aa(lp170
g35
a(I20
I34
tp171
aa(lp172
g38
a(I273
I3360
tp173
aa(lp174
g41
a(I7
I2240
tp175
aa(lp176
g44
a(I0
I6720
tp177
aa(lp178
g47
a(I3118
I86272
tp179
aa(lp180
g50
a(I1187
I4832
tp181
aa(lp182
g53
a(I93
I591
tp183
aa(lp184
g56
a(I15
I148
tp185
aatp186
Rp187
aa(lp188
S'TPCHQ6_96000_outerPar_6_tileSize_400'
p189
ag0
((lp190
(lp191
g17
aI36846
aa(lp192
g19
aF41.687021657710474
aa(lp193
g21
aF0.0
aa(lp194
g23
a(I20
I64
tp195
aa(lp196
g26
a(I24
I64
tp197
aa(lp198
g29
a(I24
I34
tp199
aa(lp200
g32
a(I32
I153
tp201
aa(lp202
g35
a(I24
I34
tp203
aa(lp204
g38
a(I339
I3360
tp205
aa(lp206
g41
a(I11
I2240
tp207
aa(lp208
g44
a(I0
I6720
tp209
aa(lp210
g47
a(I3742
I102912
tp211
aa(lp212
g50
a(I1424
I5760
tp213
aa(lp214
g53
a(I111
I704
tp215
aa(lp216
g56
a(I18
I176
tp217
aatp218
Rp219
aa(lp220
S'TPCHQ6_96000_outerPar_6_tileSize_1200'
p221
ag0
((lp222
(lp223
g17
aI33181
aa(lp224
g19
aF46.291552394442604
aa(lp225
g21
aF0.0
aa(lp226
g23
a(I20
I64
tp227
aa(lp228
g26
a(I24
I64
tp229
aa(lp230
g29
a(I24
I34
tp231
aa(lp232
g32
a(I32
I153
tp233
aa(lp234
g35
a(I24
I34
tp235
aa(lp236
g38
a(I337
I3360
tp237
aa(lp238
g41
a(I10
I2240
tp239
aa(lp240
g44
a(I0
I6720
tp241
aa(lp242
g47
a(I3742
I102912
tp243
aa(lp244
g50
a(I1424
I5760
tp245
aa(lp246
g53
a(I111
I704
tp247
aa(lp248
g56
a(I18
I176
tp249
aatp250
Rp251
aa(lp252
S'TPCHQ6_96000_outerPar_6_tileSize_2000'
p253
ag0
((lp254
(lp255
g17
aI33123
aa(lp256
g19
aF46.37261117652386
aa(lp257
g21
aF0.0
aa(lp258
g23
a(I20
I64
tp259
aa(lp260
g26
a(I24
I64
tp261
aa(lp262
g29
a(I24
I34
tp263
aa(lp264
g32
a(I32
I153
tp265
aa(lp266
g35
a(I24
I34
tp267
aa(lp268
g38
a(I337
I3360
tp269
aa(lp270
g41
a(I11
I2240
tp271
aa(lp272
g44
a(I0
I6720
tp273
aa(lp274
g47
a(I3742
I102912
tp275
aa(lp276
g50
a(I1424
I5760
tp277
aa(lp278
g53
a(I111
I704
tp279
aa(lp280
g56
a(I18
I176
tp281
aatp282
Rp283
aa(lp284
S'TPCHQ6_96000_outerPar_6_tileSize_2800'
p285
ag0
((lp286
(lp287
g17
aI32621
aa(lp288
g19
aF47.08623279482543
aa(lp289
g21
aF0.0
aa(lp290
g23
a(I20
I64
tp291
aa(lp292
g26
a(I24
I64
tp293
aa(lp294
g29
a(I24
I34
tp295
aa(lp296
g32
a(I32
I153
tp297
aa(lp298
g35
a(I24
I34
tp299
aa(lp300
g38
a(I344
I3360
tp301
aa(lp302
g41
a(I10
I2240
tp303
aa(lp304
g44
a(I0
I6720
tp305
aa(lp306
g47
a(I3742
I102912
tp307
aa(lp308
g50
a(I1424
I5760
tp309
aa(lp310
g53
a(I111
I704
tp311
aa(lp312
g56
a(I18
I176
tp313
aatp314
Rp315
aa(lp316
S'TPCHQ6_96000_outerPar_6_tileSize_3600'
p317
ag0
((lp318
(lp319
g17
aI32361
aa(lp320
g19
aF47.464540650783356
aa(lp321
g21
aF0.0
aa(lp322
g23
a(I20
I64
tp323
aa(lp324
g26
a(I24
I64
tp325
aa(lp326
g29
a(I24
I34
tp327
aa(lp328
g32
a(I32
I153
tp329
aa(lp330
g35
a(I24
I34
tp331
aa(lp332
g38
a(I343
I3360
tp333
aa(lp334
g41
a(I11
I2240
tp335
aa(lp336
g44
a(I0
I6720
tp337
aa(lp338
g47
a(I3742
I102912
tp339
aa(lp340
g50
a(I1424
I5760
tp341
aa(lp342
g53
a(I111
I704
tp343
aa(lp344
g56
a(I18
I176
tp345
aatp346
Rp347
aa(lp348
S'TPCHQ6_96000_outerPar_8_tileSize_400'
p349
ag0
((lp350
(lp351
g17
aI35423
aa(lp352
g19
aF43.36165768003839
aa(lp353
g21
aF0.0
aa(lp354
g23
a(I27
I64
tp355
aa(lp356
g26
a(I32
I64
tp357
aa(lp358
g29
a(I32
I34
tp359
aa(lp360
g32
a(I42
I153
tp361
aa(lp362
g35
a(I32
I34
tp363
aa(lp364
g38
a(I479
I3360
tp365
aa(lp366
g41
a(I17
I2240
tp367
aa(lp368
g44
a(I0
I6720
tp369
aa(lp370
g47
a(I4993
I137728
tp371
aa(lp372
g50
a(I1898
I7712
tp373
aa(lp374
g53
a(I149
I938
tp375
aa(lp376
g56
a(I24
I236
tp377
aatp378
Rp379
aa(lp380
S'TPCHQ6_96000_outerPar_8_tileSize_1200'
p381
ag0
((lp382
(lp383
g17
aI33196
aa(lp384
g19
aF46.27063501626702
aa(lp385
g21
aF0.0
aa(lp386
g23
a(I27
I64
tp387
aa(lp388
g26
a(I32
I64
tp389
aa(lp390
g29
a(I32
I34
tp391
aa(lp392
g32
a(I42
I153
tp393
aa(lp394
g35
a(I32
I34
tp395
aa(lp396
g38
a(I533
I3360
tp397
aa(lp398
g41
a(I34
I2240
tp399
aa(lp400
g44
a(I0
I6720
tp401
aa(lp402
g47
a(I4993
I137728
tp403
aa(lp404
g50
a(I1898
I7712
tp405
aa(lp406
g53
a(I149
I938
tp407
aa(lp408
g56
a(I24
I236
tp409
aatp410
Rp411
aa(lp412
S'TPCHQ6_96000_outerPar_8_tileSize_2000'
p413
ag0
((lp414
(lp415
g17
aI31906
aa(lp416
g19
aF48.14141540776029
aa(lp417
g21
aF0.0
aa(lp418
g23
a(I27
I64
tp419
aa(lp420
g26
a(I32
I64
tp421
aa(lp422
g29
a(I32
I34
tp423
aa(lp424
g32
a(I42
I153
tp425
aa(lp426
g35
a(I32
I34
tp427
aa(lp428
g38
a(I502
I3360
tp429
aa(lp430
g41
a(I26
I2240
tp431
aa(lp432
g44
a(I0
I6720
tp433
aa(lp434
g47
a(I4993
I137728
tp435
aa(lp436
g50
a(I1898
I7712
tp437
aa(lp438
g53
a(I149
I938
tp439
aa(lp440
g56
a(I24
I236
tp441
aatp442
Rp443
aa(lp444
S'TPCHQ6_96000_outerPar_8_tileSize_2800'
p445
ag0
((lp446
(lp447
g17
aI32844
aa(lp448
g19
aF46.766532700036535
aa(lp449
g21
aF0.0
aa(lp450
g23
a(I27
I64
tp451
aa(lp452
g26
a(I32
I64
tp453
aa(lp454
g29
a(I32
I34
tp455
aa(lp456
g32
a(I42
I153
tp457
aa(lp458
g35
a(I32
I34
tp459
aa(lp460
g38
a(I481
I3360
tp461
aa(lp462
g41
a(I17
I2240
tp463
aa(lp464
g44
a(I0
I6720
tp465
aa(lp466
g47
a(I4993
I137728
tp467
aa(lp468
g50
a(I1898
I7712
tp469
aa(lp470
g53
a(I149
I938
tp471
aa(lp472
g56
a(I24
I236
tp473
aatp474
Rp475
aa(lp476
S'TPCHQ6_96000_outerPar_2_tileSize_16'
p477
ag0
((lp478
(lp479
g17
aI405792
aa(lp480
g19
aF3.785190442394133
aa(lp481
g21
aF0.0
aa(lp482
g23
a(I8
I64
tp483
aa(lp484
g26
a(I8
I64
tp485
aa(lp486
g29
a(I8
I34
tp487
aa(lp488
g32
a(I12
I153
tp489
aa(lp490
g35
a(I8
I34
tp491
aa(lp492
g38
a(I105
I3360
tp493
aa(lp494
g41
a(I3
I2240
tp495
aa(lp496
g44
a(I0
I6720
tp497
aa(lp498
g47
a(I1252
I36352
tp499
aa(lp500
g50
a(I476
I2048
tp501
aa(lp502
g53
a(I39
I252
tp503
aa(lp504
g56
a(I6
I64
tp505
aatp506
Rp507
aa(lp508
S'TPCHQ6_96000_outerPar_2_tileSize_48'
p509
ag0
((lp510
(lp511
g17
aI137843
aa(lp512
g19
aF11.143112091292268
aa(lp513
g21
aF0.0
aa(lp514
g23
a(I8
I64
tp515
aa(lp516
g26
a(I8
I64
tp517
aa(lp518
g29
a(I8
I34
tp519
aa(lp520
g32
a(I12
I153
tp521
aa(lp522
g35
a(I8
I34
tp523
aa(lp524
g38
a(I75
I3360
tp525
aa(lp526
g41
a(I2
I2240
tp527
aa(lp528
g44
a(I0
I6720
tp529
aa(lp530
g47
a(I1252
I36352
tp531
aa(lp532
g50
a(I476
I2048
tp533
aa(lp534
g53
a(I39
I252
tp535
aa(lp536
g56
a(I6
I64
tp537
aatp538
Rp539
aa(lp540
S'TPCHQ6_96000_outerPar_2_tileSize_80'
p541
ag0
((lp542
(lp543
g17
aI99063
aa(lp544
g19
aF15.505284515914116
aa(lp545
g21
aF0.0
aa(lp546
g23
a(I8
I64
tp547
aa(lp548
g26
a(I8
I64
tp549
aa(lp550
g29
a(I8
I34
tp551
aa(lp552
g32
a(I12
I153
tp553
aa(lp554
g35
a(I8
I34
tp555
aa(lp556
g38
a(I74
I3360
tp557
aa(lp558
g41
a(I2
I2240
tp559
aa(lp560
g44
a(I0
I6720
tp561
aa(lp562
g47
a(I1252
I36352
tp563
aa(lp564
g50
a(I476
I2048
tp565
aa(lp566
g53
a(I39
I252
tp567
aa(lp568
g56
a(I6
I64
tp569
aatp570
Rp571
aa(lp572
S'TPCHQ6_96000_outerPar_2_tileSize_112'
p573
ag0
((lp574
(lp575
g17
aI78569
aa(lp576
g19
aF19.549695172396238
aa(lp577
g21
aF0.0
aa(lp578
g23
a(I8
I64
tp579
aa(lp580
g26
a(I8
I64
tp581
aa(lp582
g29
a(I8
I34
tp583
aa(lp584
g32
a(I12
I153
tp585
aa(lp586
g35
a(I8
I34
tp587
aa(lp588
g38
a(I70
I3360
tp589
aa(lp590
g41
a(I2
I2240
tp591
aa(lp592
g44
a(I0
I6720
tp593
aa(lp594
g47
a(I1252
I36352
tp595
aa(lp596
g50
a(I476
I2048
tp597
aa(lp598
g53
a(I39
I252
tp599
aa(lp600
g56
a(I6
I64
tp601
aatp602
Rp603
aa(lp604
S'TPCHQ6_96000_outerPar_2_tileSize_144'
p605
ag0
((lp606
(lp607
g17
aI64694
aa(lp608
g19
aF23.7425418122237
aa(lp609
g21
aF0.0
aa(lp610
g23
a(I8
I64
tp611
aa(lp612
g26
a(I8
I64
tp613
aa(lp614
g29
a(I8
I34
tp615
aa(lp616
g32
a(I12
I153
tp617
aa(lp618
g35
a(I8
I34
tp619
aa(lp620
g38
a(I80
I3360
tp621
aa(lp622
g41
a(I2
I2240
tp623
aa(lp624
g44
a(I0
I6720
tp625
aa(lp626
g47
a(I1252
I36352
tp627
aa(lp628
g50
a(I476
I2048
tp629
aa(lp630
g53
a(I39
I252
tp631
aa(lp632
g56
a(I6
I64
tp633
aatp634
Rp635
aa(lp636
S'TPCHQ6_96000_outerPar_2_tileSize_176'
p637
ag0
((lp638
(lp639
g17
aI59850
aa(lp640
g19
aF25.664160401002505
aa(lp641
g21
aF0.0
aa(lp642
g23
a(I8
I64
tp643
aa(lp644
g26
a(I8
I64
tp645
aa(lp646
g29
a(I8
I34
tp647
aa(lp648
g32
a(I12
I153
tp649
aa(lp650
g35
a(I8
I34
tp651
aa(lp652
g38
a(I66
I3360
tp653
aa(lp654
g41
a(I2
I2240
tp655
aa(lp656
g44
a(I0
I6720
tp657
aa(lp658
g47
a(I1252
I36352
tp659
aa(lp660
g50
a(I476
I2048
tp661
aa(lp662
g53
a(I39
I252
tp663
aa(lp664
g56
a(I6
I64
tp665
aatp666
Rp667
aa(lp668
S'TPCHQ6_96000_outerPar_2_tileSize_208'
p669
ag0
((lp670
(lp671
g17
aI55820
aa(lp672
g19
aF27.517018989609458
aa(lp673
g21
aF0.0
aa(lp674
g23
a(I8
I64
tp675
aa(lp676
g26
a(I8
I64
tp677
aa(lp678
g29
a(I8
I34
tp679
aa(lp680
g32
a(I12
I153
tp681
aa(lp682
g35
a(I8
I34
tp683
aa(lp684
g38
a(I69
I3360
tp685
aa(lp686
g41
a(I2
I2240
tp687
aa(lp688
g44
a(I0
I6720
tp689
aa(lp690
g47
a(I1252
I36352
tp691
aa(lp692
g50
a(I476
I2048
tp693
aa(lp694
g53
a(I39
I252
tp695
aa(lp696
g56
a(I6
I64
tp697
aatp698
Rp699
aa(lp700
S'TPCHQ6_96000_outerPar_2_tileSize_240'
p701
ag0
((lp702
(lp703
g17
aI51062
aa(lp704
g19
aF30.081077905291608
aa(lp705
g21
aF0.0
aa(lp706
g23
a(I8
I64
tp707
aa(lp708
g26
a(I8
I64
tp709
aa(lp710
g29
a(I8
I34
tp711
aa(lp712
g32
a(I12
I153
tp713
aa(lp714
g35
a(I8
I34
tp715
aa(lp716
g38
a(I80
I3360
tp717
aa(lp718
g41
a(I2
I2240
tp719
aa(lp720
g44
a(I0
I6720
tp721
aa(lp722
g47
a(I1252
I36352
tp723
aa(lp724
g50
a(I476
I2048
tp725
aa(lp726
g53
a(I39
I252
tp727
aa(lp728
g56
a(I6
I64
tp729
aatp730
Rp731
aa(lp732
S'TPCHQ6_96000_outerPar_4_tileSize_16'
p733
ag0
((lp734
(lp735
g17
aI201953
aa(lp736
g19
aF7.605730046099835
aa(lp737
g21
aF0.0
aa(lp738
g23
a(I14
I64
tp739
aa(lp740
g26
a(I16
I64
tp741
aa(lp742
g29
a(I16
I34
tp743
aa(lp744
g32
a(I22
I153
tp745
aa(lp746
g35
a(I16
I34
tp747
aa(lp748
g38
a(I217
I3360
tp749
aa(lp750
g41
a(I5
I2240
tp751
aa(lp752
g44
a(I0
I6720
tp753
aa(lp754
g47
a(I2495
I69632
tp755
aa(lp756
g50
a(I950
I3904
tp757
aa(lp758
g53
a(I75
I478
tp759
aa(lp760
g56
a(I12
I120
tp761
aatp762
Rp763
aa(lp764
S'TPCHQ6_96000_outerPar_4_tileSize_48'
p765
ag0
((lp766
(lp767
g17
aI84737
aa(lp768
g19
aF18.126674298122424
aa(lp769
g21
aF0.0
aa(lp770
g23
a(I14
I64
tp771
aa(lp772
g26
a(I16
I64
tp773
aa(lp774
g29
a(I16
I34
tp775
aa(lp776
g32
a(I22
I153
tp777
aa(lp778
g35
a(I16
I34
tp779
aa(lp780
g38
a(I207
I3360
tp781
aa(lp782
g41
a(I5
I2240
tp783
aa(lp784
g44
a(I0
I6720
tp785
aa(lp786
g47
a(I2495
I69632
tp787
aa(lp788
g50
a(I950
I3904
tp789
aa(lp790
g53
a(I75
I478
tp791
aa(lp792
g56
a(I12
I120
tp793
aatp794
Rp795
aa(lp796
S'TPCHQ6_96000_outerPar_4_tileSize_80'
p797
ag0
((lp798
(lp799
g17
aI60710
aa(lp800
g19
aF25.300609454785047
aa(lp801
g21
aF0.0
aa(lp802
g23
a(I14
I64
tp803
aa(lp804
g26
a(I16
I64
tp805
aa(lp806
g29
a(I16
I34
tp807
aa(lp808
g32
a(I22
I153
tp809
aa(lp810
g35
a(I16
I34
tp811
aa(lp812
g38
a(I186
I3360
tp813
aa(lp814
g41
a(I5
I2240
tp815
aa(lp816
g44
a(I0
I6720
tp817
aa(lp818
g47
a(I2495
I69632
tp819
aa(lp820
g50
a(I950
I3904
tp821
aa(lp822
g53
a(I75
I478
tp823
aa(lp824
g56
a(I12
I120
tp825
aatp826
Rp827
aa(lp828
S'TPCHQ6_96000_outerPar_4_tileSize_112'
p829
ag0
((lp830
(lp831
g17
aI53686
aa(lp832
g19
aF28.610811012181944
aa(lp833
g21
aF0.0
aa(lp834
g23
a(I14
I64
tp835
aa(lp836
g26
a(I16
I64
tp837
aa(lp838
g29
a(I16
I34
tp839
aa(lp840
g32
a(I22
I153
tp841
aa(lp842
g35
a(I16
I34
tp843
aa(lp844
g38
a(I202
I3360
tp845
aa(lp846
g41
a(I5
I2240
tp847
aa(lp848
g44
a(I0
I6720
tp849
aa(lp850
g47
a(I2495
I69632
tp851
aa(lp852
g50
a(I950
I3904
tp853
aa(lp854
g53
a(I75
I478
tp855
aa(lp856
g56
a(I12
I120
tp857
aatp858
Rp859
aa(lp860
S'TPCHQ6_96000_outerPar_6_tileSize_16'
p861
ag0
((lp862
(lp863
g17
aI164316
aa(lp864
g19
aF9.347841963046813
aa(lp865
g21
aF0.0
aa(lp866
g23
a(I20
I64
tp867
aa(lp868
g26
a(I24
I64
tp869
aa(lp870
g29
a(I24
I34
tp871
aa(lp872
g32
a(I32
I153
tp873
aa(lp874
g35
a(I24
I34
tp875
aa(lp876
g38
a(I375
I3360
tp877
aa(lp878
g41
a(I11
I2240
tp879
aa(lp880
g44
a(I0
I6720
tp881
aa(lp882
g47
a(I3742
I102912
tp883
aa(lp884
g50
a(I1424
I5760
tp885
aa(lp886
g53
a(I111
I704
tp887
aa(lp888
g56
a(I18
I176
tp889
aatp890
Rp891
aa(lp892
S'TPCHQ6_96000_outerPar_6_tileSize_48'
p893
ag0
((lp894
(lp895
g17
aI68913
aa(lp896
g19
aF22.28897305297985
aa(lp897
g21
aF0.0
aa(lp898
g23
a(I20
I64
tp899
aa(lp900
g26
a(I24
I64
tp901
aa(lp902
g29
a(I24
I34
tp903
aa(lp904
g32
a(I32
I153
tp905
aa(lp906
g35
a(I24
I34
tp907
aa(lp908
g38
a(I348
I3360
tp909
aa(lp910
g41
a(I10
I2240
tp911
aa(lp912
g44
a(I0
I6720
tp913
aa(lp914
g47
a(I3742
I102912
tp915
aa(lp916
g50
a(I1424
I5760
tp917
aa(lp918
g53
a(I111
I704
tp919
aa(lp920
g56
a(I18
I176
tp921
aatp922
Rp923
aa(lp924
S'TPCHQ6_96000_outerPar_6_tileSize_80'
p925
ag0
((lp926
(lp927
g17
aI49357
aa(lp928
g19
aF31.120205847194928
aa(lp929
g21
aF0.0
aa(lp930
g23
a(I20
I64
tp931
aa(lp932
g26
a(I24
I64
tp933
aa(lp934
g29
a(I24
I34
tp935
aa(lp936
g32
a(I32
I153
tp937
aa(lp938
g35
a(I24
I34
tp939
aa(lp940
g38
a(I347
I3360
tp941
aa(lp942
g41
a(I11
I2240
tp943
aa(lp944
g44
a(I0
I6720
tp945
aa(lp946
g47
a(I3742
I102912
tp947
aa(lp948
g50
a(I1424
I5760
tp949
aa(lp950
g53
a(I111
I704
tp951
aa(lp952
g56
a(I18
I176
tp953
aatp954
Rp955
aa(lp956
S'TPCHQ6_96000_outerPar_8_tileSize_16'
p957
ag0
((lp958
(lp959
g17
aI133521
aa(lp960
g19
aF11.503808389691509
aa(lp961
g21
aF0.0
aa(lp962
g23
a(I27
I64
tp963
aa(lp964
g26
a(I32
I64
tp965
aa(lp966
g29
a(I32
I34
tp967
aa(lp968
g32
a(I42
I153
tp969
aa(lp970
g35
a(I32
I34
tp971
aa(lp972
g38
a(I495
I3360
tp973
aa(lp974
g41
a(I17
I2240
tp975
aa(lp976
g44
a(I0
I6720
tp977
aa(lp978
g47
a(I4993
I137728
tp979
aa(lp980
g50
a(I1898
I7712
tp981
aa(lp982
g53
a(I149
I938
tp983
aa(lp984
g56
a(I24
I236
tp985
aatp986
Rp987
aa(lp988
S'TPCHQ6_96000_outerPar_8_tileSize_48'
p989
ag0
((lp990
(lp991
g17
aI54641
aa(lp992
g19
aF28.1107593199246
aa(lp993
g21
aF0.0
aa(lp994
g23
a(I27
I64
tp995
aa(lp996
g26
a(I32
I64
tp997
aa(lp998
g29
a(I32
I34
tp999
aa(lp1000
g32
a(I42
I153
tp1001
aa(lp1002
g35
a(I32
I34
tp1003
aa(lp1004
g38
a(I507
I3360
tp1005
aa(lp1006
g41
a(I19
I2240
tp1007
aa(lp1008
g44
a(I0
I6720
tp1009
aa(lp1010
g47
a(I4993
I137728
tp1011
aa(lp1012
g50
a(I1898
I7712
tp1013
aa(lp1014
g53
a(I149
I938
tp1015
aa(lp1016
g56
a(I24
I236
tp1017
aatp1018
Rp1019
aatp1020
Rp1021
aatp1022
Rp1023
aa(lp1024
S'GDA'
p1025
ag0
((lp1026
(lp1027
S'19200'
p1028
ag0
((lp1029
tp1030
Rp1031
aa(lp1032
S'192000'
p1033
ag0
((lp1034
(lp1035
S'GDA_192000_tileSize_16_outerPar_1_midPar_4'
p1036
ag0
((lp1037
(lp1038
S'cycle'
p1039
aI156652715
aa(lp1040
S'lavgbw'
p1041
aF0.3971117896041572
aa(lp1042
S'savgbw'
p1043
aF0.00016341880828557614
aa(lp1044
S'pcuUtil'
p1045
a(I11
I64
tp1046
aa(lp1047
S'mcuUtil'
p1048
a(I29
I64
tp1049
aa(lp1050
S'scuUtil'
p1051
a(I5
I34
tp1052
aa(lp1053
S'ocuUtil'
p1054
a(I8
I153
tp1055
aa(lp1056
S'mcUtil'
p1057
a(I5
I34
tp1058
aa(lp1059
S'slinkUtil'
p1060
a(I314
I3360
tp1061
aa(lp1062
S'vlinkUtil'
p1063
a(I0
I2240
tp1064
aa(lp1065
S'clinkUtil'
p1066
a(I0
I6720
tp1067
aa(lp1068
S'totalRegUtil'
p1069
a(I1151
I67264
tp1070
aa(lp1071
S'totalFUUtil'
p1072
a(I331
I3392
tp1073
aa(lp1074
S'totalSBufUtil'
p1075
a(I85
I400
tp1076
aa(lp1077
S'totalVBufUtil'
p1078
a(I0
I160
tp1079
aatp1080
Rp1081
aatp1082
Rp1083
aatp1084
Rp1085
aa(lp1086
S'BlackScholes'
p1087
ag0
((lp1088
(lp1089
S'1966080'
p1090
ag0
((lp1091
(lp1092
S'BlackScholes_1966080_outerPar_1_tileSize_1024'
p1093
ag0
((lp1094
(lp1095
S'cycle'
p1096
aI1248537
aa(lp1097
S'lavgbw'
p1098
aF37.79296889078978
aa(lp1099
S'savgbw'
p1100
aF6.298828148464963
aa(lp1101
S'pcuUtil'
p1102
a(I37
I64
tp1103
aa(lp1104
S'mcuUtil'
p1105
a(I7
I64
tp1106
aa(lp1107
S'scuUtil'
p1108
a(I7
I34
tp1109
aa(lp1110
S'ocuUtil'
p1111
a(I9
I153
tp1112
aa(lp1113
S'mcUtil'
p1114
a(I7
I34
tp1115
aa(lp1116
S'slinkUtil'
p1117
a(I125
I3360
tp1118
aa(lp1119
S'vlinkUtil'
p1120
a(I154
I2240
tp1121
aa(lp1122
S'clinkUtil'
p1123
a(I0
I6720
tp1124
aa(lp1125
S'totalRegUtil'
p1126
a(I9069
I77888
tp1127
aa(lp1128
S'totalFUUtil'
p1129
a(I2821
I4672
tp1130
aa(lp1131
S'totalSBufUtil'
p1132
a(I37
I453
tp1133
aa(lp1134
S'totalVBufUtil'
p1135
a(I96
I176
tp1136
aatp1137
Rp1138
aa(lp1139
S'BlackScholes_1966080_outerPar_1_tileSize_2048'
p1140
ag0
((lp1141
(lp1142
g1096
aI1167681
aa(lp1143
g1098
aF40.40994072867504
aa(lp1144
g1100
aF6.73499012144584
aa(lp1145
g1102
a(I37
I64
tp1146
aa(lp1147
g1105
a(I7
I64
tp1148
aa(lp1149
g1108
a(I7
I34
tp1150
aa(lp1151
g1111
a(I9
I153
tp1152
aa(lp1153
g1114
a(I7
I34
tp1154
aa(lp1155
g1117
a(I111
I3360
tp1156
aa(lp1157
g1120
a(I186
I2240
tp1158
aa(lp1159
g1123
a(I0
I6720
tp1160
aa(lp1161
g1126
a(I9069
I77888
tp1162
aa(lp1163
g1129
a(I2821
I4672
tp1164
aa(lp1165
g1132
a(I37
I453
tp1166
aa(lp1167
g1135
a(I96
I176
tp1168
aatp1169
Rp1170
aa(lp1171
S'BlackScholes_1966080_outerPar_1_tileSize_3072'
p1172
ag0
((lp1173
(lp1174
g1096
aI1238092
aa(lp1175
g1098
aF38.11180429241122
aa(lp1176
g1100
aF6.351967382068537
aa(lp1177
g1102
a(I37
I64
tp1178
aa(lp1179
g1105
a(I7
I64
tp1180
aa(lp1181
g1108
a(I7
I34
tp1182
aa(lp1183
g1111
a(I9
I153
tp1184
aa(lp1185
g1114
a(I7
I34
tp1186
aa(lp1187
g1117
a(I152
I3360
tp1188
aa(lp1189
g1120
a(I162
I2240
tp1190
aa(lp1191
g1123
a(I0
I6720
tp1192
aa(lp1193
g1126
a(I9069
I77888
tp1194
aa(lp1195
g1129
a(I2821
I4672
tp1196
aa(lp1197
g1132
a(I37
I453
tp1198
aa(lp1199
g1135
a(I96
I176
tp1200
aatp1201
Rp1202
aa(lp1203
S'BlackScholes_1966080_outerPar_1_tileSize_4096'
p1204
ag0
((lp1205
(lp1206
g1096
aI1150591
aa(lp1207
g1098
aF41.01015912691825
aa(lp1208
g1100
aF6.835026521153042
aa(lp1209
g1102
a(I37
I64
tp1210
aa(lp1211
g1105
a(I7
I64
tp1212
aa(lp1213
g1108
a(I7
I34
tp1214
aa(lp1215
g1111
a(I9
I153
tp1216
aa(lp1217
g1114
a(I7
I34
tp1218
aa(lp1219
g1117
a(I128
I3360
tp1220
aa(lp1221
g1120
a(I154
I2240
tp1222
aa(lp1223
g1123
a(I0
I6720
tp1224
aa(lp1225
g1126
a(I9069
I77888
tp1226
aa(lp1227
g1129
a(I2821
I4672
tp1228
aa(lp1229
g1132
a(I37
I453
tp1230
aa(lp1231
g1135
a(I96
I176
tp1232
aatp1233
Rp1234
aa(lp1235
S'BlackScholes_1966080_outerPar_1_tileSize_5120'
p1236
ag0
((lp1237
(lp1238
g1096
aI1123589
aa(lp1239
g1098
aF41.995711955172226
aa(lp1240
g1100
aF6.999285325862037
aa(lp1241
g1102
a(I37
I64
tp1242
aa(lp1243
g1105
a(I7
I64
tp1244
aa(lp1245
g1108
a(I7
I34
tp1246
aa(lp1247
g1111
a(I9
I153
tp1248
aa(lp1249
g1114
a(I7
I34
tp1250
aa(lp1251
g1117
a(I116
I3360
tp1252
aa(lp1253
g1120
a(I173
I2240
tp1254
aa(lp1255
g1123
a(I0
I6720
tp1256
aa(lp1257
g1126
a(I9069
I77888
tp1258
aa(lp1259
g1129
a(I2821
I4672
tp1260
aa(lp1261
g1132
a(I37
I453
tp1262
aa(lp1263
g1135
a(I96
I176
tp1264
aatp1265
Rp1266
aa(lp1267
S'BlackScholes_1966080_outerPar_1_tileSize_6144'
p1268
ag0
((lp1269
(lp1270
g1096
aI1118236
aa(lp1271
g1098
aF42.19674558858774
aa(lp1272
g1100
aF7.03279093143129
aa(lp1273
g1102
a(I37
I64
tp1274
aa(lp1275
g1105
a(I7
I64
tp1276
aa(lp1277
g1108
a(I7
I34
tp1278
aa(lp1279
g1111
a(I9
I153
tp1280
aa(lp1281
g1114
a(I7
I34
tp1282
aa(lp1283
g1117
a(I114
I3360
tp1284
aa(lp1285
g1120
a(I194
I2240
tp1286
aa(lp1287
g1123
a(I0
I6720
tp1288
aa(lp1289
g1126
a(I9069
I77888
tp1290
aa(lp1291
g1129
a(I2821
I4672
tp1292
aa(lp1293
g1132
a(I37
I453
tp1294
aa(lp1295
g1135
a(I96
I176
tp1296
aatp1297
Rp1298
aa(lp1299
S'BlackScholes_1966080_outerPar_1_tileSize_7168'
p1300
ag0
((lp1301
(lp1302
g1096
aI1116949
aa(lp1303
g1098
aF42.24536661924583
aa(lp1304
g1100
aF7.040894436540971
aa(lp1305
g1102
a(I37
I64
tp1306
aa(lp1307
g1105
a(I7
I64
tp1308
aa(lp1309
g1108
a(I7
I34
tp1310
aa(lp1311
g1111
a(I9
I153
tp1312
aa(lp1313
g1114
a(I7
I34
tp1314
aa(lp1315
g1117
a(I103
I3360
tp1316
aa(lp1317
g1120
a(I195
I2240
tp1318
aa(lp1319
g1123
a(I0
I6720
tp1320
aa(lp1321
g1126
a(I9069
I77888
tp1322
aa(lp1323
g1129
a(I2821
I4672
tp1324
aa(lp1325
g1132
a(I37
I453
tp1326
aa(lp1327
g1135
a(I96
I176
tp1328
aatp1329
Rp1330
aa(lp1331
S'BlackScholes_1966080_outerPar_1_tileSize_8192'
p1332
ag0
((lp1333
(lp1334
g1096
aI1114544
aa(lp1335
g1098
aF42.33652507213712
aa(lp1336
g1100
aF7.056087512022854
aa(lp1337
g1102
a(I37
I64
tp1338
aa(lp1339
g1105
a(I7
I64
tp1340
aa(lp1341
g1108
a(I7
I34
tp1342
aa(lp1343
g1111
a(I9
I153
tp1344
aa(lp1345
g1114
a(I7
I34
tp1346
aa(lp1347
g1117
a(I98
I3360
tp1348
aa(lp1349
g1120
a(I196
I2240
tp1350
aa(lp1351
g1123
a(I0
I6720
tp1352
aa(lp1353
g1126
a(I9069
I77888
tp1354
aa(lp1355
g1129
a(I2821
I4672
tp1356
aa(lp1357
g1132
a(I37
I453
tp1358
aa(lp1359
g1135
a(I96
I176
tp1360
aatp1361
Rp1362
aa(lp1363
S'BlackScholes_1966080_outerPar_1_tileSize_16384'
p1364
ag0
((lp1365
(lp1366
g1096
aI1106333
aa(lp1367
g1098
aF42.65073897280475
aa(lp1368
g1100
aF7.1084564954674585
aa(lp1369
g1102
a(I37
I64
tp1370
aa(lp1371
g1105
a(I7
I64
tp1372
aa(lp1373
g1108
a(I7
I34
tp1374
aa(lp1375
g1111
a(I9
I153
tp1376
aa(lp1377
g1114
a(I7
I34
tp1378
aa(lp1379
g1117
a(I116
I3360
tp1380
aa(lp1381
g1120
a(I191
I2240
tp1382
aa(lp1383
g1123
a(I0
I6720
tp1384
aa(lp1385
g1126
a(I9069
I80464
tp1386
aa(lp1387
g1129
a(I2821
I4784
tp1388
aa(lp1389
g1132
a(I37
I453
tp1390
aa(lp1391
g1135
a(I96
I176
tp1392
aatp1393
Rp1394
aa(lp1395
S'BlackScholes_1966080_outerPar_1_tileSize_32768'
p1396
ag0
((lp1397
(lp1398
g1096
aI1090177
aa(lp1399
g1098
aF43.282806369974786
aa(lp1400
g1100
aF7.2138010616624655
aa(lp1401
g1102
a(I37
I64
tp1402
aa(lp1403
g1105
a(I7
I64
tp1404
aa(lp1405
g1108
a(I7
I34
tp1406
aa(lp1407
g1111
a(I9
I153
tp1408
aa(lp1409
g1114
a(I7
I34
tp1410
aa(lp1411
g1117
a(I120
I3360
tp1412
aa(lp1413
g1120
a(I199
I2240
tp1414
aa(lp1415
g1123
a(I0
I6720
tp1416
aa(lp1417
g1126
a(I9069
I80464
tp1418
aa(lp1419
g1129
a(I2821
I4784
tp1420
aa(lp1421
g1132
a(I37
I453
tp1422
aa(lp1423
g1135
a(I96
I176
tp1424
aatp1425
Rp1426
aa(lp1427
S'BlackScholes_1966080_outerPar_1_tileSize_49152'
p1428
ag0
((lp1429
(lp1430
g1096
aI1094698
aa(lp1431
g1098
aF43.104052441860674
aa(lp1432
g1100
aF7.184008740310112
aa(lp1433
g1102
a(I37
I64
tp1434
aa(lp1435
g1105
a(I7
I64
tp1436
aa(lp1437
g1108
a(I7
I34
tp1438
aa(lp1439
g1111
a(I9
I153
tp1440
aa(lp1441
g1114
a(I7
I34
tp1442
aa(lp1443
g1117
a(I122
I3360
tp1444
aa(lp1445
g1120
a(I178
I2240
tp1446
aa(lp1447
g1123
a(I0
I6720
tp1448
aa(lp1449
g1126
a(I9069
I80464
tp1450
aa(lp1451
g1129
a(I2821
I4784
tp1452
aa(lp1453
g1132
a(I37
I453
tp1454
aa(lp1455
g1135
a(I96
I176
tp1456
aatp1457
Rp1458
aa(lp1459
S'BlackScholes_1966080_outerPar_1_tileSize_65536'
p1460
ag0
((lp1461
(lp1462
g1096
aI1103476
aa(lp1463
g1098
aF42.76116562571365
aa(lp1464
g1100
aF7.126860937618942
aa(lp1465
g1102
a(I37
I64
tp1466
aa(lp1467
g1105
a(I7
I64
tp1468
aa(lp1469
g1108
a(I7
I34
tp1470
aa(lp1471
g1111
a(I9
I153
tp1472
aa(lp1473
g1114
a(I7
I34
tp1474
aa(lp1475
g1117
a(I118
I3360
tp1476
aa(lp1477
g1120
a(I166
I2240
tp1478
aa(lp1479
g1123
a(I0
I6720
tp1480
aa(lp1481
g1126
a(I9069
I80464
tp1482
aa(lp1483
g1129
a(I2821
I4784
tp1484
aa(lp1485
g1132
a(I37
I453
tp1486
aa(lp1487
g1135
a(I96
I176
tp1488
aatp1489
Rp1490
aa(lp1491
S'BlackScholes_1966080_outerPar_1_tileSize_81920'
p1492
ag0
((lp1493
(lp1494
g1096
aI1104239
aa(lp1495
g1098
aF42.73161878904838
aa(lp1496
g1100
aF7.121936464841398
aa(lp1497
g1102
a(I37
I64
tp1498
aa(lp1499
g1105
a(I7
I64
tp1500
aa(lp1501
g1108
a(I7
I34
tp1502
aa(lp1503
g1111
a(I9
I153
tp1504
aa(lp1505
g1114
a(I7
I34
tp1506
aa(lp1507
g1117
a(I118
I3360
tp1508
aa(lp1509
g1120
a(I213
I2240
tp1510
aa(lp1511
g1123
a(I0
I6720
tp1512
aa(lp1513
g1126
a(I9069
I80464
tp1514
aa(lp1515
g1129
a(I2821
I4784
tp1516
aa(lp1517
g1132
a(I37
I453
tp1518
aa(lp1519
g1135
a(I96
I176
tp1520
aatp1521
Rp1522
aa(lp1523
S'BlackScholes_1966080_outerPar_1_tileSize_98304'
p1524
ag0
((lp1525
(lp1526
g1096
aI1098941
aa(lp1527
g1098
aF42.93762813472243
aa(lp1528
g1100
aF7.156271355787071
aa(lp1529
g1102
a(I37
I64
tp1530
aa(lp1531
g1105
a(I7
I64
tp1532
aa(lp1533
g1108
a(I7
I34
tp1534
aa(lp1535
g1111
a(I9
I153
tp1536
aa(lp1537
g1114
a(I7
I34
tp1538
aa(lp1539
g1117
a(I122
I3360
tp1540
aa(lp1541
g1120
a(I172
I2240
tp1542
aa(lp1543
g1123
a(I0
I6720
tp1544
aa(lp1545
g1126
a(I9069
I80464
tp1546
aa(lp1547
g1129
a(I2821
I4784
tp1548
aa(lp1549
g1132
a(I37
I453
tp1550
aa(lp1551
g1135
a(I96
I176
tp1552
aatp1553
Rp1554
aa(lp1555
S'BlackScholes_1966080_outerPar_1_tileSize_131072'
p1556
ag0
((lp1557
(lp1558
g1096
aI1095237
aa(lp1559
g1098
aF43.08283960457874
aa(lp1560
g1100
aF7.1804732674297895
aa(lp1561
g1102
a(I37
I64
tp1562
aa(lp1563
g1105
a(I7
I64
tp1564
aa(lp1565
g1108
a(I7
I34
tp1566
aa(lp1567
g1111
a(I9
I153
tp1568
aa(lp1569
g1114
a(I7
I34
tp1570
aa(lp1571
g1117
a(I129
I3360
tp1572
aa(lp1573
g1120
a(I155
I2240
tp1574
aa(lp1575
g1123
a(I0
I6720
tp1576
aa(lp1577
g1126
a(I9069
I80464
tp1578
aa(lp1579
g1129
a(I2821
I4784
tp1580
aa(lp1581
g1132
a(I37
I453
tp1582
aa(lp1583
g1135
a(I96
I176
tp1584
aatp1585
Rp1586
aatp1587
Rp1588
aatp1589
Rp1590
aa(lp1591
S'Kmeans_plasticine'
p1592
ag0
((lp1593
(lp1594
S'1_6144'
p1595
ag0
((lp1596
(lp1597
S'Kmeans_plasticine_1_6144_tileSize_128'
p1598
ag0
((lp1599
(lp1600
g1096
aI5963667
aa(lp1601
g1098
aF0.3968994244648469
aa(lp1602
g1100
aF0.001287798262377829
aa(lp1603
g1102
a(I8
I64
tp1604
aa(lp1605
g1105
a(I11
I64
tp1606
aa(lp1607
g1108
a(I3
I34
tp1608
aa(lp1609
g1111
a(I9
I153
tp1610
aa(lp1611
g1114
a(I3
I34
tp1612
aa(lp1613
g1117
a(I57
I3360
tp1614
aa(lp1615
g1120
a(I6
I2240
tp1616
aa(lp1617
g1123
a(I0
I6720
tp1618
aa(lp1619
g1126
a(I605
I37136
tp1620
aa(lp1621
g1129
a(I249
I1936
tp1622
aa(lp1623
g1132
a(I34
I221
tp1624
aa(lp1625
g1135
a(I1
I76
tp1626
aatp1627
Rp1628
aa(lp1629
S'Kmeans_plasticine_1_6144_tileSize_256'
p1630
ag0
((lp1631
(lp1632
g1096
aI5950139
aa(lp1633
g1098
aF0.3978017992520847
aa(lp1634
g1100
aF0.0012907261494227277
aa(lp1635
g1102
a(I8
I64
tp1636
aa(lp1637
g1105
a(I11
I64
tp1638
aa(lp1639
g1108
a(I3
I34
tp1640
aa(lp1641
g1111
a(I9
I153
tp1642
aa(lp1643
g1114
a(I3
I34
tp1644
aa(lp1645
g1117
a(I48
I3360
tp1646
aa(lp1647
g1120
a(I7
I2240
tp1648
aa(lp1649
g1123
a(I0
I6720
tp1650
aa(lp1651
g1126
a(I605
I37136
tp1652
aa(lp1653
g1129
a(I249
I1936
tp1654
aa(lp1655
g1132
a(I34
I221
tp1656
aa(lp1657
g1135
a(I1
I76
tp1658
aatp1659
Rp1660
aa(lp1661
S'Kmeans_plasticine_1_6144_tileSize_384'
p1662
ag0
((lp1663
(lp1664
g1096
aI5946286
aa(lp1665
g1098
aF0.39805956188451075
aa(lp1666
g1100
aF0.001291562498002955
aa(lp1667
g1102
a(I8
I64
tp1668
aa(lp1669
g1105
a(I11
I64
tp1670
aa(lp1671
g1108
a(I3
I34
tp1672
aa(lp1673
g1111
a(I9
I153
tp1674
aa(lp1675
g1114
a(I3
I34
tp1676
aa(lp1677
g1117
a(I54
I3360
tp1678
aa(lp1679
g1120
a(I2
I2240
tp1680
aa(lp1681
g1123
a(I0
I6720
tp1682
aa(lp1683
g1126
a(I605
I37136
tp1684
aa(lp1685
g1129
a(I249
I1936
tp1686
aa(lp1687
g1132
a(I34
I221
tp1688
aa(lp1689
g1135
a(I1
I76
tp1690
aatp1691
Rp1692
aa(lp1693
S'Kmeans_plasticine_1_6144_tileSize_512'
p1694
ag0
((lp1695
(lp1696
g1096
aI5945063
aa(lp1697
g1098
aF0.39814144946823943
aa(lp1698
g1100
aF0.0012918281942512636
aa(lp1699
g1102
a(I8
I64
tp1700
aa(lp1701
g1105
a(I11
I64
tp1702
aa(lp1703
g1108
a(I3
I34
tp1704
aa(lp1705
g1111
a(I9
I153
tp1706
aa(lp1707
g1114
a(I3
I34
tp1708
aa(lp1709
g1117
a(I62
I3360
tp1710
aa(lp1711
g1120
a(I9
I2240
tp1712
aa(lp1713
g1123
a(I0
I6720
tp1714
aa(lp1715
g1126
a(I605
I37136
tp1716
aa(lp1717
g1129
a(I249
I1936
tp1718
aa(lp1719
g1132
a(I34
I221
tp1720
aa(lp1721
g1135
a(I1
I76
tp1722
aatp1723
Rp1724
aa(lp1725
S'Kmeans_plasticine_1_6144_tileSize_1024'
p1726
ag0
((lp1727
(lp1728
g1096
aI5945409
aa(lp1729
g1098
aF0.3981182791629643
aa(lp1730
g1100
aF0.001291753014805205
aa(lp1731
g1102
a(I8
I64
tp1732
aa(lp1733
g1105
a(I11
I64
tp1734
aa(lp1735
g1108
a(I3
I34
tp1736
aa(lp1737
g1111
a(I9
I153
tp1738
aa(lp1739
g1114
a(I3
I34
tp1740
aa(lp1741
g1117
a(I54
I3360
tp1742
aa(lp1743
g1120
a(I1
I2240
tp1744
aa(lp1745
g1123
a(I0
I6720
tp1746
aa(lp1747
g1126
a(I605
I33088
tp1748
aa(lp1749
g1129
a(I249
I1760
tp1750
aa(lp1751
g1132
a(I34
I221
tp1752
aa(lp1753
g1135
a(I1
I76
tp1754
aatp1755
Rp1756
aatp1757
Rp1758
aatp1759
Rp1760
aa(lp1761
S'PageRank_plasticine'
p1762
ag0
((lp1763
(lp1764
S'1_491520_0.125'
p1765
ag0
((lp1766
tp1767
Rp1768
aatp1769
Rp1770
aa(lp1771
S'SPMV_CRS'
p1772
ag0
((lp1773
(lp1774
S''
p1775
ag0
((lp1776
(lp1777
S'SPMV_CRS__tileSize_80_tile_par_1_pt_par_1'
p1778
ag0
((lp1779
(lp1780
g17
aI93202
aa(lp1781
g19
aF0.0
aa(lp1782
g21
aF0.0
aa(lp1783
g23
a(I25
I64
tp1784
aa(lp1785
g26
a(I6
I64
tp1786
aa(lp1787
g29
a(I5
I34
tp1788
aa(lp1789
g32
a(I15
I153
tp1790
aa(lp1791
g35
a(I5
I34
tp1792
aa(lp1793
g38
a(I303
I3360
tp1794
aa(lp1795
g41
a(I0
I2240
tp1796
aa(lp1797
g44
a(I0
I6720
tp1798
aa(lp1799
g47
a(I868
I54912
tp1800
aa(lp1801
g50
a(I319
I3264
tp1802
aa(lp1803
g53
a(I107
I363
tp1804
aa(lp1805
g56
a(I1
I124
tp1806
aatp1807
Rp1808
aa(lp1809
S'SPMV_CRS__tileSize_80_tile_par_1_pt_par_2'
p1810
ag0
((lp1811
(lp1812
g17
aI83538
aa(lp1813
g19
aF0.0
aa(lp1814
g21
aF0.0
aa(lp1815
g23
a(I40
I64
tp1816
aa(lp1817
g26
a(I9
I64
tp1818
aa(lp1819
g29
a(I8
I34
tp1820
aa(lp1821
g32
a(I22
I153
tp1822
aa(lp1823
g35
a(I8
I34
tp1824
aa(lp1825
g38
a(I524
I3360
tp1826
aa(lp1827
g41
a(I0
I2240
tp1828
aa(lp1829
g44
a(I0
I6720
tp1830
aa(lp1831
g47
a(I1321
I86976
tp1832
aa(lp1833
g50
a(I497
I5184
tp1834
aa(lp1835
g53
a(I168
I566
tp1836
aa(lp1837
g56
a(I2
I196
tp1838
aatp1839
Rp1840
aa(lp1841
S'SPMV_CRS__tileSize_80_tile_par_2_pt_par_1'
p1842
ag0
((lp1843
(lp1844
g17
aI69732
aa(lp1845
g19
aF0.0
aa(lp1846
g21
aF0.0
aa(lp1847
g23
a(I49
I64
tp1848
aa(lp1849
g26
a(I12
I64
tp1850
aa(lp1851
g29
a(I10
I34
tp1852
aa(lp1853
g32
a(I28
I153
tp1854
aa(lp1855
g35
a(I10
I34
tp1856
aa(lp1857
g38
a(I675
I3360
tp1858
aa(lp1859
g41
a(I0
I2240
tp1860
aa(lp1861
g44
a(I0
I6720
tp1862
aa(lp1863
g47
a(I1730
I108288
tp1864
aa(lp1865
g50
a(I637
I6432
tp1866
aa(lp1867
g53
a(I212
I708
tp1868
aa(lp1869
g56
a(I2
I244
tp1870
aatp1871
Rp1872
aa(lp1873
S'SPMV_CRS__tileSize_144_tile_par_1_pt_par_1'
p1874
ag0
((lp1875
(lp1876
g17
aI83563
aa(lp1877
g19
aF0.0
aa(lp1878
g21
aF0.0
aa(lp1879
g23
a(I25
I64
tp1880
aa(lp1881
g26
a(I6
I64
tp1882
aa(lp1883
g29
a(I5
I34
tp1884
aa(lp1885
g32
a(I15
I153
tp1886
aa(lp1887
g35
a(I5
I34
tp1888
aa(lp1889
g38
a(I307
I3360
tp1890
aa(lp1891
g41
a(I0
I2240
tp1892
aa(lp1893
g44
a(I0
I6720
tp1894
aa(lp1895
g47
a(I868
I54912
tp1896
aa(lp1897
g50
a(I319
I3264
tp1898
aa(lp1899
g53
a(I107
I363
tp1900
aa(lp1901
g56
a(I1
I124
tp1902
aatp1903
Rp1904
aa(lp1905
S'SPMV_CRS__tileSize_144_tile_par_1_pt_par_2'
p1906
ag0
((lp1907
(lp1908
g17
aI74606
aa(lp1909
g19
aF0.0
aa(lp1910
g21
aF0.0
aa(lp1911
g23
a(I40
I64
tp1912
aa(lp1913
g26
a(I9
I64
tp1914
aa(lp1915
g29
a(I8
I34
tp1916
aa(lp1917
g32
a(I22
I153
tp1918
aa(lp1919
g35
a(I8
I34
tp1920
aa(lp1921
g38
a(I592
I3360
tp1922
aa(lp1923
g41
a(I0
I2240
tp1924
aa(lp1925
g44
a(I0
I6720
tp1926
aa(lp1927
g47
a(I1321
I86976
tp1928
aa(lp1929
g50
a(I497
I5184
tp1930
aa(lp1931
g53
a(I168
I566
tp1932
aa(lp1933
g56
a(I2
I196
tp1934
aatp1935
Rp1936
aa(lp1937
S'SPMV_CRS__tileSize_144_tile_par_2_pt_par_1'
p1938
ag0
((lp1939
(lp1940
g17
aI69177
aa(lp1941
g19
aF0.0
aa(lp1942
g21
aF0.0
aa(lp1943
g23
a(I49
I64
tp1944
aa(lp1945
g26
a(I12
I64
tp1946
aa(lp1947
g29
a(I10
I34
tp1948
aa(lp1949
g32
a(I28
I153
tp1950
aa(lp1951
g35
a(I10
I34
tp1952
aa(lp1953
g38
a(I762
I3360
tp1954
aa(lp1955
g41
a(I0
I2240
tp1956
aa(lp1957
g44
a(I0
I6720
tp1958
aa(lp1959
g47
a(I1730
I108288
tp1960
aa(lp1961
g50
a(I637
I6432
tp1962
aa(lp1963
g53
a(I212
I708
tp1964
aa(lp1965
g56
a(I2
I244
tp1966
aatp1967
Rp1968
aa(lp1969
S'SPMV_CRS__tileSize_208_tile_par_1_pt_par_1'
p1970
ag0
((lp1971
(lp1972
g17
aI80064
aa(lp1973
g19
aF0.0
aa(lp1974
g21
aF0.0
aa(lp1975
g23
a(I25
I64
tp1976
aa(lp1977
g26
a(I6
I64
tp1978
aa(lp1979
g29
a(I5
I34
tp1980
aa(lp1981
g32
a(I15
I153
tp1982
aa(lp1983
g35
a(I5
I34
tp1984
aa(lp1985
g38
a(I254
I3360
tp1986
aa(lp1987
g41
a(I0
I2240
tp1988
aa(lp1989
g44
a(I0
I6720
tp1990
aa(lp1991
g47
a(I868
I54912
tp1992
aa(lp1993
g50
a(I319
I3264
tp1994
aa(lp1995
g53
a(I107
I363
tp1996
aa(lp1997
g56
a(I1
I124
tp1998
aatp1999
Rp2000
aa(lp2001
S'SPMV_CRS__tileSize_208_tile_par_1_pt_par_2'
p2002
ag0
((lp2003
(lp2004
g17
aI71824
aa(lp2005
g19
aF0.0
aa(lp2006
g21
aF0.0
aa(lp2007
g23
a(I40
I64
tp2008
aa(lp2009
g26
a(I9
I64
tp2010
aa(lp2011
g29
a(I8
I34
tp2012
aa(lp2013
g32
a(I22
I153
tp2014
aa(lp2015
g35
a(I8
I34
tp2016
aa(lp2017
g38
a(I527
I3360
tp2018
aa(lp2019
g41
a(I0
I2240
tp2020
aa(lp2021
g44
a(I0
I6720
tp2022
aa(lp2023
g47
a(I1321
I86976
tp2024
aa(lp2025
g50
a(I497
I5184
tp2026
aa(lp2027
g53
a(I168
I566
tp2028
aa(lp2029
g56
a(I2
I196
tp2030
aatp2031
Rp2032
aa(lp2033
S'SPMV_CRS__tileSize_208_tile_par_2_pt_par_1'
p2034
ag0
((lp2035
(lp2036
g17
aI60012
aa(lp2037
g19
aF0.0
aa(lp2038
g21
aF0.0
aa(lp2039
g23
a(I49
I64
tp2040
aa(lp2041
g26
a(I12
I64
tp2042
aa(lp2043
g29
a(I10
I34
tp2044
aa(lp2045
g32
a(I28
I153
tp2046
aa(lp2047
g35
a(I10
I34
tp2048
aa(lp2049
g38
a(I789
I3360
tp2050
aa(lp2051
g41
a(I0
I2240
tp2052
aa(lp2053
g44
a(I0
I6720
tp2054
aa(lp2055
g47
a(I1730
I108288
tp2056
aa(lp2057
g50
a(I637
I6432
tp2058
aa(lp2059
g53
a(I212
I708
tp2060
aa(lp2061
g56
a(I2
I244
tp2062
aatp2063
Rp2064
aatp2065
Rp2066
aatp2067
Rp2068
aa(lp2069
S'GEMM_Blocked'
p2070
ag0
((lp2071
(lp2072
g1775
ag0
((lp2073
(lp2074
S'GEMM_Blocked__tileSize_16_i_tileSize_16_loop_jj_1_loop_ii_1_loop_kk_1_loop_i_1_loop_k_1'
p2075
ag0
((lp2076
(lp2077
g1096
aI71521420
aa(lp2078
g1098
aF0.9383044128598118
aa(lp2079
g1100
aF0.01466100645093456
aa(lp2080
g1102
a(I18
I64
tp2081
aa(lp2082
g1105
a(I8
I64
tp2083
aa(lp2084
g1108
a(I3
I34
tp2085
aa(lp2086
g1111
a(I11
I153
tp2087
aa(lp2088
g1114
a(I3
I34
tp2089
aa(lp2090
g1117
a(I170
I3360
tp2091
aa(lp2092
g1120
a(I0
I2240
tp2093
aa(lp2094
g1123
a(I0
I6720
tp2095
aa(lp2096
g1126
a(I789
I46976
tp2097
aa(lp2098
g1129
a(I236
I2656
tp2099
aa(lp2100
g1132
a(I81
I287
tp2101
aa(lp2102
g1135
a(I0
I104
tp2103
aatp2104
Rp2105
aa(lp2106
S'GEMM_Blocked__tileSize_16_i_tileSize_16_loop_jj_1_loop_ii_1_loop_kk_1_loop_i_2_loop_k_1'
p2107
ag0
((lp2108
(lp2109
g1096
aI38484739
aa(lp2110
g1098
aF1.7437785923402003
aa(lp2111
g1100
aF0.02724654050531563
aa(lp2112
g1102
a(I25
I64
tp2113
aa(lp2114
g1105
a(I14
I64
tp2115
aa(lp2116
g1108
a(I4
I34
tp2117
aa(lp2118
g1111
a(I14
I153
tp2119
aa(lp2120
g1114
a(I4
I34
tp2121
aa(lp2122
g1117
a(I274
I3360
tp2123
aa(lp2124
g1120
a(I0
I2240
tp2125
aa(lp2126
g1123
a(I0
I6720
tp2127
aa(lp2128
g1126
a(I1076
I70304
tp2129
aa(lp2130
g1129
a(I303
I3904
tp2131
aa(lp2132
g1132
a(I114
I414
tp2133
aa(lp2134
g1135
a(I0
I156
tp2135
aatp2136
Rp2137
aa(lp2138
S'GEMM_Blocked__tileSize_16_i_tileSize_16_loop_jj_1_loop_ii_1_loop_kk_1_loop_i_2_loop_k_2'
p2139
ag0
((lp2140
(lp2141
g1096
aI28935759
aa(lp2142
g1098
aF2.319236346971234
aa(lp2143
g1100
aF0.03623806792142553
aa(lp2144
g1102
a(I27
I64
tp2145
aa(lp2146
g1105
a(I18
I64
tp2147
aa(lp2148
g1108
a(I4
I34
tp2149
aa(lp2150
g1111
a(I14
I153
tp2151
aa(lp2152
g1114
a(I4
I34
tp2153
aa(lp2154
g1117
a(I262
I3360
tp2155
aa(lp2156
g1120
a(I0
I2240
tp2157
aa(lp2158
g1123
a(I0
I6720
tp2159
aa(lp2160
g1126
a(I1312
I80736
tp2161
aa(lp2162
g1129
a(I377
I4416
tp2163
aa(lp2164
g1132
a(I130
I462
tp2165
aa(lp2166
g1135
a(I0
I180
tp2167
aatp2168
Rp2169
aa(lp2170
S'GEMM_Blocked__tileSize_16_i_tileSize_16_loop_jj_1_loop_ii_1_loop_kk_2_loop_i_1_loop_k_1'
p2171
ag0
((lp2172
(lp2173
g1096
aI36502225
aa(lp2174
g1098
aF1.8384869415494536
aa(lp2175
g1100
aF0.028726358461710212
aa(lp2176
g1102
a(I30
I64
tp2177
aa(lp2178
g1105
a(I14
I64
tp2179
aa(lp2180
g1108
a(I5
I34
tp2181
aa(lp2182
g1111
a(I17
I153
tp2183
aa(lp2184
g1114
a(I5
I34
tp2185
aa(lp2186
g1117
a(I359
I3360
tp2187
aa(lp2188
g1120
a(I0
I2240
tp2189
aa(lp2190
g1123
a(I0
I6720
tp2191
aa(lp2192
g1126
a(I1206
I79520
tp2193
aa(lp2194
g1129
a(I375
I4480
tp2195
aa(lp2196
g1132
a(I134
I477
tp2197
aa(lp2198
g1135
a(I0
I176
tp2199
aatp2200
Rp2201
aa(lp2202
S'GEMM_Blocked__tileSize_16_i_tileSize_16_loop_jj_1_loop_ii_1_loop_kk_2_loop_i_1_loop_k_2'
p2203
ag0
((lp2204
(lp2205
g1096
aI26960180
aa(lp2206
g1098
aF2.4891845677588207
aa(lp2207
g1100
aF0.03889350887123157
aa(lp2208
g1102
a(I32
I64
tp2209
aa(lp2210
g1105
a(I18
I64
tp2211
aa(lp2212
g1108
a(I5
I34
tp2213
aa(lp2214
g1111
a(I17
I153
tp2215
aa(lp2216
g1114
a(I5
I34
tp2217
aa(lp2218
g1117
a(I407
I3360
tp2219
aa(lp2220
g1120
a(I0
I2240
tp2221
aa(lp2222
g1123
a(I0
I6720
tp2223
aa(lp2224
g1126
a(I1442
I89952
tp2225
aa(lp2226
g1129
a(I449
I4992
tp2227
aa(lp2228
g1132
a(I150
I525
tp2229
aa(lp2230
g1135
a(I0
I200
tp2231
aatp2232
Rp2233
aa(lp2234
S'GEMM_Blocked__tileSize_16_i_tileSize_16_loop_jj_1_loop_ii_1_loop_kk_2_loop_i_2_loop_k_1'
p2235
ag0
((lp2236
(lp2237
g1096
aI19968305
aa(lp2238
g1098
aF3.3607691789563514
aa(lp2239
g1100
aF0.05251201842119299
aa(lp2240
g1102
a(I44
I64
tp2241
aa(lp2242
g1105
a(I26
I64
tp2243
aa(lp2244
g1108
a(I7
I34
tp2245
aa(lp2246
g1111
a(I23
I153
tp2247
aa(lp2248
g1114
a(I7
I34
tp2249
aa(lp2250
g1117
a(I535
I3360
tp2251
aa(lp2252
g1120
a(I0
I2240
tp2253
aa(lp2254
g1123
a(I0
I6720
tp2255
aa(lp2256
g1126
a(I1780
I126176
tp2257
aa(lp2258
g1129
a(I509
I6976
tp2259
aa(lp2260
g1132
a(I200
I731
tp2261
aa(lp2262
g1135
a(I0
I280
tp2263
aatp2264
Rp2265
aa(lp2266
S'GEMM_Blocked__tileSize_16_i_tileSize_16_loop_jj_1_loop_ii_1_loop_kk_2_loop_i_2_loop_k_2'
p2267
ag0
((lp2268
(lp2269
g1096
aI15225514
aa(lp2270
g1098
aF4.407658355573414
aa(lp2271
g1100
aF0.06886966180583459
aa(lp2272
g1102
a(I48
I64
tp2273
aa(lp2274
g1105
a(I34
I64
tp2275
aa(lp2276
g1108
a(I7
I34
tp2277
aa(lp2278
g1111
a(I23
I153
tp2279
aa(lp2280
g1114
a(I7
I34
tp2281
aa(lp2282
g1117
a(I662
I3360
tp2283
aa(lp2284
g1120
a(I0
I2240
tp2285
aa(lp2286
g1123
a(I0
I6720
tp2287
aa(lp2288
g1126
a(I2252
I147040
tp2289
aa(lp2290
g1129
a(I657
I8000
tp2291
aa(lp2292
g1132
a(I232
I827
tp2293
aa(lp2294
g1135
a(I0
I328
tp2295
aatp2296
Rp2297
aa(lp2298
S'GEMM_Blocked__tileSize_16_i_tileSize_16_loop_jj_1_loop_ii_2_loop_kk_1_loop_i_1_loop_k_2'
p2299
ag0
((lp2300
(lp2301
g1096
aI26373270
aa(lp2302
g1098
aF2.544578810287841
aa(lp2303
g1100
aF0.03975904391074751
aa(lp2304
g1102
a(I38
I64
tp2305
aa(lp2306
g1105
a(I20
I64
tp2307
aa(lp2308
g1108
a(I6
I34
tp2309
aa(lp2310
g1111
a(I23
I153
tp2311
aa(lp2312
g1114
a(I6
I34
tp2313
aa(lp2314
g1117
a(I507
I3360
tp2315
aa(lp2316
g1120
a(I0
I2240
tp2317
aa(lp2318
g1123
a(I0
I6720
tp2319
aa(lp2320
g1126
a(I1814
I104384
tp2321
aa(lp2322
g1129
a(I546
I5824
tp2323
aa(lp2324
g1132
a(I179
I627
tp2325
aa(lp2326
g1135
a(I0
I232
tp2327
aatp2328
Rp2329
aa(lp2330
S'GEMM_Blocked__tileSize_16_i_tileSize_16_loop_jj_1_loop_ii_2_loop_kk_1_loop_i_2_loop_k_2'
p2331
ag0
((lp2332
(lp2333
g1096
aI14668242
aa(lp2334
g1098
aF4.575112954913069
aa(lp2335
g1100
aF0.07148613992051671
aa(lp2336
g1102
a(I54
I64
tp2337
aa(lp2338
g1105
a(I36
I64
tp2339
aa(lp2340
g1108
a(I8
I34
tp2341
aa(lp2342
g1111
a(I29
I153
tp2343
aa(lp2344
g1114
a(I8
I34
tp2345
aa(lp2346
g1117
a(I786
I3360
tp2347
aa(lp2348
g1120
a(I0
I2240
tp2349
aa(lp2350
g1123
a(I0
I6720
tp2351
aa(lp2352
g1126
a(I2624
I161472
tp2353
aa(lp2354
g1129
a(I754
I8832
tp2355
aa(lp2356
g1132
a(I261
I929
tp2357
aa(lp2358
g1135
a(I0
I360
tp2359
aatp2360
Rp2361
aa(lp2362
S'GEMM_Blocked__tileSize_16_i_tileSize_16_loop_jj_1_loop_ii_2_loop_kk_2_loop_i_1_loop_k_2'
p2363
ag0
((lp2364
(lp2365
g1096
aI13866271
aa(lp2366
g1098
aF4.839719633346268
aa(lp2367
g1100
aF0.07562061927103544
aa(lp2368
g1102
a(I64
I64
tp2369
aa(lp2370
g1105
a(I36
I64
tp2371
aa(lp2372
g1108
a(I10
I34
tp2373
aa(lp2374
g1111
a(I35
I153
tp2375
aa(lp2376
g1114
a(I10
I34
tp2377
aa(lp2378
g1117
a(I920
I3360
tp2379
aa(lp2380
g1120
a(I0
I2240
tp2381
aa(lp2382
g1123
a(I0
I6720
tp2383
aa(lp2384
g1126
a(I2884
I179904
tp2385
aa(lp2386
g1129
a(I898
I9984
tp2387
aa(lp2388
g1132
a(I301
I1055
tp2389
aa(lp2390
g1135
a(I0
I400
tp2391
aatp2392
Rp2393
aa(lp2394
S'GEMM_Blocked__tileSize_16_i_tileSize_16_loop_jj_2_loop_ii_1_loop_kk_1_loop_i_1_loop_k_1'
p2395
ag0
((lp2396
(lp2397
g1096
aI35922717
aa(lp2398
g1098
aF1.868145552576104
aa(lp2399
g1100
aF0.029189774259001624
aa(lp2400
g1102
a(I36
I64
tp2401
aa(lp2402
g1105
a(I16
I64
tp2403
aa(lp2404
g1108
a(I6
I34
tp2405
aa(lp2406
g1111
a(I21
I153
tp2407
aa(lp2408
g1114
a(I6
I34
tp2409
aa(lp2410
g1117
a(I457
I3360
tp2411
aa(lp2412
g1120
a(I0
I2240
tp2413
aa(lp2414
g1123
a(I0
I6720
tp2415
aa(lp2416
g1126
a(I1578
I93952
tp2417
aa(lp2418
g1129
a(I472
I5312
tp2419
aa(lp2420
g1132
a(I161
I569
tp2421
aa(lp2422
g1135
a(I0
I208
tp2423
aatp2424
Rp2425
aa(lp2426
S'GEMM_Blocked__tileSize_16_i_tileSize_16_loop_jj_2_loop_ii_1_loop_kk_1_loop_i_2_loop_k_2'
p2427
ag0
((lp2428
(lp2429
g1096
aI14594499
aa(lp2430
g1098
aF4.598230059147628
aa(lp2431
g1100
aF0.07184734467418169
aa(lp2432
g1102
a(I54
I64
tp2433
aa(lp2434
g1105
a(I36
I64
tp2435
aa(lp2436
g1108
a(I8
I34
tp2437
aa(lp2438
g1111
a(I27
I153
tp2439
aa(lp2440
g1114
a(I8
I34
tp2441
aa(lp2442
g1117
a(I830
I3360
tp2443
aa(lp2444
g1120
a(I0
I2240
tp2445
aa(lp2446
g1123
a(I0
I6720
tp2447
aa(lp2448
g1126
a(I2624
I161472
tp2449
aa(lp2450
g1129
a(I754
I8832
tp2451
aa(lp2452
g1132
a(I259
I919
tp2453
aa(lp2454
g1135
a(I0
I360
tp2455
aatp2456
Rp2457
aa(lp2458
S'GEMM_Blocked__tileSize_16_i_tileSize_16_loop_jj_2_loop_ii_1_loop_kk_2_loop_i_1_loop_k_1'
p2459
ag0
((lp2460
(lp2461
g1096
aI18283225
aa(lp2462
g1098
aF3.67051567762252
aa(lp2463
g1100
aF0.05735180746285187
aa(lp2464
g1102
a(I60
I64
tp2465
aa(lp2466
g1105
a(I28
I64
tp2467
aa(lp2468
g1108
a(I10
I34
tp2469
aa(lp2470
g1111
a(I33
I153
tp2471
aa(lp2472
g1114
a(I10
I34
tp2473
aa(lp2474
g1117
a(I839
I3360
tp2475
aa(lp2476
g1120
a(I0
I2240
tp2477
aa(lp2478
g1123
a(I0
I6720
tp2479
aa(lp2480
g1126
a(I2412
I159040
tp2481
aa(lp2482
g1129
a(I750
I8960
tp2483
aa(lp2484
g1132
a(I267
I949
tp2485
aa(lp2486
g1135
a(I0
I352
tp2487
aatp2488
Rp2489
aa(lp2490
S'GEMM_Blocked__tileSize_16_i_tileSize_256_loop_jj_1_loop_ii_1_loop_kk_1_loop_i_1_loop_k_1'
p2491
ag0
((lp2492
(lp2493
g1096
aI68229998
aa(lp2494
g1098
aF0.5225206660565929
aa(lp2495
g1100
aF0.015368254884017437
aa(lp2496
g1102
a(I18
I64
tp2497
aa(lp2498
g1105
a(I8
I64
tp2499
aa(lp2500
g1108
a(I3
I34
tp2501
aa(lp2502
g1111
a(I11
I153
tp2503
aa(lp2504
g1114
a(I3
I34
tp2505
aa(lp2506
g1117
a(I176
I3360
tp2507
aa(lp2508
g1120
a(I0
I2240
tp2509
aa(lp2510
g1123
a(I0
I6720
tp2511
aa(lp2512
g1126
a(I789
I46976
tp2513
aa(lp2514
g1129
a(I236
I2656
tp2515
aa(lp2516
g1132
a(I81
I287
tp2517
aa(lp2518
g1135
a(I0
I104
tp2519
aatp2520
Rp2521
aa(lp2522
S'GEMM_Blocked__tileSize_16_i_tileSize_256_loop_jj_1_loop_ii_1_loop_kk_1_loop_i_2_loop_k_1'
p2523
ag0
((lp2524
(lp2525
g1096
aI34846139
aa(lp2526
g1098
aF1.0231143255211144
aa(lp2527
g1100
aF0.030091597809444544
aa(lp2528
g1102
a(I25
I64
tp2529
aa(lp2530
g1105
a(I14
I64
tp2531
aa(lp2532
g1108
a(I4
I34
tp2533
aa(lp2534
g1111
a(I14
I153
tp2535
aa(lp2536
g1114
a(I4
I34
tp2537
aa(lp2538
g1117
a(I304
I3360
tp2539
aa(lp2540
g1120
a(I0
I2240
tp2541
aa(lp2542
g1123
a(I0
I6720
tp2543
aa(lp2544
g1126
a(I1076
I70304
tp2545
aa(lp2546
g1129
a(I303
I3904
tp2547
aa(lp2548
g1132
a(I114
I414
tp2549
aa(lp2550
g1135
a(I0
I156
tp2551
aatp2552
Rp2553
aa(lp2554
S'GEMM_Blocked__tileSize_16_i_tileSize_256_loop_jj_1_loop_ii_1_loop_kk_2_loop_i_1_loop_k_2'
p2555
ag0
((lp2556
(lp2557
g1096
aI24598886
aa(lp2558
g1098
aF1.449317013786722
aa(lp2559
g1100
aF0.04262697099372711
aa(lp2560
g1102
a(I32
I64
tp2561
aa(lp2562
g1105
a(I18
I64
tp2563
aa(lp2564
g1108
a(I5
I34
tp2565
aa(lp2566
g1111
a(I17
I153
tp2567
aa(lp2568
g1114
a(I5
I34
tp2569
aa(lp2570
g1117
a(I386
I3360
tp2571
aa(lp2572
g1120
a(I0
I2240
tp2573
aa(lp2574
g1123
a(I0
I6720
tp2575
aa(lp2576
g1126
a(I1442
I89952
tp2577
aa(lp2578
g1129
a(I449
I4992
tp2579
aa(lp2580
g1132
a(I150
I525
tp2581
aa(lp2582
g1135
a(I0
I200
tp2583
aatp2584
Rp2585
aa(lp2586
S'GEMM_Blocked__tileSize_16_i_tileSize_256_loop_jj_1_loop_ii_1_loop_kk_2_loop_i_2_loop_k_1'
p2587
ag0
((lp2588
(lp2589
g1096
aI17541238
aa(lp2590
g1098
aF2.032444004237329
aa(lp2591
g1100
aF0.05977776483050968
aa(lp2592
g1102
a(I44
I64
tp2593
aa(lp2594
g1105
a(I26
I64
tp2595
aa(lp2596
g1108
a(I7
I34
tp2597
aa(lp2598
g1111
a(I23
I153
tp2599
aa(lp2600
g1114
a(I7
I34
tp2601
aa(lp2602
g1117
a(I506
I3360
tp2603
aa(lp2604
g1120
a(I0
I2240
tp2605
aa(lp2606
g1123
a(I0
I6720
tp2607
aa(lp2608
g1126
a(I1780
I126176
tp2609
aa(lp2610
g1129
a(I509
I6976
tp2611
aa(lp2612
g1132
a(I200
I731
tp2613
aa(lp2614
g1135
a(I0
I280
tp2615
aatp2616
Rp2617
aa(lp2618
S'GEMM_Blocked__tileSize_16_i_tileSize_256_loop_jj_1_loop_ii_1_loop_kk_2_loop_i_2_loop_k_2'
p2619
ag0
((lp2620
(lp2621
g1096
aI12713018
aa(lp2622
g1098
aF2.80433678297317
aa(lp2623
g1100
aF0.08248049361685793
aa(lp2624
g1102
a(I48
I64
tp2625
aa(lp2626
g1105
a(I34
I64
tp2627
aa(lp2628
g1108
a(I7
I34
tp2629
aa(lp2630
g1111
a(I23
I153
tp2631
aa(lp2632
g1114
a(I7
I34
tp2633
aa(lp2634
g1117
a(I634
I3360
tp2635
aa(lp2636
g1120
a(I0
I2240
tp2637
aa(lp2638
g1123
a(I0
I6720
tp2639
aa(lp2640
g1126
a(I2252
I147040
tp2641
aa(lp2642
g1129
a(I657
I8000
tp2643
aa(lp2644
g1132
a(I232
I827
tp2645
aa(lp2646
g1135
a(I0
I328
tp2647
aatp2648
Rp2649
aa(lp2650
S'GEMM_Blocked__tileSize_16_i_tileSize_256_loop_jj_1_loop_ii_2_loop_kk_1_loop_i_1_loop_k_2'
p2651
ag0
((lp2652
(lp2653
g1096
aI25823937
aa(lp2654
g1098
aF1.380563467142907
aa(lp2655
g1100
aF0.04060480785714432
aa(lp2656
g1102
a(I38
I64
tp2657
aa(lp2658
g1105
a(I20
I64
tp2659
aa(lp2660
g1108
a(I6
I34
tp2661
aa(lp2662
g1111
a(I23
I153
tp2663
aa(lp2664
g1114
a(I6
I34
tp2665
aa(lp2666
g1117
a(I509
I3360
tp2667
aa(lp2668
g1120
a(I0
I2240
tp2669
aa(lp2670
g1123
a(I0
I6720
tp2671
aa(lp2672
g1126
a(I1814
I104384
tp2673
aa(lp2674
g1129
a(I546
I5824
tp2675
aa(lp2676
g1132
a(I179
I627
tp2677
aa(lp2678
g1135
a(I0
I232
tp2679
aatp2680
Rp2681
aa(lp2682
S'GEMM_Blocked__tileSize_16_i_tileSize_256_loop_jj_1_loop_ii_2_loop_kk_1_loop_i_2_loop_k_1'
p2683
ag0
((lp2684
(lp2685
g1096
aI17506145
aa(lp2686
g1098
aF2.0365182625872227
aa(lp2687
g1100
aF0.05989759595844773
aa(lp2688
g1102
a(I50
I64
tp2689
aa(lp2690
g1105
a(I28
I64
tp2691
aa(lp2692
g1108
a(I8
I34
tp2693
aa(lp2694
g1111
a(I29
I153
tp2695
aa(lp2696
g1114
a(I8
I34
tp2697
aa(lp2698
g1117
a(I655
I3360
tp2699
aa(lp2700
g1120
a(I0
I2240
tp2701
aa(lp2702
g1123
a(I0
I6720
tp2703
aa(lp2704
g1126
a(I2152
I140608
tp2705
aa(lp2706
g1129
a(I606
I7808
tp2707
aa(lp2708
g1132
a(I229
I833
tp2709
aa(lp2710
g1135
a(I0
I312
tp2711
aatp2712
Rp2713
aa(lp2714
S'GEMM_Blocked__tileSize_16_i_tileSize_256_loop_jj_1_loop_ii_2_loop_kk_1_loop_i_2_loop_k_2'
p2715
ag0
((lp2716
(lp2717
g1096
aI12800236
aa(lp2718
g1098
aF2.7852286473468144
aa(lp2719
g1100
aF0.0819184896278475
aa(lp2720
g1102
a(I54
I64
tp2721
aa(lp2722
g1105
a(I36
I64
tp2723
aa(lp2724
g1108
a(I8
I34
tp2725
aa(lp2726
g1111
a(I29
I153
tp2727
aa(lp2728
g1114
a(I8
I34
tp2729
aa(lp2730
g1117
a(I808
I3360
tp2731
aa(lp2732
g1120
a(I0
I2240
tp2733
aa(lp2734
g1123
a(I0
I6720
tp2735
aa(lp2736
g1126
a(I2624
I161472
tp2737
aa(lp2738
g1129
a(I754
I8832
tp2739
aa(lp2740
g1132
a(I261
I929
tp2741
aa(lp2742
g1135
a(I0
I360
tp2743
aatp2744
Rp2745
aa(lp2746
S'GEMM_Blocked__tileSize_16_i_tileSize_256_loop_jj_1_loop_ii_2_loop_kk_2_loop_i_1_loop_k_2'
p2747
ag0
((lp2748
(lp2749
g1096
aI13025035
aa(lp2750
g1098
aF2.737158403029243
aa(lp2751
g1100
aF0.08050465891262479
aa(lp2752
g1102
a(I64
I64
tp2753
aa(lp2754
g1105
a(I36
I64
tp2755
aa(lp2756
g1108
a(I10
I34
tp2757
aa(lp2758
g1111
a(I35
I153
tp2759
aa(lp2760
g1114
a(I10
I34
tp2761
aa(lp2762
g1117
a(I1027
I3360
tp2763
aa(lp2764
g1120
a(I0
I2240
tp2765
aa(lp2766
g1123
a(I0
I6720
tp2767
aa(lp2768
g1126
a(I2884
I179904
tp2769
aa(lp2770
g1129
a(I898
I9984
tp2771
aa(lp2772
g1132
a(I301
I1055
tp2773
aa(lp2774
g1135
a(I0
I400
tp2775
aatp2776
Rp2777
aa(lp2778
S'GEMM_Blocked__tileSize_16_i_tileSize_256_loop_jj_2_loop_ii_1_loop_kk_1_loop_i_1_loop_k_1'
p2779
ag0
((lp2780
(lp2781
g1096
aI34144736
aa(lp2782
g1098
aF1.0441311949226961
aa(lp2783
g1100
aF0.03070974102713812
aa(lp2784
g1102
a(I36
I64
tp2785
aa(lp2786
g1105
a(I16
I64
tp2787
aa(lp2788
g1108
a(I6
I34
tp2789
aa(lp2790
g1111
a(I21
I153
tp2791
aa(lp2792
g1114
a(I6
I34
tp2793
aa(lp2794
g1117
a(I470
I3360
tp2795
aa(lp2796
g1120
a(I0
I2240
tp2797
aa(lp2798
g1123
a(I0
I6720
tp2799
aa(lp2800
g1126
a(I1578
I93952
tp2801
aa(lp2802
g1129
a(I472
I5312
tp2803
aa(lp2804
g1132
a(I161
I569
tp2805
aa(lp2806
g1135
a(I0
I208
tp2807
aatp2808
Rp2809
aa(lp2810
S'GEMM_Blocked__tileSize_16_i_tileSize_256_loop_jj_2_loop_ii_1_loop_kk_1_loop_i_1_loop_k_2'
p2811
ag0
((lp2812
(lp2813
g1096
aI24586004
aa(lp2814
g1098
aF1.4500763930567975
aa(lp2815
g1100
aF0.042649305678141104
aa(lp2816
g1102
a(I38
I64
tp2817
aa(lp2818
g1105
a(I20
I64
tp2819
aa(lp2820
g1108
a(I6
I34
tp2821
aa(lp2822
g1111
a(I21
I153
tp2823
aa(lp2824
g1114
a(I6
I34
tp2825
aa(lp2826
g1117
a(I566
I3360
tp2827
aa(lp2828
g1120
a(I0
I2240
tp2829
aa(lp2830
g1123
a(I0
I6720
tp2831
aa(lp2832
g1126
a(I1814
I104384
tp2833
aa(lp2834
g1129
a(I546
I5824
tp2835
aa(lp2836
g1132
a(I177
I617
tp2837
aa(lp2838
g1135
a(I0
I232
tp2839
aatp2840
Rp2841
aa(lp2842
S'GEMM_Blocked__tileSize_16_i_tileSize_256_loop_jj_2_loop_ii_1_loop_kk_1_loop_i_2_loop_k_2'
p2843
ag0
((lp2844
(lp2845
g1096
aI12714609
aa(lp2846
g1098
aF2.8039858716850827
aa(lp2847
g1100
aF0.08247017269662009
aa(lp2848
g1102
a(I54
I64
tp2849
aa(lp2850
g1105
a(I36
I64
tp2851
aa(lp2852
g1108
a(I8
I34
tp2853
aa(lp2854
g1111
a(I27
I153
tp2855
aa(lp2856
g1114
a(I8
I34
tp2857
aa(lp2858
g1117
a(I781
I3360
tp2859
aa(lp2860
g1120
a(I0
I2240
tp2861
aa(lp2862
g1123
a(I0
I6720
tp2863
aa(lp2864
g1126
a(I2624
I161472
tp2865
aa(lp2866
g1129
a(I754
I8832
tp2867
aa(lp2868
g1132
a(I259
I919
tp2869
aa(lp2870
g1135
a(I0
I360
tp2871
aatp2872
Rp2873
aa(lp2874
S'GEMM_Blocked__tileSize_16_i_tileSize_256_loop_jj_2_loop_ii_1_loop_kk_2_loop_i_1_loop_k_2'
p2875
ag0
((lp2876
(lp2877
g1096
aI12337205
aa(lp2878
g1098
aF2.8897618220658567
aa(lp2879
g1100
aF0.08499299476664285
aa(lp2880
g1102
a(I64
I64
tp2881
aa(lp2882
g1105
a(I36
I64
tp2883
aa(lp2884
g1108
a(I10
I34
tp2885
aa(lp2886
g1111
a(I33
I153
tp2887
aa(lp2888
g1114
a(I10
I34
tp2889
aa(lp2890
g1117
a(I931
I3360
tp2891
aa(lp2892
g1120
a(I0
I2240
tp2893
aa(lp2894
g1123
a(I0
I6720
tp2895
aa(lp2896
g1126
a(I2884
I179904
tp2897
aa(lp2898
g1129
a(I898
I9984
tp2899
aa(lp2900
g1132
a(I299
I1045
tp2901
aa(lp2902
g1135
a(I0
I400
tp2903
aatp2904
Rp2905
aa(lp2906
S'GEMM_Blocked__tileSize_256_i_tileSize_16_loop_jj_1_loop_ii_1_loop_kk_1_loop_i_1_loop_k_2'
p2907
ag0
((lp2908
(lp2909
g1096
aI5572523
aa(lp2910
g1098
aF6.397745509529525
aa(lp2911
g1100
aF0.1881689855743978
aa(lp2912
g1102
a(I19
I64
tp2913
aa(lp2914
g1105
a(I10
I64
tp2915
aa(lp2916
g1108
a(I3
I34
tp2917
aa(lp2918
g1111
a(I11
I153
tp2919
aa(lp2920
g1114
a(I3
I34
tp2921
aa(lp2922
g1117
a(I221
I3360
tp2923
aa(lp2924
g1120
a(I0
I2240
tp2925
aa(lp2926
g1123
a(I0
I6720
tp2927
aa(lp2928
g1126
a(I907
I52192
tp2929
aa(lp2930
g1129
a(I273
I2912
tp2931
aa(lp2932
g1132
a(I89
I311
tp2933
aa(lp2934
g1135
a(I0
I116
tp2935
aatp2936
Rp2937
aa(lp2938
S'GEMM_Blocked__tileSize_256_i_tileSize_16_loop_jj_1_loop_ii_1_loop_kk_1_loop_i_2_loop_k_2'
p2939
ag0
((lp2940
(lp2941
g1096
aI3408851
aa(lp2942
g1098
aF10.45853397523095
aa(lp2943
g1100
aF0.3076039404479691
aa(lp2944
g1102
a(I27
I64
tp2945
aa(lp2946
g1105
a(I18
I64
tp2947
aa(lp2948
g1108
a(I4
I34
tp2949
aa(lp2950
g1111
a(I14
I153
tp2951
aa(lp2952
g1114
a(I4
I34
tp2953
aa(lp2954
g1117
a(I294
I3360
tp2955
aa(lp2956
g1120
a(I0
I2240
tp2957
aa(lp2958
g1123
a(I0
I6720
tp2959
aa(lp2960
g1126
a(I1312
I80736
tp2961
aa(lp2962
g1129
a(I377
I4416
tp2963
aa(lp2964
g1132
a(I130
I462
tp2965
aa(lp2966
g1135
a(I0
I180
tp2967
aatp2968
Rp2969
aa(lp2970
S'GEMM_Blocked__tileSize_256_i_tileSize_16_loop_jj_1_loop_ii_1_loop_kk_2_loop_i_1_loop_k_1'
p2971
ag0
((lp2972
(lp2973
g1096
aI5271241
aa(lp2974
g1098
aF6.763413776755796
aa(lp2975
g1100
aF0.19892393461046456
aa(lp2976
g1102
a(I30
I64
tp2977
aa(lp2978
g1105
a(I14
I64
tp2979
aa(lp2980
g1108
a(I5
I34
tp2981
aa(lp2982
g1111
a(I17
I153
tp2983
aa(lp2984
g1114
a(I5
I34
tp2985
aa(lp2986
g1117
a(I369
I3360
tp2987
aa(lp2988
g1120
a(I0
I2240
tp2989
aa(lp2990
g1123
a(I0
I6720
tp2991
aa(lp2992
g1126
a(I1206
I79520
tp2993
aa(lp2994
g1129
a(I375
I4480
tp2995
aa(lp2996
g1132
a(I134
I477
tp2997
aa(lp2998
g1135
a(I0
I176
tp2999
aatp3000
Rp3001
aa(lp3002
S'GEMM_Blocked__tileSize_256_i_tileSize_16_loop_jj_1_loop_ii_1_loop_kk_2_loop_i_1_loop_k_2'
p3003
ag0
((lp3004
(lp3005
g1096
aI3638520
aa(lp3006
g1098
aF9.798375163528029
aa(lp3007
g1100
aF0.28818750480964783
aa(lp3008
g1102
a(I32
I64
tp3009
aa(lp3010
g1105
a(I18
I64
tp3011
aa(lp3012
g1108
a(I5
I34
tp3013
aa(lp3014
g1111
a(I17
I153
tp3015
aa(lp3016
g1114
a(I5
I34
tp3017
aa(lp3018
g1117
a(I400
I3360
tp3019
aa(lp3020
g1120
a(I0
I2240
tp3021
aa(lp3022
g1123
a(I0
I6720
tp3023
aa(lp3024
g1126
a(I1442
I89952
tp3025
aa(lp3026
g1129
a(I449
I4992
tp3027
aa(lp3028
g1132
a(I150
I525
tp3029
aa(lp3030
g1135
a(I0
I200
tp3031
aatp3032
Rp3033
aa(lp3034
S'GEMM_Blocked__tileSize_256_i_tileSize_16_loop_jj_1_loop_ii_1_loop_kk_2_loop_i_2_loop_k_1'
p3035
ag0
((lp3036
(lp3037
g1096
aI3368261
aa(lp3038
g1098
aF10.584566932313143
aa(lp3039
g1100
aF0.31131079212685714
aa(lp3040
g1102
a(I44
I64
tp3041
aa(lp3042
g1105
a(I26
I64
tp3043
aa(lp3044
g1108
a(I7
I34
tp3045
aa(lp3046
g1111
a(I23
I153
tp3047
aa(lp3048
g1114
a(I7
I34
tp3049
aa(lp3050
g1117
a(I517
I3360
tp3051
aa(lp3052
g1120
a(I0
I2240
tp3053
aa(lp3054
g1123
a(I0
I6720
tp3055
aa(lp3056
g1126
a(I1780
I126176
tp3057
aa(lp3058
g1129
a(I509
I6976
tp3059
aa(lp3060
g1132
a(I200
I731
tp3061
aa(lp3062
g1135
a(I0
I280
tp3063
aatp3064
Rp3065
aa(lp3066
S'GEMM_Blocked__tileSize_256_i_tileSize_16_loop_jj_1_loop_ii_2_loop_kk_1_loop_i_1_loop_k_1'
p3067
ag0
((lp3068
(lp3069
g1096
aI4864954
aa(lp3070
g1098
aF7.328246885787615
aa(lp3071
g1100
aF0.21553667311140043
aa(lp3072
g1102
a(I36
I64
tp3073
aa(lp3074
g1105
a(I16
I64
tp3075
aa(lp3076
g1108
a(I6
I34
tp3077
aa(lp3078
g1111
a(I23
I153
tp3079
aa(lp3080
g1114
a(I6
I34
tp3081
aa(lp3082
g1117
a(I465
I3360
tp3083
aa(lp3084
g1120
a(I0
I2240
tp3085
aa(lp3086
g1123
a(I0
I6720
tp3087
aa(lp3088
g1126
a(I1578
I93952
tp3089
aa(lp3090
g1129
a(I472
I5312
tp3091
aa(lp3092
g1132
a(I163
I579
tp3093
aa(lp3094
g1135
a(I0
I208
tp3095
aatp3096
Rp3097
aa(lp3098
S'GEMM_Blocked__tileSize_256_i_tileSize_16_loop_jj_1_loop_ii_2_loop_kk_1_loop_i_1_loop_k_2'
p3099
ag0
((lp3100
(lp3101
g1096
aI3331849
aa(lp3102
g1098
aF10.700240016879517
aa(lp3103
g1100
aF0.31471294167292696
aa(lp3104
g1102
a(I38
I64
tp3105
aa(lp3106
g1105
a(I20
I64
tp3107
aa(lp3108
g1108
a(I6
I34
tp3109
aa(lp3110
g1111
a(I23
I153
tp3111
aa(lp3112
g1114
a(I6
I34
tp3113
aa(lp3114
g1117
a(I520
I3360
tp3115
aa(lp3116
g1120
a(I0
I2240
tp3117
aa(lp3118
g1123
a(I0
I6720
tp3119
aa(lp3120
g1126
a(I1814
I104384
tp3121
aa(lp3122
g1129
a(I546
I5824
tp3123
aa(lp3124
g1132
a(I179
I627
tp3125
aa(lp3126
g1135
a(I0
I232
tp3127
aatp3128
Rp3129
aa(lp3130
S'GEMM_Blocked__tileSize_256_i_tileSize_16_loop_jj_1_loop_ii_2_loop_kk_1_loop_i_2_loop_k_1'
p3131
ag0
((lp3132
(lp3133
g1096
aI2939744
aa(lp3134
g1098
aF12.127445110866796
aa(lp3135
g1100
aF0.3566895620843175
aa(lp3136
g1102
a(I50
I64
tp3137
aa(lp3138
g1105
a(I28
I64
tp3139
aa(lp3140
g1108
a(I8
I34
tp3141
aa(lp3142
g1111
a(I29
I153
tp3143
aa(lp3144
g1114
a(I8
I34
tp3145
aa(lp3146
g1117
a(I717
I3360
tp3147
aa(lp3148
g1120
a(I0
I2240
tp3149
aa(lp3150
g1123
a(I0
I6720
tp3151
aa(lp3152
g1126
a(I2152
I140608
tp3153
aa(lp3154
g1129
a(I606
I7808
tp3155
aa(lp3156
g1132
a(I229
I833
tp3157
aa(lp3158
g1135
a(I0
I312
tp3159
aatp3160
Rp3161
aa(lp3162
S'GEMM_Blocked__tileSize_256_i_tileSize_16_loop_jj_1_loop_ii_2_loop_kk_2_loop_i_1_loop_k_1'
p3163
ag0
((lp3164
(lp3165
g1096
aI3336106
aa(lp3166
g1098
aF10.686586097683946
aa(lp3167
g1100
aF0.3143113558142337
aa(lp3168
g1102
a(I60
I64
tp3169
aa(lp3170
g1105
a(I28
I64
tp3171
aa(lp3172
g1108
a(I10
I34
tp3173
aa(lp3174
g1111
a(I35
I153
tp3175
aa(lp3176
g1114
a(I10
I34
tp3177
aa(lp3178
g1117
a(I881
I3360
tp3179
aa(lp3180
g1120
a(I0
I2240
tp3181
aa(lp3182
g1123
a(I0
I6720
tp3183
aa(lp3184
g1126
a(I2412
I159040
tp3185
aa(lp3186
g1129
a(I750
I8960
tp3187
aa(lp3188
g1132
a(I269
I959
tp3189
aa(lp3190
g1135
a(I0
I352
tp3191
aatp3192
Rp3193
aa(lp3194
S'GEMM_Blocked__tileSize_256_i_tileSize_16_loop_jj_1_loop_ii_2_loop_kk_2_loop_i_1_loop_k_2'
p3195
ag0
((lp3196
(lp3197
g1096
aI2518525
aa(lp3198
g1098
aF14.15573956978787
aa(lp3199
g1100
aF0.4163452814643491
aa(lp3200
g1102
a(I64
I64
tp3201
aa(lp3202
g1105
a(I36
I64
tp3203
aa(lp3204
g1108
a(I10
I34
tp3205
aa(lp3206
g1111
a(I35
I153
tp3207
aa(lp3208
g1114
a(I10
I34
tp3209
aa(lp3210
g1117
a(I920
I3360
tp3211
aa(lp3212
g1120
a(I0
I2240
tp3213
aa(lp3214
g1123
a(I0
I6720
tp3215
aa(lp3216
g1126
a(I2884
I179904
tp3217
aa(lp3218
g1129
a(I898
I9984
tp3219
aa(lp3220
g1132
a(I301
I1055
tp3221
aa(lp3222
g1135
a(I0
I400
tp3223
aatp3224
Rp3225
aa(lp3226
S'GEMM_Blocked__tileSize_256_i_tileSize_16_loop_jj_2_loop_ii_1_loop_kk_1_loop_i_1_loop_k_1'
p3227
ag0
((lp3228
(lp3229
g1096
aI5120110
aa(lp3230
g1098
aF6.963050403213994
aa(lp3231
g1100
aF0.20479560009452924
aa(lp3232
g1102
a(I36
I64
tp3233
aa(lp3234
g1105
a(I16
I64
tp3235
aa(lp3236
g1108
a(I6
I34
tp3237
aa(lp3238
g1111
a(I21
I153
tp3239
aa(lp3240
g1114
a(I6
I34
tp3241
aa(lp3242
g1117
a(I448
I3360
tp3243
aa(lp3244
g1120
a(I0
I2240
tp3245
aa(lp3246
g1123
a(I0
I6720
tp3247
aa(lp3248
g1126
a(I1578
I93952
tp3249
aa(lp3250
g1129
a(I472
I5312
tp3251
aa(lp3252
g1132
a(I161
I569
tp3253
aa(lp3254
g1135
a(I0
I208
tp3255
aatp3256
Rp3257
aa(lp3258
S'GEMM_Blocked__tileSize_256_i_tileSize_16_loop_jj_2_loop_ii_1_loop_kk_1_loop_i_2_loop_k_1'
p3259
ag0
((lp3260
(lp3261
g1096
aI3243147
aa(lp3262
g1098
aF10.992897947579927
aa(lp3263
g1100
aF0.3233205278699979
aa(lp3264
g1102
a(I50
I64
tp3265
aa(lp3266
g1105
a(I28
I64
tp3267
aa(lp3268
g1108
a(I8
I34
tp3269
aa(lp3270
g1111
a(I27
I153
tp3271
aa(lp3272
g1114
a(I8
I34
tp3273
aa(lp3274
g1117
a(I711
I3360
tp3275
aa(lp3276
g1120
a(I0
I2240
tp3277
aa(lp3278
g1123
a(I0
I6720
tp3279
aa(lp3280
g1126
a(I2152
I140608
tp3281
aa(lp3282
g1129
a(I606
I7808
tp3283
aa(lp3284
g1132
a(I227
I823
tp3285
aa(lp3286
g1135
a(I0
I312
tp3287
aatp3288
Rp3289
aa(lp3290
S'GEMM_Blocked__tileSize_256_i_tileSize_16_loop_jj_2_loop_ii_1_loop_kk_1_loop_i_2_loop_k_2'
p3291
ag0
((lp3292
(lp3293
g1096
aI2465940
aa(lp3294
g1098
aF14.457603996853129
aa(lp3295
g1100
aF0.42522364696626846
aa(lp3296
g1102
a(I54
I64
tp3297
aa(lp3298
g1105
a(I36
I64
tp3299
aa(lp3300
g1108
a(I8
I34
tp3301
aa(lp3302
g1111
a(I27
I153
tp3303
aa(lp3304
g1114
a(I8
I34
tp3305
aa(lp3306
g1117
a(I818
I3360
tp3307
aa(lp3308
g1120
a(I0
I2240
tp3309
aa(lp3310
g1123
a(I0
I6720
tp3311
aa(lp3312
g1126
a(I2624
I161472
tp3313
aa(lp3314
g1129
a(I754
I8832
tp3315
aa(lp3316
g1132
a(I259
I919
tp3317
aa(lp3318
g1135
a(I0
I360
tp3319
aatp3320
Rp3321
aa(lp3322
S'GEMM_Blocked__tileSize_256_i_tileSize_16_loop_jj_2_loop_ii_1_loop_kk_2_loop_i_1_loop_k_1'
p3323
ag0
((lp3324
(lp3325
g1096
aI3314015
aa(lp3326
g1098
aF10.757822158318534
aa(lp3327
g1100
aF0.3164065340681922
aa(lp3328
g1102
a(I60
I64
tp3329
aa(lp3330
g1105
a(I28
I64
tp3331
aa(lp3332
g1108
a(I10
I34
tp3333
aa(lp3334
g1111
a(I33
I153
tp3335
aa(lp3336
g1114
a(I10
I34
tp3337
aa(lp3338
g1117
a(I855
I3360
tp3339
aa(lp3340
g1120
a(I0
I2240
tp3341
aa(lp3342
g1123
a(I0
I6720
tp3343
aa(lp3344
g1126
a(I2412
I159040
tp3345
aa(lp3346
g1129
a(I750
I8960
tp3347
aa(lp3348
g1132
a(I267
I949
tp3349
aa(lp3350
g1135
a(I0
I352
tp3351
aatp3352
Rp3353
aa(lp3354
S'GEMM_Blocked__tileSize_256_i_tileSize_256_loop_jj_1_loop_ii_1_loop_kk_1_loop_i_1_loop_k_1'
p3355
ag0
((lp3356
(lp3357
g1096
aI7766298
aa(lp3358
g1098
aF0.5400647773237648
aa(lp3359
g1100
aF0.1350161943309412
aa(lp3360
g1102
a(I18
I64
tp3361
aa(lp3362
g1105
a(I8
I64
tp3363
aa(lp3364
g1108
a(I3
I34
tp3365
aa(lp3366
g1111
a(I11
I153
tp3367
aa(lp3368
g1114
a(I3
I34
tp3369
aa(lp3370
g1117
a(I188
I3360
tp3371
aa(lp3372
g1120
a(I0
I2240
tp3373
aa(lp3374
g1123
a(I0
I6720
tp3375
aa(lp3376
g1126
a(I789
I46976
tp3377
aa(lp3378
g1129
a(I236
I2656
tp3379
aa(lp3380
g1132
a(I81
I287
tp3381
aa(lp3382
g1135
a(I0
I104
tp3383
aatp3384
Rp3385
aa(lp3386
S'GEMM_Blocked__tileSize_256_i_tileSize_256_loop_jj_1_loop_ii_1_loop_kk_1_loop_i_1_loop_k_2'
p3387
ag0
((lp3388
(lp3389
g1096
aI4510843
aa(lp3390
g1098
aF0.9298270855358965
aa(lp3391
g1100
aF0.23245677138397414
aa(lp3392
g1102
a(I19
I64
tp3393
aa(lp3394
g1105
a(I10
I64
tp3395
aa(lp3396
g1108
a(I3
I34
tp3397
aa(lp3398
g1111
a(I11
I153
tp3399
aa(lp3400
g1114
a(I3
I34
tp3401
aa(lp3402
g1117
a(I161
I3360
tp3403
aa(lp3404
g1120
a(I0
I2240
tp3405
aa(lp3406
g1123
a(I0
I6720
tp3407
aa(lp3408
g1126
a(I907
I52192
tp3409
aa(lp3410
g1129
a(I273
I2912
tp3411
aa(lp3412
g1132
a(I89
I311
tp3413
aa(lp3414
g1135
a(I0
I116
tp3415
aatp3416
Rp3417
aa(lp3418
S'GEMM_Blocked__tileSize_256_i_tileSize_256_loop_jj_1_loop_ii_1_loop_kk_1_loop_i_2_loop_k_1'
p3419
ag0
((lp3420
(lp3421
g1096
aI3947718
aa(lp3422
g1098
aF1.062462921616995
aa(lp3423
g1100
aF0.26561573040424874
aa(lp3424
g1102
a(I25
I64
tp3425
aa(lp3426
g1105
a(I14
I64
tp3427
aa(lp3428
g1108
a(I4
I34
tp3429
aa(lp3430
g1111
a(I14
I153
tp3431
aa(lp3432
g1114
a(I4
I34
tp3433
aa(lp3434
g1117
a(I308
I3360
tp3435
aa(lp3436
g1120
a(I0
I2240
tp3437
aa(lp3438
g1123
a(I0
I6720
tp3439
aa(lp3440
g1126
a(I1076
I70304
tp3441
aa(lp3442
g1129
a(I303
I3904
tp3443
aa(lp3444
g1132
a(I114
I414
tp3445
aa(lp3446
g1135
a(I0
I156
tp3447
aatp3448
Rp3449
aa(lp3450
S'GEMM_Blocked__tileSize_256_i_tileSize_256_loop_jj_1_loop_ii_1_loop_kk_1_loop_i_2_loop_k_2'
p3451
ag0
((lp3452
(lp3453
g1096
aI2319805
aa(lp3454
g1098
aF1.80804162418824
aa(lp3455
g1100
aF0.45201040604706
aa(lp3456
g1102
a(I27
I64
tp3457
aa(lp3458
g1105
a(I18
I64
tp3459
aa(lp3460
g1108
a(I4
I34
tp3461
aa(lp3462
g1111
a(I14
I153
tp3463
aa(lp3464
g1114
a(I4
I34
tp3465
aa(lp3466
g1117
a(I355
I3360
tp3467
aa(lp3468
g1120
a(I0
I2240
tp3469
aa(lp3470
g1123
a(I0
I6720
tp3471
aa(lp3472
g1126
a(I1312
I80736
tp3473
aa(lp3474
g1129
a(I377
I4416
tp3475
aa(lp3476
g1132
a(I130
I462
tp3477
aa(lp3478
g1135
a(I0
I180
tp3479
aatp3480
Rp3481
aa(lp3482
S'GEMM_Blocked__tileSize_256_i_tileSize_256_loop_jj_1_loop_ii_1_loop_kk_2_loop_i_1_loop_k_1'
p3483
ag0
((lp3484
(lp3485
g1096
aI3968536
aa(lp3486
g1098
aF1.0568894927499712
aa(lp3487
g1100
aF0.2642223731874928
aa(lp3488
g1102
a(I30
I64
tp3489
aa(lp3490
g1105
a(I14
I64
tp3491
aa(lp3492
g1108
a(I5
I34
tp3493
aa(lp3494
g1111
a(I17
I153
tp3495
aa(lp3496
g1114
a(I5
I34
tp3497
aa(lp3498
g1117
a(I341
I3360
tp3499
aa(lp3500
g1120
a(I0
I2240
tp3501
aa(lp3502
g1123
a(I0
I6720
tp3503
aa(lp3504
g1126
a(I1206
I79520
tp3505
aa(lp3506
g1129
a(I375
I4480
tp3507
aa(lp3508
g1132
a(I134
I477
tp3509
aa(lp3510
g1135
a(I0
I176
tp3511
aatp3512
Rp3513
aa(lp3514
S'GEMM_Blocked__tileSize_256_i_tileSize_256_loop_jj_1_loop_ii_1_loop_kk_2_loop_i_1_loop_k_2'
p3515
ag0
((lp3516
(lp3517
g1096
aI2333046
aa(lp3518
g1098
aF1.7977802409382413
aa(lp3519
g1100
aF0.4494450602345603
aa(lp3520
g1102
a(I32
I64
tp3521
aa(lp3522
g1105
a(I18
I64
tp3523
aa(lp3524
g1108
a(I5
I34
tp3525
aa(lp3526
g1111
a(I17
I153
tp3527
aa(lp3528
g1114
a(I5
I34
tp3529
aa(lp3530
g1117
a(I396
I3360
tp3531
aa(lp3532
g1120
a(I0
I2240
tp3533
aa(lp3534
g1123
a(I0
I6720
tp3535
aa(lp3536
g1126
a(I1442
I89952
tp3537
aa(lp3538
g1129
a(I449
I4992
tp3539
aa(lp3540
g1132
a(I150
I525
tp3541
aa(lp3542
g1135
a(I0
I200
tp3543
aatp3544
Rp3545
aa(lp3546
S'GEMM_Blocked__tileSize_256_i_tileSize_256_loop_jj_1_loop_ii_1_loop_kk_2_loop_i_2_loop_k_1'
p3547
ag0
((lp3548
(lp3549
g1096
aI2056265
aa(lp3550
g1098
aF2.039768220535777
aa(lp3551
g1100
aF0.5099420551339443
aa(lp3552
g1102
a(I44
I64
tp3553
aa(lp3554
g1105
a(I26
I64
tp3555
aa(lp3556
g1108
a(I7
I34
tp3557
aa(lp3558
g1111
a(I23
I153
tp3559
aa(lp3560
g1114
a(I7
I34
tp3561
aa(lp3562
g1117
a(I521
I3360
tp3563
aa(lp3564
g1120
a(I0
I2240
tp3565
aa(lp3566
g1123
a(I0
I6720
tp3567
aa(lp3568
g1126
a(I1780
I126176
tp3569
aa(lp3570
g1129
a(I509
I6976
tp3571
aa(lp3572
g1132
a(I200
I731
tp3573
aa(lp3574
g1135
a(I0
I280
tp3575
aatp3576
Rp3577
aa(lp3578
S'GEMM_Blocked__tileSize_256_i_tileSize_256_loop_jj_1_loop_ii_1_loop_kk_1_loop_i_1_loop_k_3'
p3579
ag0
((lp3580
(lp3581
g1096
aI3096349
aa(lp3582
g1098
aF1.3545966556095583
aa(lp3583
g1100
aF0.3386491639023896
aa(lp3584
g1102
a(I20
I64
tp3585
aa(lp3586
g1105
a(I12
I64
tp3587
aa(lp3588
g1108
a(I3
I34
tp3589
aa(lp3590
g1111
a(I11
I153
tp3591
aa(lp3592
g1114
a(I3
I34
tp3593
aa(lp3594
g1117
a(I193
I3360
tp3595
aa(lp3596
g1120
a(I0
I2240
tp3597
aa(lp3598
g1123
a(I0
I6720
tp3599
aa(lp3600
g1126
a(I1041
I57408
tp3601
aa(lp3602
g1129
a(I310
I3168
tp3603
aa(lp3604
g1132
a(I97
I335
tp3605
aa(lp3606
g1135
a(I0
I128
tp3607
aatp3608
Rp3609
aa(lp3610
S'GEMM_Blocked__tileSize_256_i_tileSize_256_loop_jj_1_loop_ii_1_loop_kk_1_loop_i_1_loop_k_4'
p3611
ag0
((lp3612
(lp3613
g1096
aI2353981
aa(lp3614
g1098
aF1.781791781666887
aa(lp3615
g1100
aF0.4454479454167217
aa(lp3616
g1102
a(I21
I64
tp3617
aa(lp3618
g1105
a(I14
I64
tp3619
aa(lp3620
g1108
a(I3
I34
tp3621
aa(lp3622
g1111
a(I11
I153
tp3623
aa(lp3624
g1114
a(I3
I34
tp3625
aa(lp3626
g1117
a(I196
I3360
tp3627
aa(lp3628
g1120
a(I0
I2240
tp3629
aa(lp3630
g1123
a(I0
I6720
tp3631
aa(lp3632
g1126
a(I1191
I62624
tp3633
aa(lp3634
g1129
a(I347
I3424
tp3635
aa(lp3636
g1132
a(I105
I359
tp3637
aa(lp3638
g1135
a(I0
I140
tp3639
aatp3640
Rp3641
aa(lp3642
S'GEMM_Blocked__tileSize_256_i_tileSize_256_loop_jj_1_loop_ii_1_loop_kk_1_loop_i_2_loop_k_3'
p3643
ag0
((lp3644
(lp3645
g1096
aI1612503
aa(lp3646
g1098
aF2.6011139204082103
aa(lp3647
g1100
aF0.6502784801020526
aa(lp3648
g1102
a(I29
I64
tp3649
aa(lp3650
g1105
a(I22
I64
tp3651
aa(lp3652
g1108
a(I4
I34
tp3653
aa(lp3654
g1111
a(I14
I153
tp3655
aa(lp3656
g1114
a(I4
I34
tp3657
aa(lp3658
g1117
a(I391
I3360
tp3659
aa(lp3660
g1120
a(I0
I2240
tp3661
aa(lp3662
g1123
a(I0
I6720
tp3663
aa(lp3664
g1126
a(I1580
I91168
tp3665
aa(lp3666
g1129
a(I451
I4928
tp3667
aa(lp3668
g1132
a(I146
I510
tp3669
aa(lp3670
g1135
a(I0
I204
tp3671
aatp3672
Rp3673
aa(lp3674
S'GEMM_Blocked__tileSize_256_i_tileSize_256_loop_jj_1_loop_ii_1_loop_kk_1_loop_i_3_loop_k_1'
p3675
ag0
((lp3676
(lp3677
g1096
aI2693928
aa(lp3678
g1098
aF1.5569473274712613
aa(lp3679
g1100
aF0.3892368318678153
aa(lp3680
g1102
a(I32
I64
tp3681
aa(lp3682
g1105
a(I20
I64
tp3683
aa(lp3684
g1108
a(I5
I34
tp3685
aa(lp3686
g1111
a(I17
I153
tp3687
aa(lp3688
g1114
a(I5
I34
tp3689
aa(lp3690
g1117
a(I328
I3360
tp3691
aa(lp3692
g1120
a(I0
I2240
tp3693
aa(lp3694
g1123
a(I0
I6720
tp3695
aa(lp3696
g1126
a(I1363
I93632
tp3697
aa(lp3698
g1129
a(I370
I5152
tp3699
aa(lp3700
g1132
a(I147
I541
tp3701
aa(lp3702
g1135
a(I0
I208
tp3703
aatp3704
Rp3705
aa(lp3706
S'GEMM_Blocked__tileSize_256_i_tileSize_256_loop_jj_1_loop_ii_1_loop_kk_1_loop_i_3_loop_k_3'
p3707
ag0
((lp3708
(lp3709
g1096
aI1132475
aa(lp3710
g1098
aF3.703661449480121
aa(lp3711
g1100
aF0.9259153623700302
aa(lp3712
g1102
a(I38
I64
tp3713
aa(lp3714
g1105
a(I32
I64
tp3715
aa(lp3716
g1108
a(I5
I34
tp3717
aa(lp3718
g1111
a(I17
I153
tp3719
aa(lp3720
g1114
a(I5
I34
tp3721
aa(lp3722
g1117
a(I553
I3360
tp3723
aa(lp3724
g1120
a(I0
I2240
tp3725
aa(lp3726
g1123
a(I0
I6720
tp3727
aa(lp3728
g1126
a(I2119
I124928
tp3729
aa(lp3730
g1129
a(I592
I6688
tp3731
aa(lp3732
g1132
a(I195
I685
tp3733
aa(lp3734
g1135
a(I0
I280
tp3735
aatp3736
Rp3737
aa(lp3738
S'GEMM_Blocked__tileSize_256_i_tileSize_256_loop_jj_1_loop_ii_1_loop_kk_1_loop_i_3_loop_k_4'
p3739
ag0
((lp3740
(lp3741
g1096
aI884363
aa(lp3742
g1098
aF4.742740254850101
aa(lp3743
g1100
aF1.1856850637125254
aa(lp3744
g1102
a(I41
I64
tp3745
aa(lp3746
g1105
a(I38
I64
tp3747
aa(lp3748
g1108
a(I5
I34
tp3749
aa(lp3750
g1111
a(I17
I153
tp3751
aa(lp3752
g1114
a(I5
I34
tp3753
aa(lp3754
g1117
a(I577
I3360
tp3755
aa(lp3756
g1120
a(I0
I2240
tp3757
aa(lp3758
g1123
a(I0
I6720
tp3759
aa(lp3760
g1126
a(I2569
I140576
tp3761
aa(lp3762
g1129
a(I703
I7456
tp3763
aa(lp3764
g1132
a(I219
I757
tp3765
aa(lp3766
g1135
a(I0
I316
tp3767
aatp3768
Rp3769
aa(lp3770
S'GEMM_Blocked__tileSize_256_i_tileSize_256_loop_jj_1_loop_ii_1_loop_kk_1_loop_i_4_loop_k_1'
p3771
ag0
((lp3772
(lp3773
g1096
aI2030451
aa(lp3774
g1098
aF2.065700674382194
aa(lp3775
g1100
aF0.5164251685955485
aa(lp3776
g1102
a(I39
I64
tp3777
aa(lp3778
g1105
a(I26
I64
tp3779
aa(lp3780
g1108
a(I6
I34
tp3781
aa(lp3782
g1111
a(I20
I153
tp3783
aa(lp3784
g1114
a(I6
I34
tp3785
aa(lp3786
g1117
a(I519
I3360
tp3787
aa(lp3788
g1120
a(I0
I2240
tp3789
aa(lp3790
g1123
a(I0
I6720
tp3791
aa(lp3792
g1126
a(I1650
I116960
tp3793
aa(lp3794
g1129
a(I437
I6400
tp3795
aa(lp3796
g1132
a(I180
I668
tp3797
aa(lp3798
g1135
a(I0
I260
tp3799
aatp3800
Rp3801
aa(lp3802
S'GEMM_Blocked__tileSize_256_i_tileSize_256_loop_jj_1_loop_ii_1_loop_kk_1_loop_i_4_loop_k_2'
p3803
ag0
((lp3804
(lp3805
g1096
aI1226891
aa(lp3806
g1098
aF3.4186443620500926
aa(lp3807
g1100
aF0.8546610905125231
aa(lp3808
g1102
a(I43
I64
tp3809
aa(lp3810
g1105
a(I34
I64
tp3811
aa(lp3812
g1108
a(I6
I34
tp3813
aa(lp3814
g1111
a(I20
I153
tp3815
aa(lp3816
g1114
a(I6
I34
tp3817
aa(lp3818
g1117
a(I584
I3360
tp3819
aa(lp3820
g1120
a(I0
I2240
tp3821
aa(lp3822
g1123
a(I0
I6720
tp3823
aa(lp3824
g1126
a(I2122
I137824
tp3825
aa(lp3826
g1129
a(I585
I7424
tp3827
aa(lp3828
g1132
a(I212
I764
tp3829
aa(lp3830
g1135
a(I0
I308
tp3831
aatp3832
Rp3833
aa(lp3834
S'GEMM_Blocked__tileSize_256_i_tileSize_256_loop_jj_1_loop_ii_1_loop_kk_1_loop_i_4_loop_k_3'
p3835
ag0
((lp3836
(lp3837
g1096
aI875881
aa(lp3838
g1098
aF4.788668780348015
aa(lp3839
g1100
aF1.1971671950870038
aa(lp3840
g1102
a(I47
I64
tp3841
aa(lp3842
g1105
a(I42
I64
tp3843
aa(lp3844
g1108
a(I6
I34
tp3845
aa(lp3846
g1111
a(I20
I153
tp3847
aa(lp3848
g1114
a(I6
I34
tp3849
aa(lp3850
g1117
a(I693
I3360
tp3851
aa(lp3852
g1120
a(I0
I2240
tp3853
aa(lp3854
g1123
a(I0
I6720
tp3855
aa(lp3856
g1126
a(I2658
I158688
tp3857
aa(lp3858
g1129
a(I733
I8448
tp3859
aa(lp3860
g1132
a(I244
I860
tp3861
aa(lp3862
g1135
a(I0
I356
tp3863
aatp3864
Rp3865
aatp3866
Rp3867
aatp3868
Rp3869
aatp3870
Rp3871
.