ccollections
OrderedDict
p0
((lp1
(lp2
S'DotProduct'
p3
ag0
((lp4
tp5
Rp6
aa(lp7
S'TPCHQ6'
p8
ag0
((lp9
(lp10
S'96000'
p11
ag0
((lp12
(lp13
S'TPCHQ6_96000_outerPar_1_tileSize_3000'
p14
ag0
((lp15
(lp16
S'cycle'
p17
aI33435
aa(lp18
S'avgbw'
p19
aF45.93988335576491
aa(lp20
S'pcuUtil'
p21
a(I5
I64
tp22
aa(lp23
S'mcuUtil'
p24
a(I4
I64
tp25
aa(lp26
S'scuUtil'
p27
a(I4
I34
tp28
aa(lp29
S'ocuUtil'
p30
a(I7
I153
tp31
aa(lp32
S'mcUtil'
p33
a(I4
I34
tp34
aa(lp35
S'slinkUtil'
p36
a(I27
I3360
tp37
aa(lp38
S'vlinkUtil'
p39
a(I1
I2240
tp40
aa(lp41
S'clinkUtil'
p42
a(I0
I6720
tp43
aa(lp44
S'totalRegUtil'
p45
a(I632
I19712
tp46
aa(lp47
S'totalFUUtil'
p48
a(I240
I1120
tp49
aa(lp50
S'totalSBufUtil'
p51
a(I21
I139
tp52
aa(lp53
S'totalVBufUtil'
p54
a(I3
I36
tp55
aatp56
Rp57
aa(lp58
S'TPCHQ6_96000_outerPar_1_tileSize_6000'
p59
ag0
((lp60
(lp61
g17
aI31633
aa(lp62
g19
aF48.55688679543515
aa(lp63
g21
a(I5
I64
tp64
aa(lp65
g24
a(I4
I64
tp66
aa(lp67
g27
a(I4
I34
tp68
aa(lp69
g30
a(I7
I153
tp70
aa(lp71
g33
a(I4
I34
tp72
aa(lp73
g36
a(I22
I3360
tp74
aa(lp75
g39
a(I1
I2240
tp76
aa(lp77
g42
a(I0
I6720
tp78
aa(lp79
g45
a(I632
I19712
tp80
aa(lp81
g48
a(I240
I1120
tp82
aa(lp83
g51
a(I21
I139
tp84
aa(lp85
g54
a(I3
I36
tp86
aatp87
Rp88
aa(lp89
S'TPCHQ6_96000_outerPar_3_tileSize_3000'
p90
ag0
((lp91
(lp92
g17
aI33381
aa(lp93
g19
aF46.01419969443696
aa(lp94
g21
a(I11
I64
tp95
aa(lp96
g24
a(I12
I64
tp97
aa(lp98
g27
a(I12
I34
tp99
aa(lp100
g30
a(I17
I153
tp101
aa(lp102
g33
a(I12
I34
tp103
aa(lp104
g36
a(I112
I3360
tp105
aa(lp106
g39
a(I4
I2240
tp107
aa(lp108
g42
a(I0
I6720
tp109
aa(lp110
g45
a(I1873
I52992
tp111
aa(lp112
g48
a(I713
I2976
tp113
aa(lp114
g51
a(I57
I365
tp115
aa(lp116
g54
a(I9
I92
tp117
aatp118
Rp119
aa(lp120
S'TPCHQ6_96000_outerPar_3_tileSize_6000'
p121
ag0
((lp122
(lp123
g17
aI32712
aa(lp124
g19
aF46.95524578136463
aa(lp125
g21
a(I11
I64
tp126
aa(lp127
g24
a(I12
I64
tp128
aa(lp129
g27
a(I12
I34
tp130
aa(lp131
g30
a(I17
I153
tp132
aa(lp133
g33
a(I12
I34
tp134
aa(lp135
g36
a(I95
I3360
tp136
aa(lp137
g39
a(I4
I2240
tp138
aa(lp139
g42
a(I0
I6720
tp140
aa(lp141
g45
a(I1873
I52992
tp142
aa(lp143
g48
a(I713
I2976
tp144
aa(lp145
g51
a(I57
I365
tp146
aa(lp147
g54
a(I9
I92
tp148
aatp149
Rp150
aa(lp151
S'TPCHQ6_96000_outerPar_5_tileSize_3000'
p152
ag0
((lp153
(lp154
g17
aI32514
aa(lp155
g19
aF47.24118841114596
aa(lp156
g21
a(I17
I64
tp157
aa(lp158
g24
a(I20
I64
tp159
aa(lp160
g27
a(I20
I34
tp161
aa(lp162
g30
a(I27
I153
tp163
aa(lp164
g33
a(I20
I34
tp165
aa(lp166
g36
a(I273
I3360
tp167
aa(lp168
g39
a(I7
I2240
tp169
aa(lp170
g42
a(I0
I6720
tp171
aa(lp172
g45
a(I3118
I86272
tp173
aa(lp174
g48
a(I1187
I4832
tp175
aa(lp176
g51
a(I93
I591
tp177
aa(lp178
g54
a(I15
I148
tp179
aatp180
Rp181
aa(lp182
S'TPCHQ6_96000_outerPar_6_tileSize_400'
p183
ag0
((lp184
(lp185
g17
aI36846
aa(lp186
g19
aF41.687021657710474
aa(lp187
g21
a(I20
I64
tp188
aa(lp189
g24
a(I24
I64
tp190
aa(lp191
g27
a(I24
I34
tp192
aa(lp193
g30
a(I32
I153
tp194
aa(lp195
g33
a(I24
I34
tp196
aa(lp197
g36
a(I339
I3360
tp198
aa(lp199
g39
a(I11
I2240
tp200
aa(lp201
g42
a(I0
I6720
tp202
aa(lp203
g45
a(I3742
I102912
tp204
aa(lp205
g48
a(I1424
I5760
tp206
aa(lp207
g51
a(I111
I704
tp208
aa(lp209
g54
a(I18
I176
tp210
aatp211
Rp212
aa(lp213
S'TPCHQ6_96000_outerPar_6_tileSize_1200'
p214
ag0
((lp215
(lp216
g17
aI33181
aa(lp217
g19
aF46.291552394442604
aa(lp218
g21
a(I20
I64
tp219
aa(lp220
g24
a(I24
I64
tp221
aa(lp222
g27
a(I24
I34
tp223
aa(lp224
g30
a(I32
I153
tp225
aa(lp226
g33
a(I24
I34
tp227
aa(lp228
g36
a(I337
I3360
tp229
aa(lp230
g39
a(I10
I2240
tp231
aa(lp232
g42
a(I0
I6720
tp233
aa(lp234
g45
a(I3742
I102912
tp235
aa(lp236
g48
a(I1424
I5760
tp237
aa(lp238
g51
a(I111
I704
tp239
aa(lp240
g54
a(I18
I176
tp241
aatp242
Rp243
aa(lp244
S'TPCHQ6_96000_outerPar_6_tileSize_2000'
p245
ag0
((lp246
(lp247
g17
aI33123
aa(lp248
g19
aF46.37261117652386
aa(lp249
g21
a(I20
I64
tp250
aa(lp251
g24
a(I24
I64
tp252
aa(lp253
g27
a(I24
I34
tp254
aa(lp255
g30
a(I32
I153
tp256
aa(lp257
g33
a(I24
I34
tp258
aa(lp259
g36
a(I337
I3360
tp260
aa(lp261
g39
a(I11
I2240
tp262
aa(lp263
g42
a(I0
I6720
tp264
aa(lp265
g45
a(I3742
I102912
tp266
aa(lp267
g48
a(I1424
I5760
tp268
aa(lp269
g51
a(I111
I704
tp270
aa(lp271
g54
a(I18
I176
tp272
aatp273
Rp274
aa(lp275
S'TPCHQ6_96000_outerPar_6_tileSize_2800'
p276
ag0
((lp277
(lp278
g17
aI32621
aa(lp279
g19
aF47.08623279482543
aa(lp280
g21
a(I20
I64
tp281
aa(lp282
g24
a(I24
I64
tp283
aa(lp284
g27
a(I24
I34
tp285
aa(lp286
g30
a(I32
I153
tp287
aa(lp288
g33
a(I24
I34
tp289
aa(lp290
g36
a(I344
I3360
tp291
aa(lp292
g39
a(I10
I2240
tp293
aa(lp294
g42
a(I0
I6720
tp295
aa(lp296
g45
a(I3742
I102912
tp297
aa(lp298
g48
a(I1424
I5760
tp299
aa(lp300
g51
a(I111
I704
tp301
aa(lp302
g54
a(I18
I176
tp303
aatp304
Rp305
aa(lp306
S'TPCHQ6_96000_outerPar_6_tileSize_3600'
p307
ag0
((lp308
(lp309
g17
aI32361
aa(lp310
g19
aF47.464540650783356
aa(lp311
g21
a(I20
I64
tp312
aa(lp313
g24
a(I24
I64
tp314
aa(lp315
g27
a(I24
I34
tp316
aa(lp317
g30
a(I32
I153
tp318
aa(lp319
g33
a(I24
I34
tp320
aa(lp321
g36
a(I343
I3360
tp322
aa(lp323
g39
a(I11
I2240
tp324
aa(lp325
g42
a(I0
I6720
tp326
aa(lp327
g45
a(I3742
I102912
tp328
aa(lp329
g48
a(I1424
I5760
tp330
aa(lp331
g51
a(I111
I704
tp332
aa(lp333
g54
a(I18
I176
tp334
aatp335
Rp336
aa(lp337
S'TPCHQ6_96000_outerPar_8_tileSize_400'
p338
ag0
((lp339
(lp340
g17
aI35423
aa(lp341
g19
aF43.36165768003839
aa(lp342
g21
a(I27
I64
tp343
aa(lp344
g24
a(I32
I64
tp345
aa(lp346
g27
a(I32
I34
tp347
aa(lp348
g30
a(I42
I153
tp349
aa(lp350
g33
a(I32
I34
tp351
aa(lp352
g36
a(I479
I3360
tp353
aa(lp354
g39
a(I17
I2240
tp355
aa(lp356
g42
a(I0
I6720
tp357
aa(lp358
g45
a(I4993
I137728
tp359
aa(lp360
g48
a(I1898
I7712
tp361
aa(lp362
g51
a(I149
I938
tp363
aa(lp364
g54
a(I24
I236
tp365
aatp366
Rp367
aa(lp368
S'TPCHQ6_96000_outerPar_8_tileSize_1200'
p369
ag0
((lp370
(lp371
g17
aI33196
aa(lp372
g19
aF46.27063501626702
aa(lp373
g21
a(I27
I64
tp374
aa(lp375
g24
a(I32
I64
tp376
aa(lp377
g27
a(I32
I34
tp378
aa(lp379
g30
a(I42
I153
tp380
aa(lp381
g33
a(I32
I34
tp382
aa(lp383
g36
a(I533
I3360
tp384
aa(lp385
g39
a(I34
I2240
tp386
aa(lp387
g42
a(I0
I6720
tp388
aa(lp389
g45
a(I4993
I137728
tp390
aa(lp391
g48
a(I1898
I7712
tp392
aa(lp393
g51
a(I149
I938
tp394
aa(lp395
g54
a(I24
I236
tp396
aatp397
Rp398
aa(lp399
S'TPCHQ6_96000_outerPar_8_tileSize_2000'
p400
ag0
((lp401
(lp402
g17
aI31906
aa(lp403
g19
aF48.14141540776029
aa(lp404
g21
a(I27
I64
tp405
aa(lp406
g24
a(I32
I64
tp407
aa(lp408
g27
a(I32
I34
tp409
aa(lp410
g30
a(I42
I153
tp411
aa(lp412
g33
a(I32
I34
tp413
aa(lp414
g36
a(I502
I3360
tp415
aa(lp416
g39
a(I26
I2240
tp417
aa(lp418
g42
a(I0
I6720
tp419
aa(lp420
g45
a(I4993
I137728
tp421
aa(lp422
g48
a(I1898
I7712
tp423
aa(lp424
g51
a(I149
I938
tp425
aa(lp426
g54
a(I24
I236
tp427
aatp428
Rp429
aa(lp430
S'TPCHQ6_96000_outerPar_8_tileSize_2800'
p431
ag0
((lp432
(lp433
g17
aI32844
aa(lp434
g19
aF46.766532700036535
aa(lp435
g21
a(I27
I64
tp436
aa(lp437
g24
a(I32
I64
tp438
aa(lp439
g27
a(I32
I34
tp440
aa(lp441
g30
a(I42
I153
tp442
aa(lp443
g33
a(I32
I34
tp444
aa(lp445
g36
a(I481
I3360
tp446
aa(lp447
g39
a(I17
I2240
tp448
aa(lp449
g42
a(I0
I6720
tp450
aa(lp451
g45
a(I4993
I137728
tp452
aa(lp453
g48
a(I1898
I7712
tp454
aa(lp455
g51
a(I149
I938
tp456
aa(lp457
g54
a(I24
I236
tp458
aatp459
Rp460
aa(lp461
S'TPCHQ6_96000_outerPar_2_tileSize_16'
p462
ag0
((lp463
(lp464
g17
aI405792
aa(lp465
g19
aF3.785190442394133
aa(lp466
g21
a(I8
I64
tp467
aa(lp468
g24
a(I8
I64
tp469
aa(lp470
g27
a(I8
I34
tp471
aa(lp472
g30
a(I12
I153
tp473
aa(lp474
g33
a(I8
I34
tp475
aa(lp476
g36
a(I105
I3360
tp477
aa(lp478
g39
a(I3
I2240
tp479
aa(lp480
g42
a(I0
I6720
tp481
aa(lp482
g45
a(I1252
I36352
tp483
aa(lp484
g48
a(I476
I2048
tp485
aa(lp486
g51
a(I39
I252
tp487
aa(lp488
g54
a(I6
I64
tp489
aatp490
Rp491
aa(lp492
S'TPCHQ6_96000_outerPar_2_tileSize_48'
p493
ag0
((lp494
(lp495
g17
aI137843
aa(lp496
g19
aF11.143112091292268
aa(lp497
g21
a(I8
I64
tp498
aa(lp499
g24
a(I8
I64
tp500
aa(lp501
g27
a(I8
I34
tp502
aa(lp503
g30
a(I12
I153
tp504
aa(lp505
g33
a(I8
I34
tp506
aa(lp507
g36
a(I75
I3360
tp508
aa(lp509
g39
a(I2
I2240
tp510
aa(lp511
g42
a(I0
I6720
tp512
aa(lp513
g45
a(I1252
I36352
tp514
aa(lp515
g48
a(I476
I2048
tp516
aa(lp517
g51
a(I39
I252
tp518
aa(lp519
g54
a(I6
I64
tp520
aatp521
Rp522
aa(lp523
S'TPCHQ6_96000_outerPar_2_tileSize_80'
p524
ag0
((lp525
(lp526
g17
aI99063
aa(lp527
g19
aF15.505284515914116
aa(lp528
g21
a(I8
I64
tp529
aa(lp530
g24
a(I8
I64
tp531
aa(lp532
g27
a(I8
I34
tp533
aa(lp534
g30
a(I12
I153
tp535
aa(lp536
g33
a(I8
I34
tp537
aa(lp538
g36
a(I74
I3360
tp539
aa(lp540
g39
a(I2
I2240
tp541
aa(lp542
g42
a(I0
I6720
tp543
aa(lp544
g45
a(I1252
I36352
tp545
aa(lp546
g48
a(I476
I2048
tp547
aa(lp548
g51
a(I39
I252
tp549
aa(lp550
g54
a(I6
I64
tp551
aatp552
Rp553
aa(lp554
S'TPCHQ6_96000_outerPar_2_tileSize_112'
p555
ag0
((lp556
(lp557
g17
aI78569
aa(lp558
g19
aF19.549695172396238
aa(lp559
g21
a(I8
I64
tp560
aa(lp561
g24
a(I8
I64
tp562
aa(lp563
g27
a(I8
I34
tp564
aa(lp565
g30
a(I12
I153
tp566
aa(lp567
g33
a(I8
I34
tp568
aa(lp569
g36
a(I70
I3360
tp570
aa(lp571
g39
a(I2
I2240
tp572
aa(lp573
g42
a(I0
I6720
tp574
aa(lp575
g45
a(I1252
I36352
tp576
aa(lp577
g48
a(I476
I2048
tp578
aa(lp579
g51
a(I39
I252
tp580
aa(lp581
g54
a(I6
I64
tp582
aatp583
Rp584
aa(lp585
S'TPCHQ6_96000_outerPar_2_tileSize_144'
p586
ag0
((lp587
(lp588
g17
aI64694
aa(lp589
g19
aF23.7425418122237
aa(lp590
g21
a(I8
I64
tp591
aa(lp592
g24
a(I8
I64
tp593
aa(lp594
g27
a(I8
I34
tp595
aa(lp596
g30
a(I12
I153
tp597
aa(lp598
g33
a(I8
I34
tp599
aa(lp600
g36
a(I80
I3360
tp601
aa(lp602
g39
a(I2
I2240
tp603
aa(lp604
g42
a(I0
I6720
tp605
aa(lp606
g45
a(I1252
I36352
tp607
aa(lp608
g48
a(I476
I2048
tp609
aa(lp610
g51
a(I39
I252
tp611
aa(lp612
g54
a(I6
I64
tp613
aatp614
Rp615
aa(lp616
S'TPCHQ6_96000_outerPar_2_tileSize_176'
p617
ag0
((lp618
(lp619
g17
aI59850
aa(lp620
g19
aF25.664160401002505
aa(lp621
g21
a(I8
I64
tp622
aa(lp623
g24
a(I8
I64
tp624
aa(lp625
g27
a(I8
I34
tp626
aa(lp627
g30
a(I12
I153
tp628
aa(lp629
g33
a(I8
I34
tp630
aa(lp631
g36
a(I66
I3360
tp632
aa(lp633
g39
a(I2
I2240
tp634
aa(lp635
g42
a(I0
I6720
tp636
aa(lp637
g45
a(I1252
I36352
tp638
aa(lp639
g48
a(I476
I2048
tp640
aa(lp641
g51
a(I39
I252
tp642
aa(lp643
g54
a(I6
I64
tp644
aatp645
Rp646
aa(lp647
S'TPCHQ6_96000_outerPar_2_tileSize_208'
p648
ag0
((lp649
(lp650
g17
aI55820
aa(lp651
g19
aF27.517018989609458
aa(lp652
g21
a(I8
I64
tp653
aa(lp654
g24
a(I8
I64
tp655
aa(lp656
g27
a(I8
I34
tp657
aa(lp658
g30
a(I12
I153
tp659
aa(lp660
g33
a(I8
I34
tp661
aa(lp662
g36
a(I69
I3360
tp663
aa(lp664
g39
a(I2
I2240
tp665
aa(lp666
g42
a(I0
I6720
tp667
aa(lp668
g45
a(I1252
I36352
tp669
aa(lp670
g48
a(I476
I2048
tp671
aa(lp672
g51
a(I39
I252
tp673
aa(lp674
g54
a(I6
I64
tp675
aatp676
Rp677
aa(lp678
S'TPCHQ6_96000_outerPar_2_tileSize_240'
p679
ag0
((lp680
(lp681
g17
aI51062
aa(lp682
g19
aF30.081077905291608
aa(lp683
g21
a(I8
I64
tp684
aa(lp685
g24
a(I8
I64
tp686
aa(lp687
g27
a(I8
I34
tp688
aa(lp689
g30
a(I12
I153
tp690
aa(lp691
g33
a(I8
I34
tp692
aa(lp693
g36
a(I80
I3360
tp694
aa(lp695
g39
a(I2
I2240
tp696
aa(lp697
g42
a(I0
I6720
tp698
aa(lp699
g45
a(I1252
I36352
tp700
aa(lp701
g48
a(I476
I2048
tp702
aa(lp703
g51
a(I39
I252
tp704
aa(lp705
g54
a(I6
I64
tp706
aatp707
Rp708
aa(lp709
S'TPCHQ6_96000_outerPar_4_tileSize_16'
p710
ag0
((lp711
(lp712
g17
aI201953
aa(lp713
g19
aF7.605730046099835
aa(lp714
g21
a(I14
I64
tp715
aa(lp716
g24
a(I16
I64
tp717
aa(lp718
g27
a(I16
I34
tp719
aa(lp720
g30
a(I22
I153
tp721
aa(lp722
g33
a(I16
I34
tp723
aa(lp724
g36
a(I217
I3360
tp725
aa(lp726
g39
a(I5
I2240
tp727
aa(lp728
g42
a(I0
I6720
tp729
aa(lp730
g45
a(I2495
I69632
tp731
aa(lp732
g48
a(I950
I3904
tp733
aa(lp734
g51
a(I75
I478
tp735
aa(lp736
g54
a(I12
I120
tp737
aatp738
Rp739
aa(lp740
S'TPCHQ6_96000_outerPar_4_tileSize_48'
p741
ag0
((lp742
(lp743
g17
aI84737
aa(lp744
g19
aF18.126674298122424
aa(lp745
g21
a(I14
I64
tp746
aa(lp747
g24
a(I16
I64
tp748
aa(lp749
g27
a(I16
I34
tp750
aa(lp751
g30
a(I22
I153
tp752
aa(lp753
g33
a(I16
I34
tp754
aa(lp755
g36
a(I207
I3360
tp756
aa(lp757
g39
a(I5
I2240
tp758
aa(lp759
g42
a(I0
I6720
tp760
aa(lp761
g45
a(I2495
I69632
tp762
aa(lp763
g48
a(I950
I3904
tp764
aa(lp765
g51
a(I75
I478
tp766
aa(lp767
g54
a(I12
I120
tp768
aatp769
Rp770
aa(lp771
S'TPCHQ6_96000_outerPar_4_tileSize_80'
p772
ag0
((lp773
(lp774
g17
aI60710
aa(lp775
g19
aF25.300609454785047
aa(lp776
g21
a(I14
I64
tp777
aa(lp778
g24
a(I16
I64
tp779
aa(lp780
g27
a(I16
I34
tp781
aa(lp782
g30
a(I22
I153
tp783
aa(lp784
g33
a(I16
I34
tp785
aa(lp786
g36
a(I186
I3360
tp787
aa(lp788
g39
a(I5
I2240
tp789
aa(lp790
g42
a(I0
I6720
tp791
aa(lp792
g45
a(I2495
I69632
tp793
aa(lp794
g48
a(I950
I3904
tp795
aa(lp796
g51
a(I75
I478
tp797
aa(lp798
g54
a(I12
I120
tp799
aatp800
Rp801
aa(lp802
S'TPCHQ6_96000_outerPar_4_tileSize_112'
p803
ag0
((lp804
(lp805
g17
aI53686
aa(lp806
g19
aF28.610811012181944
aa(lp807
g21
a(I14
I64
tp808
aa(lp809
g24
a(I16
I64
tp810
aa(lp811
g27
a(I16
I34
tp812
aa(lp813
g30
a(I22
I153
tp814
aa(lp815
g33
a(I16
I34
tp816
aa(lp817
g36
a(I202
I3360
tp818
aa(lp819
g39
a(I5
I2240
tp820
aa(lp821
g42
a(I0
I6720
tp822
aa(lp823
g45
a(I2495
I69632
tp824
aa(lp825
g48
a(I950
I3904
tp826
aa(lp827
g51
a(I75
I478
tp828
aa(lp829
g54
a(I12
I120
tp830
aatp831
Rp832
aa(lp833
S'TPCHQ6_96000_outerPar_6_tileSize_16'
p834
ag0
((lp835
(lp836
g17
aI164316
aa(lp837
g19
aF9.347841963046813
aa(lp838
g21
a(I20
I64
tp839
aa(lp840
g24
a(I24
I64
tp841
aa(lp842
g27
a(I24
I34
tp843
aa(lp844
g30
a(I32
I153
tp845
aa(lp846
g33
a(I24
I34
tp847
aa(lp848
g36
a(I375
I3360
tp849
aa(lp850
g39
a(I11
I2240
tp851
aa(lp852
g42
a(I0
I6720
tp853
aa(lp854
g45
a(I3742
I102912
tp855
aa(lp856
g48
a(I1424
I5760
tp857
aa(lp858
g51
a(I111
I704
tp859
aa(lp860
g54
a(I18
I176
tp861
aatp862
Rp863
aa(lp864
S'TPCHQ6_96000_outerPar_6_tileSize_48'
p865
ag0
((lp866
(lp867
g17
aI68913
aa(lp868
g19
aF22.28897305297985
aa(lp869
g21
a(I20
I64
tp870
aa(lp871
g24
a(I24
I64
tp872
aa(lp873
g27
a(I24
I34
tp874
aa(lp875
g30
a(I32
I153
tp876
aa(lp877
g33
a(I24
I34
tp878
aa(lp879
g36
a(I348
I3360
tp880
aa(lp881
g39
a(I10
I2240
tp882
aa(lp883
g42
a(I0
I6720
tp884
aa(lp885
g45
a(I3742
I102912
tp886
aa(lp887
g48
a(I1424
I5760
tp888
aa(lp889
g51
a(I111
I704
tp890
aa(lp891
g54
a(I18
I176
tp892
aatp893
Rp894
aa(lp895
S'TPCHQ6_96000_outerPar_6_tileSize_80'
p896
ag0
((lp897
(lp898
g17
aI49357
aa(lp899
g19
aF31.120205847194928
aa(lp900
g21
a(I20
I64
tp901
aa(lp902
g24
a(I24
I64
tp903
aa(lp904
g27
a(I24
I34
tp905
aa(lp906
g30
a(I32
I153
tp907
aa(lp908
g33
a(I24
I34
tp909
aa(lp910
g36
a(I347
I3360
tp911
aa(lp912
g39
a(I11
I2240
tp913
aa(lp914
g42
a(I0
I6720
tp915
aa(lp916
g45
a(I3742
I102912
tp917
aa(lp918
g48
a(I1424
I5760
tp919
aa(lp920
g51
a(I111
I704
tp921
aa(lp922
g54
a(I18
I176
tp923
aatp924
Rp925
aa(lp926
S'TPCHQ6_96000_outerPar_8_tileSize_16'
p927
ag0
((lp928
(lp929
g17
aI133521
aa(lp930
g19
aF11.503808389691509
aa(lp931
g21
a(I27
I64
tp932
aa(lp933
g24
a(I32
I64
tp934
aa(lp935
g27
a(I32
I34
tp936
aa(lp937
g30
a(I42
I153
tp938
aa(lp939
g33
a(I32
I34
tp940
aa(lp941
g36
a(I495
I3360
tp942
aa(lp943
g39
a(I17
I2240
tp944
aa(lp945
g42
a(I0
I6720
tp946
aa(lp947
g45
a(I4993
I137728
tp948
aa(lp949
g48
a(I1898
I7712
tp950
aa(lp951
g51
a(I149
I938
tp952
aa(lp953
g54
a(I24
I236
tp954
aatp955
Rp956
aa(lp957
S'TPCHQ6_96000_outerPar_8_tileSize_48'
p958
ag0
((lp959
(lp960
g17
aI54641
aa(lp961
g19
aF28.1107593199246
aa(lp962
g21
a(I27
I64
tp963
aa(lp964
g24
a(I32
I64
tp965
aa(lp966
g27
a(I32
I34
tp967
aa(lp968
g30
a(I42
I153
tp969
aa(lp970
g33
a(I32
I34
tp971
aa(lp972
g36
a(I507
I3360
tp973
aa(lp974
g39
a(I19
I2240
tp975
aa(lp976
g42
a(I0
I6720
tp977
aa(lp978
g45
a(I4993
I137728
tp979
aa(lp980
g48
a(I1898
I7712
tp981
aa(lp982
g51
a(I149
I938
tp983
aa(lp984
g54
a(I24
I236
tp985
aatp986
Rp987
aatp988
Rp989
aatp990
Rp991
aa(lp992
S'GDA'
p993
ag0
((lp994
(lp995
S'19200'
p996
ag0
((lp997
tp998
Rp999
aatp1000
Rp1001
aa(lp1002
S'BlackScholes'
p1003
ag0
((lp1004
(lp1005
S'1966080'
p1006
ag0
((lp1007
(lp1008
S'BlackScholes_1966080_outerPar_1_tileSize_1024'
p1009
ag0
((lp1010
(lp1011
S'cycle'
p1012
aI1248537
aa(lp1013
S'avgbw'
p1014
aF44.091797039254736
aa(lp1015
S'pcuUtil'
p1016
a(I37
I64
tp1017
aa(lp1018
S'mcuUtil'
p1019
a(I7
I64
tp1020
aa(lp1021
S'scuUtil'
p1022
a(I7
I34
tp1023
aa(lp1024
S'ocuUtil'
p1025
a(I9
I153
tp1026
aa(lp1027
S'mcUtil'
p1028
a(I7
I34
tp1029
aa(lp1030
S'slinkUtil'
p1031
a(I125
I3360
tp1032
aa(lp1033
S'vlinkUtil'
p1034
a(I154
I2240
tp1035
aa(lp1036
S'clinkUtil'
p1037
a(I0
I6720
tp1038
aa(lp1039
S'totalRegUtil'
p1040
a(I9069
I77888
tp1041
aa(lp1042
S'totalFUUtil'
p1043
a(I2821
I4672
tp1044
aa(lp1045
S'totalSBufUtil'
p1046
a(I37
I453
tp1047
aa(lp1048
S'totalVBufUtil'
p1049
a(I96
I176
tp1050
aatp1051
Rp1052
aa(lp1053
S'BlackScholes_1966080_outerPar_1_tileSize_2048'
p1054
ag0
((lp1055
(lp1056
g1012
aI1167681
aa(lp1057
g1014
aF47.14493085012088
aa(lp1058
g1016
a(I37
I64
tp1059
aa(lp1060
g1019
a(I7
I64
tp1061
aa(lp1062
g1022
a(I7
I34
tp1063
aa(lp1064
g1025
a(I9
I153
tp1065
aa(lp1066
g1028
a(I7
I34
tp1067
aa(lp1068
g1031
a(I111
I3360
tp1069
aa(lp1070
g1034
a(I186
I2240
tp1071
aa(lp1072
g1037
a(I0
I6720
tp1073
aa(lp1074
g1040
a(I9069
I77888
tp1075
aa(lp1076
g1043
a(I2821
I4672
tp1077
aa(lp1078
g1046
a(I37
I453
tp1079
aa(lp1080
g1049
a(I96
I176
tp1081
aatp1082
Rp1083
aa(lp1084
S'BlackScholes_1966080_outerPar_1_tileSize_3072'
p1085
ag0
((lp1086
(lp1087
g1012
aI1238092
aa(lp1088
g1014
aF44.46377167447976
aa(lp1089
g1016
a(I37
I64
tp1090
aa(lp1091
g1019
a(I7
I64
tp1092
aa(lp1093
g1022
a(I7
I34
tp1094
aa(lp1095
g1025
a(I9
I153
tp1096
aa(lp1097
g1028
a(I7
I34
tp1098
aa(lp1099
g1031
a(I152
I3360
tp1100
aa(lp1101
g1034
a(I162
I2240
tp1102
aa(lp1103
g1037
a(I0
I6720
tp1104
aa(lp1105
g1040
a(I9069
I77888
tp1106
aa(lp1107
g1043
a(I2821
I4672
tp1108
aa(lp1109
g1046
a(I37
I453
tp1110
aa(lp1111
g1049
a(I96
I176
tp1112
aatp1113
Rp1114
aa(lp1115
S'BlackScholes_1966080_outerPar_1_tileSize_4096'
p1116
ag0
((lp1117
(lp1118
g1012
aI1150591
aa(lp1119
g1014
aF47.845185648071286
aa(lp1120
g1016
a(I37
I64
tp1121
aa(lp1122
g1019
a(I7
I64
tp1123
aa(lp1124
g1022
a(I7
I34
tp1125
aa(lp1126
g1025
a(I9
I153
tp1127
aa(lp1128
g1028
a(I7
I34
tp1129
aa(lp1130
g1031
a(I128
I3360
tp1131
aa(lp1132
g1034
a(I154
I2240
tp1133
aa(lp1134
g1037
a(I0
I6720
tp1135
aa(lp1136
g1040
a(I9069
I77888
tp1137
aa(lp1138
g1043
a(I2821
I4672
tp1139
aa(lp1140
g1046
a(I37
I453
tp1141
aa(lp1142
g1049
a(I96
I176
tp1143
aatp1144
Rp1145
aa(lp1146
S'BlackScholes_1966080_outerPar_1_tileSize_5120'
p1147
ag0
((lp1148
(lp1149
g1012
aI1123589
aa(lp1150
g1014
aF48.994997281034266
aa(lp1151
g1016
a(I37
I64
tp1152
aa(lp1153
g1019
a(I7
I64
tp1154
aa(lp1155
g1022
a(I7
I34
tp1156
aa(lp1157
g1025
a(I9
I153
tp1158
aa(lp1159
g1028
a(I7
I34
tp1160
aa(lp1161
g1031
a(I116
I3360
tp1162
aa(lp1163
g1034
a(I173
I2240
tp1164
aa(lp1165
g1037
a(I0
I6720
tp1166
aa(lp1167
g1040
a(I9069
I77888
tp1168
aa(lp1169
g1043
a(I2821
I4672
tp1170
aa(lp1171
g1046
a(I37
I453
tp1172
aa(lp1173
g1049
a(I96
I176
tp1174
aatp1175
Rp1176
aa(lp1177
S'BlackScholes_1966080_outerPar_1_tileSize_6144'
p1178
ag0
((lp1179
(lp1180
g1012
aI1118236
aa(lp1181
g1014
aF49.229536520019025
aa(lp1182
g1016
a(I37
I64
tp1183
aa(lp1184
g1019
a(I7
I64
tp1185
aa(lp1186
g1022
a(I7
I34
tp1187
aa(lp1188
g1025
a(I9
I153
tp1189
aa(lp1190
g1028
a(I7
I34
tp1191
aa(lp1192
g1031
a(I114
I3360
tp1193
aa(lp1194
g1034
a(I194
I2240
tp1195
aa(lp1196
g1037
a(I0
I6720
tp1197
aa(lp1198
g1040
a(I9069
I77888
tp1199
aa(lp1200
g1043
a(I2821
I4672
tp1201
aa(lp1202
g1046
a(I37
I453
tp1203
aa(lp1204
g1049
a(I96
I176
tp1205
aatp1206
Rp1207
aa(lp1208
S'BlackScholes_1966080_outerPar_1_tileSize_7168'
p1209
ag0
((lp1210
(lp1211
g1012
aI1116949
aa(lp1212
g1014
aF49.286261055786795
aa(lp1213
g1016
a(I37
I64
tp1214
aa(lp1215
g1019
a(I7
I64
tp1216
aa(lp1217
g1022
a(I7
I34
tp1218
aa(lp1219
g1025
a(I9
I153
tp1220
aa(lp1221
g1028
a(I7
I34
tp1222
aa(lp1223
g1031
a(I103
I3360
tp1224
aa(lp1225
g1034
a(I195
I2240
tp1226
aa(lp1227
g1037
a(I0
I6720
tp1228
aa(lp1229
g1040
a(I9069
I77888
tp1230
aa(lp1231
g1043
a(I2821
I4672
tp1232
aa(lp1233
g1046
a(I37
I453
tp1234
aa(lp1235
g1049
a(I96
I176
tp1236
aatp1237
Rp1238
aa(lp1239
S'BlackScholes_1966080_outerPar_1_tileSize_8192'
p1240
ag0
((lp1241
(lp1242
g1012
aI1114544
aa(lp1243
g1014
aF49.39261258415997
aa(lp1244
g1016
a(I37
I64
tp1245
aa(lp1246
g1019
a(I7
I64
tp1247
aa(lp1248
g1022
a(I7
I34
tp1249
aa(lp1250
g1025
a(I9
I153
tp1251
aa(lp1252
g1028
a(I7
I34
tp1253
aa(lp1254
g1031
a(I98
I3360
tp1255
aa(lp1256
g1034
a(I196
I2240
tp1257
aa(lp1258
g1037
a(I0
I6720
tp1259
aa(lp1260
g1040
a(I9069
I77888
tp1261
aa(lp1262
g1043
a(I2821
I4672
tp1263
aa(lp1264
g1046
a(I37
I453
tp1265
aa(lp1266
g1049
a(I96
I176
tp1267
aatp1268
Rp1269
aa(lp1270
S'BlackScholes_1966080_outerPar_1_tileSize_16384'
p1271
ag0
((lp1272
(lp1273
g1012
aI1106333
aa(lp1274
g1014
aF49.75919546827222
aa(lp1275
g1016
a(I37
I64
tp1276
aa(lp1277
g1019
a(I7
I64
tp1278
aa(lp1279
g1022
a(I7
I34
tp1280
aa(lp1281
g1025
a(I9
I153
tp1282
aa(lp1283
g1028
a(I7
I34
tp1284
aa(lp1285
g1031
a(I116
I3360
tp1286
aa(lp1287
g1034
a(I191
I2240
tp1288
aa(lp1289
g1037
a(I0
I6720
tp1290
aa(lp1291
g1040
a(I9069
I80464
tp1292
aa(lp1293
g1043
a(I2821
I4784
tp1294
aa(lp1295
g1046
a(I37
I453
tp1296
aa(lp1297
g1049
a(I96
I176
tp1298
aatp1299
Rp1300
aa(lp1301
S'BlackScholes_1966080_outerPar_1_tileSize_32768'
p1302
ag0
((lp1303
(lp1304
g1012
aI1090177
aa(lp1305
g1014
aF50.49660743163725
aa(lp1306
g1016
a(I37
I64
tp1307
aa(lp1308
g1019
a(I7
I64
tp1309
aa(lp1310
g1022
a(I7
I34
tp1311
aa(lp1312
g1025
a(I9
I153
tp1313
aa(lp1314
g1028
a(I7
I34
tp1315
aa(lp1316
g1031
a(I120
I3360
tp1317
aa(lp1318
g1034
a(I199
I2240
tp1319
aa(lp1320
g1037
a(I0
I6720
tp1321
aa(lp1322
g1040
a(I9069
I80464
tp1323
aa(lp1324
g1043
a(I2821
I4784
tp1325
aa(lp1326
g1046
a(I37
I453
tp1327
aa(lp1328
g1049
a(I96
I176
tp1329
aatp1330
Rp1331
aa(lp1332
S'BlackScholes_1966080_outerPar_1_tileSize_49152'
p1333
ag0
((lp1334
(lp1335
g1012
aI1094698
aa(lp1336
g1014
aF50.288061182170786
aa(lp1337
g1016
a(I37
I64
tp1338
aa(lp1339
g1019
a(I7
I64
tp1340
aa(lp1341
g1022
a(I7
I34
tp1342
aa(lp1343
g1025
a(I9
I153
tp1344
aa(lp1345
g1028
a(I7
I34
tp1346
aa(lp1347
g1031
a(I122
I3360
tp1348
aa(lp1349
g1034
a(I178
I2240
tp1350
aa(lp1351
g1037
a(I0
I6720
tp1352
aa(lp1353
g1040
a(I9069
I80464
tp1354
aa(lp1355
g1043
a(I2821
I4784
tp1356
aa(lp1357
g1046
a(I37
I453
tp1358
aa(lp1359
g1049
a(I96
I176
tp1360
aatp1361
Rp1362
aa(lp1363
S'BlackScholes_1966080_outerPar_1_tileSize_65536'
p1364
ag0
((lp1365
(lp1366
g1012
aI1103476
aa(lp1367
g1014
aF49.888026563332595
aa(lp1368
g1016
a(I37
I64
tp1369
aa(lp1370
g1019
a(I7
I64
tp1371
aa(lp1372
g1022
a(I7
I34
tp1373
aa(lp1374
g1025
a(I9
I153
tp1375
aa(lp1376
g1028
a(I7
I34
tp1377
aa(lp1378
g1031
a(I118
I3360
tp1379
aa(lp1380
g1034
a(I166
I2240
tp1381
aa(lp1382
g1037
a(I0
I6720
tp1383
aa(lp1384
g1040
a(I9069
I80464
tp1385
aa(lp1386
g1043
a(I2821
I4784
tp1387
aa(lp1388
g1046
a(I37
I453
tp1389
aa(lp1390
g1049
a(I96
I176
tp1391
aatp1392
Rp1393
aa(lp1394
S'BlackScholes_1966080_outerPar_1_tileSize_81920'
p1395
ag0
((lp1396
(lp1397
g1012
aI1104239
aa(lp1398
g1014
aF49.85355525388979
aa(lp1399
g1016
a(I37
I64
tp1400
aa(lp1401
g1019
a(I7
I64
tp1402
aa(lp1403
g1022
a(I7
I34
tp1404
aa(lp1405
g1025
a(I9
I153
tp1406
aa(lp1407
g1028
a(I7
I34
tp1408
aa(lp1409
g1031
a(I118
I3360
tp1410
aa(lp1411
g1034
a(I213
I2240
tp1412
aa(lp1413
g1037
a(I0
I6720
tp1414
aa(lp1415
g1040
a(I9069
I80464
tp1416
aa(lp1417
g1043
a(I2821
I4784
tp1418
aa(lp1419
g1046
a(I37
I453
tp1420
aa(lp1421
g1049
a(I96
I176
tp1422
aatp1423
Rp1424
aa(lp1425
S'BlackScholes_1966080_outerPar_1_tileSize_98304'
p1426
ag0
((lp1427
(lp1428
g1012
aI1098941
aa(lp1429
g1014
aF50.0938994905095
aa(lp1430
g1016
a(I37
I64
tp1431
aa(lp1432
g1019
a(I7
I64
tp1433
aa(lp1434
g1022
a(I7
I34
tp1435
aa(lp1436
g1025
a(I9
I153
tp1437
aa(lp1438
g1028
a(I7
I34
tp1439
aa(lp1440
g1031
a(I122
I3360
tp1441
aa(lp1442
g1034
a(I172
I2240
tp1443
aa(lp1444
g1037
a(I0
I6720
tp1445
aa(lp1446
g1040
a(I9069
I80464
tp1447
aa(lp1448
g1043
a(I2821
I4784
tp1449
aa(lp1450
g1046
a(I37
I453
tp1451
aa(lp1452
g1049
a(I96
I176
tp1453
aatp1454
Rp1455
aa(lp1456
S'BlackScholes_1966080_outerPar_1_tileSize_131072'
p1457
ag0
((lp1458
(lp1459
g1012
aI1095237
aa(lp1460
g1014
aF50.26331287200852
aa(lp1461
g1016
a(I37
I64
tp1462
aa(lp1463
g1019
a(I7
I64
tp1464
aa(lp1465
g1022
a(I7
I34
tp1466
aa(lp1467
g1025
a(I9
I153
tp1468
aa(lp1469
g1028
a(I7
I34
tp1470
aa(lp1471
g1031
a(I129
I3360
tp1472
aa(lp1473
g1034
a(I155
I2240
tp1474
aa(lp1475
g1037
a(I0
I6720
tp1476
aa(lp1477
g1040
a(I9069
I80464
tp1478
aa(lp1479
g1043
a(I2821
I4784
tp1480
aa(lp1481
g1046
a(I37
I453
tp1482
aa(lp1483
g1049
a(I96
I176
tp1484
aatp1485
Rp1486
aatp1487
Rp1488
aatp1489
Rp1490
aa(lp1491
S'Kmeans_plasticine'
p1492
ag0
((lp1493
(lp1494
S'1_6144'
p1495
ag0
((lp1496
(lp1497
S'Kmeans_plasticine_1_6144_tileSize_128'
p1498
ag0
((lp1499
(lp1500
g1012
aI5963667
aa(lp1501
g1014
aF0.39818722272722473
aa(lp1502
g1016
a(I8
I64
tp1503
aa(lp1504
g1019
a(I11
I64
tp1505
aa(lp1506
g1022
a(I3
I34
tp1507
aa(lp1508
g1025
a(I9
I153
tp1509
aa(lp1510
g1028
a(I3
I34
tp1511
aa(lp1512
g1031
a(I57
I3360
tp1513
aa(lp1514
g1034
a(I6
I2240
tp1515
aa(lp1516
g1037
a(I0
I6720
tp1517
aa(lp1518
g1040
a(I605
I37136
tp1519
aa(lp1520
g1043
a(I249
I1936
tp1521
aa(lp1522
g1046
a(I34
I221
tp1523
aa(lp1524
g1049
a(I1
I76
tp1525
aatp1526
Rp1527
aa(lp1528
S'Kmeans_plasticine_1_6144_tileSize_256'
p1529
ag0
((lp1530
(lp1531
g1012
aI5950139
aa(lp1532
g1014
aF0.3990925254015074
aa(lp1533
g1016
a(I8
I64
tp1534
aa(lp1535
g1019
a(I11
I64
tp1536
aa(lp1537
g1022
a(I3
I34
tp1538
aa(lp1539
g1025
a(I9
I153
tp1540
aa(lp1541
g1028
a(I3
I34
tp1542
aa(lp1543
g1031
a(I48
I3360
tp1544
aa(lp1545
g1034
a(I7
I2240
tp1546
aa(lp1547
g1037
a(I0
I6720
tp1548
aa(lp1549
g1040
a(I605
I37136
tp1550
aa(lp1551
g1043
a(I249
I1936
tp1552
aa(lp1553
g1046
a(I34
I221
tp1554
aa(lp1555
g1049
a(I1
I76
tp1556
aatp1557
Rp1558
aa(lp1559
S'Kmeans_plasticine_1_6144_tileSize_384'
p1560
ag0
((lp1561
(lp1562
g1012
aI5946286
aa(lp1563
g1014
aF0.3993511243825137
aa(lp1564
g1016
a(I8
I64
tp1565
aa(lp1566
g1019
a(I11
I64
tp1567
aa(lp1568
g1022
a(I3
I34
tp1569
aa(lp1570
g1025
a(I9
I153
tp1571
aa(lp1572
g1028
a(I3
I34
tp1573
aa(lp1574
g1031
a(I54
I3360
tp1575
aa(lp1576
g1034
a(I2
I2240
tp1577
aa(lp1578
g1037
a(I0
I6720
tp1579
aa(lp1580
g1040
a(I605
I37136
tp1581
aa(lp1582
g1043
a(I249
I1936
tp1583
aa(lp1584
g1046
a(I34
I221
tp1585
aa(lp1586
g1049
a(I1
I76
tp1587
aatp1588
Rp1589
aa(lp1590
S'Kmeans_plasticine_1_6144_tileSize_512'
p1591
ag0
((lp1592
(lp1593
g1012
aI5945063
aa(lp1594
g1014
aF0.39943327766249065
aa(lp1595
g1016
a(I8
I64
tp1596
aa(lp1597
g1019
a(I11
I64
tp1598
aa(lp1599
g1022
a(I3
I34
tp1600
aa(lp1601
g1025
a(I9
I153
tp1602
aa(lp1603
g1028
a(I3
I34
tp1604
aa(lp1605
g1031
a(I62
I3360
tp1606
aa(lp1607
g1034
a(I9
I2240
tp1608
aa(lp1609
g1037
a(I0
I6720
tp1610
aa(lp1611
g1040
a(I605
I37136
tp1612
aa(lp1613
g1043
a(I249
I1936
tp1614
aa(lp1615
g1046
a(I34
I221
tp1616
aa(lp1617
g1049
a(I1
I76
tp1618
aatp1619
Rp1620
aa(lp1621
S'Kmeans_plasticine_1_6144_tileSize_1024'
p1622
ag0
((lp1623
(lp1624
g1012
aI5945409
aa(lp1625
g1014
aF0.3994100321777695
aa(lp1626
g1016
a(I8
I64
tp1627
aa(lp1628
g1019
a(I11
I64
tp1629
aa(lp1630
g1022
a(I3
I34
tp1631
aa(lp1632
g1025
a(I9
I153
tp1633
aa(lp1634
g1028
a(I3
I34
tp1635
aa(lp1636
g1031
a(I54
I3360
tp1637
aa(lp1638
g1034
a(I1
I2240
tp1639
aa(lp1640
g1037
a(I0
I6720
tp1641
aa(lp1642
g1040
a(I605
I33088
tp1643
aa(lp1644
g1043
a(I249
I1760
tp1645
aa(lp1646
g1046
a(I34
I221
tp1647
aa(lp1648
g1049
a(I1
I76
tp1649
aatp1650
Rp1651
aatp1652
Rp1653
aatp1654
Rp1655
aa(lp1656
S'PageRank_plasticine'
p1657
ag0
((lp1658
(lp1659
S'1_491520_0.125'
p1660
ag0
((lp1661
tp1662
Rp1663
aatp1664
Rp1665
aa(lp1666
S'SPMV_CRS'
p1667
ag0
((lp1668
(lp1669
S''
p1670
ag0
((lp1671
(lp1672
S'SPMV_CRS__tileSize_80_tile_par_1_pt_par_1'
p1673
ag0
((lp1674
(lp1675
S'cycle'
p1676
aI93202
aa(lp1677
S'avgbw'
p1678
aF0.0
aa(lp1679
S'pcuUtil'
p1680
a(I25
I64
tp1681
aa(lp1682
S'mcuUtil'
p1683
a(I6
I64
tp1684
aa(lp1685
S'scuUtil'
p1686
a(I5
I34
tp1687
aa(lp1688
S'ocuUtil'
p1689
a(I15
I153
tp1690
aa(lp1691
S'mcUtil'
p1692
a(I5
I34
tp1693
aa(lp1694
S'slinkUtil'
p1695
a(I303
I3360
tp1696
aa(lp1697
S'vlinkUtil'
p1698
a(I0
I2240
tp1699
aa(lp1700
S'clinkUtil'
p1701
a(I0
I6720
tp1702
aa(lp1703
S'totalRegUtil'
p1704
a(I868
I54912
tp1705
aa(lp1706
S'totalFUUtil'
p1707
a(I319
I3264
tp1708
aa(lp1709
S'totalSBufUtil'
p1710
a(I107
I363
tp1711
aa(lp1712
S'totalVBufUtil'
p1713
a(I1
I124
tp1714
aatp1715
Rp1716
aa(lp1717
S'SPMV_CRS__tileSize_80_tile_par_1_pt_par_2'
p1718
ag0
((lp1719
(lp1720
g1676
aI83538
aa(lp1721
g1678
aF0.0
aa(lp1722
g1680
a(I40
I64
tp1723
aa(lp1724
g1683
a(I9
I64
tp1725
aa(lp1726
g1686
a(I8
I34
tp1727
aa(lp1728
g1689
a(I22
I153
tp1729
aa(lp1730
g1692
a(I8
I34
tp1731
aa(lp1732
g1695
a(I524
I3360
tp1733
aa(lp1734
g1698
a(I0
I2240
tp1735
aa(lp1736
g1701
a(I0
I6720
tp1737
aa(lp1738
g1704
a(I1321
I86976
tp1739
aa(lp1740
g1707
a(I497
I5184
tp1741
aa(lp1742
g1710
a(I168
I566
tp1743
aa(lp1744
g1713
a(I2
I196
tp1745
aatp1746
Rp1747
aa(lp1748
S'SPMV_CRS__tileSize_80_tile_par_2_pt_par_1'
p1749
ag0
((lp1750
(lp1751
g1676
aI69732
aa(lp1752
g1678
aF0.0
aa(lp1753
g1680
a(I49
I64
tp1754
aa(lp1755
g1683
a(I12
I64
tp1756
aa(lp1757
g1686
a(I10
I34
tp1758
aa(lp1759
g1689
a(I28
I153
tp1760
aa(lp1761
g1692
a(I10
I34
tp1762
aa(lp1763
g1695
a(I675
I3360
tp1764
aa(lp1765
g1698
a(I0
I2240
tp1766
aa(lp1767
g1701
a(I0
I6720
tp1768
aa(lp1769
g1704
a(I1730
I108288
tp1770
aa(lp1771
g1707
a(I637
I6432
tp1772
aa(lp1773
g1710
a(I212
I708
tp1774
aa(lp1775
g1713
a(I2
I244
tp1776
aatp1777
Rp1778
aa(lp1779
S'SPMV_CRS__tileSize_144_tile_par_1_pt_par_1'
p1780
ag0
((lp1781
(lp1782
g1676
aI83563
aa(lp1783
g1678
aF0.0
aa(lp1784
g1680
a(I25
I64
tp1785
aa(lp1786
g1683
a(I6
I64
tp1787
aa(lp1788
g1686
a(I5
I34
tp1789
aa(lp1790
g1689
a(I15
I153
tp1791
aa(lp1792
g1692
a(I5
I34
tp1793
aa(lp1794
g1695
a(I307
I3360
tp1795
aa(lp1796
g1698
a(I0
I2240
tp1797
aa(lp1798
g1701
a(I0
I6720
tp1799
aa(lp1800
g1704
a(I868
I54912
tp1801
aa(lp1802
g1707
a(I319
I3264
tp1803
aa(lp1804
g1710
a(I107
I363
tp1805
aa(lp1806
g1713
a(I1
I124
tp1807
aatp1808
Rp1809
aa(lp1810
S'SPMV_CRS__tileSize_144_tile_par_1_pt_par_2'
p1811
ag0
((lp1812
(lp1813
g1676
aI74606
aa(lp1814
g1678
aF0.0
aa(lp1815
g1680
a(I40
I64
tp1816
aa(lp1817
g1683
a(I9
I64
tp1818
aa(lp1819
g1686
a(I8
I34
tp1820
aa(lp1821
g1689
a(I22
I153
tp1822
aa(lp1823
g1692
a(I8
I34
tp1824
aa(lp1825
g1695
a(I592
I3360
tp1826
aa(lp1827
g1698
a(I0
I2240
tp1828
aa(lp1829
g1701
a(I0
I6720
tp1830
aa(lp1831
g1704
a(I1321
I86976
tp1832
aa(lp1833
g1707
a(I497
I5184
tp1834
aa(lp1835
g1710
a(I168
I566
tp1836
aa(lp1837
g1713
a(I2
I196
tp1838
aatp1839
Rp1840
aa(lp1841
S'SPMV_CRS__tileSize_144_tile_par_2_pt_par_1'
p1842
ag0
((lp1843
(lp1844
g1676
aI69177
aa(lp1845
g1678
aF0.0
aa(lp1846
g1680
a(I49
I64
tp1847
aa(lp1848
g1683
a(I12
I64
tp1849
aa(lp1850
g1686
a(I10
I34
tp1851
aa(lp1852
g1689
a(I28
I153
tp1853
aa(lp1854
g1692
a(I10
I34
tp1855
aa(lp1856
g1695
a(I762
I3360
tp1857
aa(lp1858
g1698
a(I0
I2240
tp1859
aa(lp1860
g1701
a(I0
I6720
tp1861
aa(lp1862
g1704
a(I1730
I108288
tp1863
aa(lp1864
g1707
a(I637
I6432
tp1865
aa(lp1866
g1710
a(I212
I708
tp1867
aa(lp1868
g1713
a(I2
I244
tp1869
aatp1870
Rp1871
aa(lp1872
S'SPMV_CRS__tileSize_208_tile_par_1_pt_par_1'
p1873
ag0
((lp1874
(lp1875
g1676
aI80064
aa(lp1876
g1678
aF0.0
aa(lp1877
g1680
a(I25
I64
tp1878
aa(lp1879
g1683
a(I6
I64
tp1880
aa(lp1881
g1686
a(I5
I34
tp1882
aa(lp1883
g1689
a(I15
I153
tp1884
aa(lp1885
g1692
a(I5
I34
tp1886
aa(lp1887
g1695
a(I254
I3360
tp1888
aa(lp1889
g1698
a(I0
I2240
tp1890
aa(lp1891
g1701
a(I0
I6720
tp1892
aa(lp1893
g1704
a(I868
I54912
tp1894
aa(lp1895
g1707
a(I319
I3264
tp1896
aa(lp1897
g1710
a(I107
I363
tp1898
aa(lp1899
g1713
a(I1
I124
tp1900
aatp1901
Rp1902
aa(lp1903
S'SPMV_CRS__tileSize_208_tile_par_1_pt_par_2'
p1904
ag0
((lp1905
(lp1906
g1676
aI71824
aa(lp1907
g1678
aF0.0
aa(lp1908
g1680
a(I40
I64
tp1909
aa(lp1910
g1683
a(I9
I64
tp1911
aa(lp1912
g1686
a(I8
I34
tp1913
aa(lp1914
g1689
a(I22
I153
tp1915
aa(lp1916
g1692
a(I8
I34
tp1917
aa(lp1918
g1695
a(I527
I3360
tp1919
aa(lp1920
g1698
a(I0
I2240
tp1921
aa(lp1922
g1701
a(I0
I6720
tp1923
aa(lp1924
g1704
a(I1321
I86976
tp1925
aa(lp1926
g1707
a(I497
I5184
tp1927
aa(lp1928
g1710
a(I168
I566
tp1929
aa(lp1930
g1713
a(I2
I196
tp1931
aatp1932
Rp1933
aa(lp1934
S'SPMV_CRS__tileSize_208_tile_par_2_pt_par_1'
p1935
ag0
((lp1936
(lp1937
g1676
aI60012
aa(lp1938
g1678
aF0.0
aa(lp1939
g1680
a(I49
I64
tp1940
aa(lp1941
g1683
a(I12
I64
tp1942
aa(lp1943
g1686
a(I10
I34
tp1944
aa(lp1945
g1689
a(I28
I153
tp1946
aa(lp1947
g1692
a(I10
I34
tp1948
aa(lp1949
g1695
a(I789
I3360
tp1950
aa(lp1951
g1698
a(I0
I2240
tp1952
aa(lp1953
g1701
a(I0
I6720
tp1954
aa(lp1955
g1704
a(I1730
I108288
tp1956
aa(lp1957
g1707
a(I637
I6432
tp1958
aa(lp1959
g1710
a(I212
I708
tp1960
aa(lp1961
g1713
a(I2
I244
tp1962
aatp1963
Rp1964
aatp1965
Rp1966
aatp1967
Rp1968
aa(lp1969
S'GEMM_Blocked'
p1970
ag0
((lp1971
(lp1972
g1670
ag0
((lp1973
(lp1974
S'GEMM_Blocked__tileSize_16_i_tileSize_16_loop_jj_1_loop_ii_1_loop_kk_1_loop_i_1_loop_k_1'
p1975
ag0
((lp1976
(lp1977
g1012
aI71521420
aa(lp1978
g1014
aF0.9529654193107463
aa(lp1979
g1016
a(I18
I64
tp1980
aa(lp1981
g1019
a(I8
I64
tp1982
aa(lp1983
g1022
a(I3
I34
tp1984
aa(lp1985
g1025
a(I11
I153
tp1986
aa(lp1987
g1028
a(I3
I34
tp1988
aa(lp1989
g1031
a(I170
I3360
tp1990
aa(lp1991
g1034
a(I0
I2240
tp1992
aa(lp1993
g1037
a(I0
I6720
tp1994
aa(lp1995
g1040
a(I789
I46976
tp1996
aa(lp1997
g1043
a(I236
I2656
tp1998
aa(lp1999
g1046
a(I81
I287
tp2000
aa(lp2001
g1049
a(I0
I104
tp2002
aatp2003
Rp2004
aa(lp2005
S'GEMM_Blocked__tileSize_16_i_tileSize_16_loop_jj_1_loop_ii_1_loop_kk_1_loop_i_2_loop_k_1'
p2006
ag0
((lp2007
(lp2008
g1012
aI38484739
aa(lp2009
g1014
aF1.771025132845516
aa(lp2010
g1016
a(I25
I64
tp2011
aa(lp2012
g1019
a(I14
I64
tp2013
aa(lp2014
g1022
a(I4
I34
tp2015
aa(lp2016
g1025
a(I14
I153
tp2017
aa(lp2018
g1028
a(I4
I34
tp2019
aa(lp2020
g1031
a(I274
I3360
tp2021
aa(lp2022
g1034
a(I0
I2240
tp2023
aa(lp2024
g1037
a(I0
I6720
tp2025
aa(lp2026
g1040
a(I1076
I70304
tp2027
aa(lp2028
g1043
a(I303
I3904
tp2029
aa(lp2030
g1046
a(I114
I414
tp2031
aa(lp2032
g1049
a(I0
I156
tp2033
aatp2034
Rp2035
aa(lp2036
S'GEMM_Blocked__tileSize_16_i_tileSize_16_loop_jj_1_loop_ii_1_loop_kk_1_loop_i_2_loop_k_2'
p2037
ag0
((lp2038
(lp2039
g1012
aI28935759
aa(lp2040
g1014
aF2.3554744148926594
aa(lp2041
g1016
a(I27
I64
tp2042
aa(lp2043
g1019
a(I18
I64
tp2044
aa(lp2045
g1022
a(I4
I34
tp2046
aa(lp2047
g1025
a(I14
I153
tp2048
aa(lp2049
g1028
a(I4
I34
tp2050
aa(lp2051
g1031
a(I262
I3360
tp2052
aa(lp2053
g1034
a(I0
I2240
tp2054
aa(lp2055
g1037
a(I0
I6720
tp2056
aa(lp2057
g1040
a(I1312
I80736
tp2058
aa(lp2059
g1043
a(I377
I4416
tp2060
aa(lp2061
g1046
a(I130
I462
tp2062
aa(lp2063
g1049
a(I0
I180
tp2064
aatp2065
Rp2066
aa(lp2067
S'GEMM_Blocked__tileSize_16_i_tileSize_16_loop_jj_1_loop_ii_1_loop_kk_2_loop_i_1_loop_k_1'
p2068
ag0
((lp2069
(lp2070
g1012
aI36502225
aa(lp2071
g1014
aF1.8672133000111637
aa(lp2072
g1016
a(I30
I64
tp2073
aa(lp2074
g1019
a(I14
I64
tp2075
aa(lp2076
g1022
a(I5
I34
tp2077
aa(lp2078
g1025
a(I17
I153
tp2079
aa(lp2080
g1028
a(I5
I34
tp2081
aa(lp2082
g1031
a(I359
I3360
tp2083
aa(lp2084
g1034
a(I0
I2240
tp2085
aa(lp2086
g1037
a(I0
I6720
tp2087
aa(lp2088
g1040
a(I1206
I79520
tp2089
aa(lp2090
g1043
a(I375
I4480
tp2091
aa(lp2092
g1046
a(I134
I477
tp2093
aa(lp2094
g1049
a(I0
I176
tp2095
aatp2096
Rp2097
aa(lp2098
S'GEMM_Blocked__tileSize_16_i_tileSize_16_loop_jj_1_loop_ii_1_loop_kk_2_loop_i_1_loop_k_2'
p2099
ag0
((lp2100
(lp2101
g1012
aI26960180
aa(lp2102
g1014
aF2.528078076630052
aa(lp2103
g1016
a(I32
I64
tp2104
aa(lp2105
g1019
a(I18
I64
tp2106
aa(lp2107
g1022
a(I5
I34
tp2108
aa(lp2109
g1025
a(I17
I153
tp2110
aa(lp2111
g1028
a(I5
I34
tp2112
aa(lp2113
g1031
a(I407
I3360
tp2114
aa(lp2115
g1034
a(I0
I2240
tp2116
aa(lp2117
g1037
a(I0
I6720
tp2118
aa(lp2119
g1040
a(I1442
I89952
tp2120
aa(lp2121
g1043
a(I449
I4992
tp2122
aa(lp2123
g1046
a(I150
I525
tp2124
aa(lp2125
g1049
a(I0
I200
tp2126
aatp2127
Rp2128
aa(lp2129
S'GEMM_Blocked__tileSize_16_i_tileSize_16_loop_jj_1_loop_ii_1_loop_kk_2_loop_i_2_loop_k_1'
p2130
ag0
((lp2131
(lp2132
g1012
aI19968305
aa(lp2133
g1014
aF3.4132811973775445
aa(lp2134
g1016
a(I44
I64
tp2135
aa(lp2136
g1019
a(I26
I64
tp2137
aa(lp2138
g1022
a(I7
I34
tp2139
aa(lp2140
g1025
a(I23
I153
tp2141
aa(lp2142
g1028
a(I7
I34
tp2143
aa(lp2144
g1031
a(I535
I3360
tp2145
aa(lp2146
g1034
a(I0
I2240
tp2147
aa(lp2148
g1037
a(I0
I6720
tp2149
aa(lp2150
g1040
a(I1780
I126176
tp2151
aa(lp2152
g1043
a(I509
I6976
tp2153
aa(lp2154
g1046
a(I200
I731
tp2155
aa(lp2156
g1049
a(I0
I280
tp2157
aatp2158
Rp2159
aa(lp2160
S'GEMM_Blocked__tileSize_16_i_tileSize_16_loop_jj_1_loop_ii_1_loop_kk_2_loop_i_2_loop_k_2'
p2161
ag0
((lp2162
(lp2163
g1012
aI15225514
aa(lp2164
g1014
aF4.476528017379248
aa(lp2165
g1016
a(I48
I64
tp2166
aa(lp2167
g1019
a(I34
I64
tp2168
aa(lp2169
g1022
a(I7
I34
tp2170
aa(lp2171
g1025
a(I23
I153
tp2172
aa(lp2173
g1028
a(I7
I34
tp2174
aa(lp2175
g1031
a(I662
I3360
tp2176
aa(lp2177
g1034
a(I0
I2240
tp2178
aa(lp2179
g1037
a(I0
I6720
tp2180
aa(lp2181
g1040
a(I2252
I147040
tp2182
aa(lp2183
g1043
a(I657
I8000
tp2184
aa(lp2185
g1046
a(I232
I827
tp2186
aa(lp2187
g1049
a(I0
I328
tp2188
aatp2189
Rp2190
aa(lp2191
S'GEMM_Blocked__tileSize_16_i_tileSize_16_loop_jj_1_loop_ii_2_loop_kk_1_loop_i_1_loop_k_2'
p2192
ag0
((lp2193
(lp2194
g1012
aI26373270
aa(lp2195
g1014
aF2.584337854198588
aa(lp2196
g1016
a(I38
I64
tp2197
aa(lp2198
g1019
a(I20
I64
tp2199
aa(lp2200
g1022
a(I6
I34
tp2201
aa(lp2202
g1025
a(I23
I153
tp2203
aa(lp2204
g1028
a(I6
I34
tp2205
aa(lp2206
g1031
a(I507
I3360
tp2207
aa(lp2208
g1034
a(I0
I2240
tp2209
aa(lp2210
g1037
a(I0
I6720
tp2211
aa(lp2212
g1040
a(I1814
I104384
tp2213
aa(lp2214
g1043
a(I546
I5824
tp2215
aa(lp2216
g1046
a(I179
I627
tp2217
aa(lp2218
g1049
a(I0
I232
tp2219
aatp2220
Rp2221
aa(lp2222
S'GEMM_Blocked__tileSize_16_i_tileSize_16_loop_jj_1_loop_ii_2_loop_kk_1_loop_i_2_loop_k_2'
p2223
ag0
((lp2224
(lp2225
g1012
aI14668242
aa(lp2226
g1014
aF4.6465990948335865
aa(lp2227
g1016
a(I54
I64
tp2228
aa(lp2229
g1019
a(I36
I64
tp2230
aa(lp2231
g1022
a(I8
I34
tp2232
aa(lp2233
g1025
a(I29
I153
tp2234
aa(lp2235
g1028
a(I8
I34
tp2236
aa(lp2237
g1031
a(I786
I3360
tp2238
aa(lp2239
g1034
a(I0
I2240
tp2240
aa(lp2241
g1037
a(I0
I6720
tp2242
aa(lp2243
g1040
a(I2624
I161472
tp2244
aa(lp2245
g1043
a(I754
I8832
tp2246
aa(lp2247
g1046
a(I261
I929
tp2248
aa(lp2249
g1049
a(I0
I360
tp2250
aatp2251
Rp2252
aa(lp2253
S'GEMM_Blocked__tileSize_16_i_tileSize_16_loop_jj_1_loop_ii_2_loop_kk_2_loop_i_1_loop_k_2'
p2254
ag0
((lp2255
(lp2256
g1012
aI13866271
aa(lp2257
g1014
aF4.9153402526173045
aa(lp2258
g1016
a(I64
I64
tp2259
aa(lp2260
g1019
a(I36
I64
tp2261
aa(lp2262
g1022
a(I10
I34
tp2263
aa(lp2264
g1025
a(I35
I153
tp2265
aa(lp2266
g1028
a(I10
I34
tp2267
aa(lp2268
g1031
a(I920
I3360
tp2269
aa(lp2270
g1034
a(I0
I2240
tp2271
aa(lp2272
g1037
a(I0
I6720
tp2273
aa(lp2274
g1040
a(I2884
I179904
tp2275
aa(lp2276
g1043
a(I898
I9984
tp2277
aa(lp2278
g1046
a(I301
I1055
tp2279
aa(lp2280
g1049
a(I0
I400
tp2281
aatp2282
Rp2283
aa(lp2284
S'GEMM_Blocked__tileSize_16_i_tileSize_16_loop_jj_2_loop_ii_1_loop_kk_1_loop_i_1_loop_k_1'
p2285
ag0
((lp2286
(lp2287
g1012
aI35922717
aa(lp2288
g1014
aF1.8973353268351054
aa(lp2289
g1016
a(I36
I64
tp2290
aa(lp2291
g1019
a(I16
I64
tp2292
aa(lp2293
g1022
a(I6
I34
tp2294
aa(lp2295
g1025
a(I21
I153
tp2296
aa(lp2297
g1028
a(I6
I34
tp2298
aa(lp2299
g1031
a(I457
I3360
tp2300
aa(lp2301
g1034
a(I0
I2240
tp2302
aa(lp2303
g1037
a(I0
I6720
tp2304
aa(lp2305
g1040
a(I1578
I93952
tp2306
aa(lp2307
g1043
a(I472
I5312
tp2308
aa(lp2309
g1046
a(I161
I569
tp2310
aa(lp2311
g1049
a(I0
I208
tp2312
aatp2313
Rp2314
aa(lp2315
S'GEMM_Blocked__tileSize_16_i_tileSize_16_loop_jj_2_loop_ii_1_loop_kk_1_loop_i_2_loop_k_2'
p2316
ag0
((lp2317
(lp2318
g1012
aI14594499
aa(lp2319
g1014
aF4.67007740382181
aa(lp2320
g1016
a(I54
I64
tp2321
aa(lp2322
g1019
a(I36
I64
tp2323
aa(lp2324
g1022
a(I8
I34
tp2325
aa(lp2326
g1025
a(I27
I153
tp2327
aa(lp2328
g1028
a(I8
I34
tp2329
aa(lp2330
g1031
a(I830
I3360
tp2331
aa(lp2332
g1034
a(I0
I2240
tp2333
aa(lp2334
g1037
a(I0
I6720
tp2335
aa(lp2336
g1040
a(I2624
I161472
tp2337
aa(lp2338
g1043
a(I754
I8832
tp2339
aa(lp2340
g1046
a(I259
I919
tp2341
aa(lp2342
g1049
a(I0
I360
tp2343
aatp2344
Rp2345
aa(lp2346
S'GEMM_Blocked__tileSize_16_i_tileSize_16_loop_jj_2_loop_ii_1_loop_kk_2_loop_i_1_loop_k_1'
p2347
ag0
((lp2348
(lp2349
g1012
aI18283225
aa(lp2350
g1014
aF3.727867485085372
aa(lp2351
g1016
a(I60
I64
tp2352
aa(lp2353
g1019
a(I28
I64
tp2354
aa(lp2355
g1022
a(I10
I34
tp2356
aa(lp2357
g1025
a(I33
I153
tp2358
aa(lp2359
g1028
a(I10
I34
tp2360
aa(lp2361
g1031
a(I839
I3360
tp2362
aa(lp2363
g1034
a(I0
I2240
tp2364
aa(lp2365
g1037
a(I0
I6720
tp2366
aa(lp2367
g1040
a(I2412
I159040
tp2368
aa(lp2369
g1043
a(I750
I8960
tp2370
aa(lp2371
g1046
a(I267
I949
tp2372
aa(lp2373
g1049
a(I0
I352
tp2374
aatp2375
Rp2376
aa(lp2377
S'GEMM_Blocked__tileSize_16_i_tileSize_256_loop_jj_1_loop_ii_1_loop_kk_1_loop_i_1_loop_k_1'
p2378
ag0
((lp2379
(lp2380
g1012
aI68229998
aa(lp2381
g1014
aF0.5378889209406102
aa(lp2382
g1016
a(I18
I64
tp2383
aa(lp2384
g1019
a(I8
I64
tp2385
aa(lp2386
g1022
a(I3
I34
tp2387
aa(lp2388
g1025
a(I11
I153
tp2389
aa(lp2390
g1028
a(I3
I34
tp2391
aa(lp2392
g1031
a(I176
I3360
tp2393
aa(lp2394
g1034
a(I0
I2240
tp2395
aa(lp2396
g1037
a(I0
I6720
tp2397
aa(lp2398
g1040
a(I789
I46976
tp2399
aa(lp2400
g1043
a(I236
I2656
tp2401
aa(lp2402
g1046
a(I81
I287
tp2403
aa(lp2404
g1049
a(I0
I104
tp2405
aatp2406
Rp2407
aa(lp2408
S'GEMM_Blocked__tileSize_16_i_tileSize_256_loop_jj_1_loop_ii_1_loop_kk_1_loop_i_2_loop_k_1'
p2409
ag0
((lp2410
(lp2411
g1012
aI34846139
aa(lp2412
g1014
aF1.053205923330559
aa(lp2413
g1016
a(I25
I64
tp2414
aa(lp2415
g1019
a(I14
I64
tp2416
aa(lp2417
g1022
a(I4
I34
tp2418
aa(lp2419
g1025
a(I14
I153
tp2420
aa(lp2421
g1028
a(I4
I34
tp2422
aa(lp2423
g1031
a(I304
I3360
tp2424
aa(lp2425
g1034
a(I0
I2240
tp2426
aa(lp2427
g1037
a(I0
I6720
tp2428
aa(lp2429
g1040
a(I1076
I70304
tp2430
aa(lp2431
g1043
a(I303
I3904
tp2432
aa(lp2433
g1046
a(I114
I414
tp2434
aa(lp2435
g1049
a(I0
I156
tp2436
aatp2437
Rp2438
aa(lp2439
S'GEMM_Blocked__tileSize_16_i_tileSize_256_loop_jj_1_loop_ii_1_loop_kk_2_loop_i_1_loop_k_2'
p2440
ag0
((lp2441
(lp2442
g1012
aI24598886
aa(lp2443
g1014
aF1.491943984780449
aa(lp2444
g1016
a(I32
I64
tp2445
aa(lp2446
g1019
a(I18
I64
tp2447
aa(lp2448
g1022
a(I5
I34
tp2449
aa(lp2450
g1025
a(I17
I153
tp2451
aa(lp2452
g1028
a(I5
I34
tp2453
aa(lp2454
g1031
a(I386
I3360
tp2455
aa(lp2456
g1034
a(I0
I2240
tp2457
aa(lp2458
g1037
a(I0
I6720
tp2459
aa(lp2460
g1040
a(I1442
I89952
tp2461
aa(lp2462
g1043
a(I449
I4992
tp2463
aa(lp2464
g1046
a(I150
I525
tp2465
aa(lp2466
g1049
a(I0
I200
tp2467
aatp2468
Rp2469
aa(lp2470
S'GEMM_Blocked__tileSize_16_i_tileSize_256_loop_jj_1_loop_ii_1_loop_kk_2_loop_i_2_loop_k_1'
p2471
ag0
((lp2472
(lp2473
g1012
aI17541238
aa(lp2474
g1014
aF2.092221769067839
aa(lp2475
g1016
a(I44
I64
tp2476
aa(lp2477
g1019
a(I26
I64
tp2478
aa(lp2479
g1022
a(I7
I34
tp2480
aa(lp2481
g1025
a(I23
I153
tp2482
aa(lp2483
g1028
a(I7
I34
tp2484
aa(lp2485
g1031
a(I506
I3360
tp2486
aa(lp2487
g1034
a(I0
I2240
tp2488
aa(lp2489
g1037
a(I0
I6720
tp2490
aa(lp2491
g1040
a(I1780
I126176
tp2492
aa(lp2493
g1043
a(I509
I6976
tp2494
aa(lp2495
g1046
a(I200
I731
tp2496
aa(lp2497
g1049
a(I0
I280
tp2498
aatp2499
Rp2500
aa(lp2501
S'GEMM_Blocked__tileSize_16_i_tileSize_256_loop_jj_1_loop_ii_1_loop_kk_2_loop_i_2_loop_k_2'
p2502
ag0
((lp2503
(lp2504
g1012
aI12713018
aa(lp2505
g1014
aF2.886817276590028
aa(lp2506
g1016
a(I48
I64
tp2507
aa(lp2508
g1019
a(I34
I64
tp2509
aa(lp2510
g1022
a(I7
I34
tp2511
aa(lp2512
g1025
a(I23
I153
tp2513
aa(lp2514
g1028
a(I7
I34
tp2515
aa(lp2516
g1031
a(I634
I3360
tp2517
aa(lp2518
g1034
a(I0
I2240
tp2519
aa(lp2520
g1037
a(I0
I6720
tp2521
aa(lp2522
g1040
a(I2252
I147040
tp2523
aa(lp2524
g1043
a(I657
I8000
tp2525
aa(lp2526
g1046
a(I232
I827
tp2527
aa(lp2528
g1049
a(I0
I328
tp2529
aatp2530
Rp2531
aa(lp2532
S'GEMM_Blocked__tileSize_16_i_tileSize_256_loop_jj_1_loop_ii_2_loop_kk_1_loop_i_1_loop_k_2'
p2533
ag0
((lp2534
(lp2535
g1012
aI25823937
aa(lp2536
g1014
aF1.4211682750000512
aa(lp2537
g1016
a(I38
I64
tp2538
aa(lp2539
g1019
a(I20
I64
tp2540
aa(lp2541
g1022
a(I6
I34
tp2542
aa(lp2543
g1025
a(I23
I153
tp2544
aa(lp2545
g1028
a(I6
I34
tp2546
aa(lp2547
g1031
a(I509
I3360
tp2548
aa(lp2549
g1034
a(I0
I2240
tp2550
aa(lp2551
g1037
a(I0
I6720
tp2552
aa(lp2553
g1040
a(I1814
I104384
tp2554
aa(lp2555
g1043
a(I546
I5824
tp2556
aa(lp2557
g1046
a(I179
I627
tp2558
aa(lp2559
g1049
a(I0
I232
tp2560
aatp2561
Rp2562
aa(lp2563
S'GEMM_Blocked__tileSize_16_i_tileSize_256_loop_jj_1_loop_ii_2_loop_kk_1_loop_i_2_loop_k_1'
p2564
ag0
((lp2565
(lp2566
g1012
aI17506145
aa(lp2567
g1014
aF2.0964158585456705
aa(lp2568
g1016
a(I50
I64
tp2569
aa(lp2570
g1019
a(I28
I64
tp2571
aa(lp2572
g1022
a(I8
I34
tp2573
aa(lp2574
g1025
a(I29
I153
tp2575
aa(lp2576
g1028
a(I8
I34
tp2577
aa(lp2578
g1031
a(I655
I3360
tp2579
aa(lp2580
g1034
a(I0
I2240
tp2581
aa(lp2582
g1037
a(I0
I6720
tp2583
aa(lp2584
g1040
a(I2152
I140608
tp2585
aa(lp2586
g1043
a(I606
I7808
tp2587
aa(lp2588
g1046
a(I229
I833
tp2589
aa(lp2590
g1049
a(I0
I312
tp2591
aatp2592
Rp2593
aa(lp2594
S'GEMM_Blocked__tileSize_16_i_tileSize_256_loop_jj_1_loop_ii_2_loop_kk_1_loop_i_2_loop_k_2'
p2595
ag0
((lp2596
(lp2597
g1012
aI12800236
aa(lp2598
g1014
aF2.8671471369746624
aa(lp2599
g1016
a(I54
I64
tp2600
aa(lp2601
g1019
a(I36
I64
tp2602
aa(lp2603
g1022
a(I8
I34
tp2604
aa(lp2605
g1025
a(I29
I153
tp2606
aa(lp2607
g1028
a(I8
I34
tp2608
aa(lp2609
g1031
a(I808
I3360
tp2610
aa(lp2611
g1034
a(I0
I2240
tp2612
aa(lp2613
g1037
a(I0
I6720
tp2614
aa(lp2615
g1040
a(I2624
I161472
tp2616
aa(lp2617
g1043
a(I754
I8832
tp2618
aa(lp2619
g1046
a(I261
I929
tp2620
aa(lp2621
g1049
a(I0
I360
tp2622
aatp2623
Rp2624
aa(lp2625
S'GEMM_Blocked__tileSize_16_i_tileSize_256_loop_jj_1_loop_ii_2_loop_kk_2_loop_i_1_loop_k_2'
p2626
ag0
((lp2627
(lp2628
g1012
aI13025035
aa(lp2629
g1014
aF2.8176630619418677
aa(lp2630
g1016
a(I64
I64
tp2631
aa(lp2632
g1019
a(I36
I64
tp2633
aa(lp2634
g1022
a(I10
I34
tp2635
aa(lp2636
g1025
a(I35
I153
tp2637
aa(lp2638
g1028
a(I10
I34
tp2639
aa(lp2640
g1031
a(I1027
I3360
tp2641
aa(lp2642
g1034
a(I0
I2240
tp2643
aa(lp2644
g1037
a(I0
I6720
tp2645
aa(lp2646
g1040
a(I2884
I179904
tp2647
aa(lp2648
g1043
a(I898
I9984
tp2649
aa(lp2650
g1046
a(I301
I1055
tp2651
aa(lp2652
g1049
a(I0
I400
tp2653
aatp2654
Rp2655
aa(lp2656
S'GEMM_Blocked__tileSize_16_i_tileSize_256_loop_jj_2_loop_ii_1_loop_kk_1_loop_i_1_loop_k_1'
p2657
ag0
((lp2658
(lp2659
g1012
aI34144736
aa(lp2660
g1014
aF1.074840935949834
aa(lp2661
g1016
a(I36
I64
tp2662
aa(lp2663
g1019
a(I16
I64
tp2664
aa(lp2665
g1022
a(I6
I34
tp2666
aa(lp2667
g1025
a(I21
I153
tp2668
aa(lp2669
g1028
a(I6
I34
tp2670
aa(lp2671
g1031
a(I470
I3360
tp2672
aa(lp2673
g1034
a(I0
I2240
tp2674
aa(lp2675
g1037
a(I0
I6720
tp2676
aa(lp2677
g1040
a(I1578
I93952
tp2678
aa(lp2679
g1043
a(I472
I5312
tp2680
aa(lp2681
g1046
a(I161
I569
tp2682
aa(lp2683
g1049
a(I0
I208
tp2684
aatp2685
Rp2686
aa(lp2687
S'GEMM_Blocked__tileSize_16_i_tileSize_256_loop_jj_2_loop_ii_1_loop_kk_1_loop_i_1_loop_k_2'
p2688
ag0
((lp2689
(lp2690
g1012
aI24586004
aa(lp2691
g1014
aF1.4927256987349387
aa(lp2692
g1016
a(I38
I64
tp2693
aa(lp2694
g1019
a(I20
I64
tp2695
aa(lp2696
g1022
a(I6
I34
tp2697
aa(lp2698
g1025
a(I21
I153
tp2699
aa(lp2700
g1028
a(I6
I34
tp2701
aa(lp2702
g1031
a(I566
I3360
tp2703
aa(lp2704
g1034
a(I0
I2240
tp2705
aa(lp2706
g1037
a(I0
I6720
tp2707
aa(lp2708
g1040
a(I1814
I104384
tp2709
aa(lp2710
g1043
a(I546
I5824
tp2711
aa(lp2712
g1046
a(I177
I617
tp2713
aa(lp2714
g1049
a(I0
I232
tp2715
aatp2716
Rp2717
aa(lp2718
S'GEMM_Blocked__tileSize_16_i_tileSize_256_loop_jj_2_loop_ii_1_loop_kk_1_loop_i_2_loop_k_2'
p2719
ag0
((lp2720
(lp2721
g1012
aI12714609
aa(lp2722
g1014
aF2.886456044381703
aa(lp2723
g1016
a(I54
I64
tp2724
aa(lp2725
g1019
a(I36
I64
tp2726
aa(lp2727
g1022
a(I8
I34
tp2728
aa(lp2729
g1025
a(I27
I153
tp2730
aa(lp2731
g1028
a(I8
I34
tp2732
aa(lp2733
g1031
a(I781
I3360
tp2734
aa(lp2735
g1034
a(I0
I2240
tp2736
aa(lp2737
g1037
a(I0
I6720
tp2738
aa(lp2739
g1040
a(I2624
I161472
tp2740
aa(lp2741
g1043
a(I754
I8832
tp2742
aa(lp2743
g1046
a(I259
I919
tp2744
aa(lp2745
g1049
a(I0
I360
tp2746
aatp2747
Rp2748
aa(lp2749
S'GEMM_Blocked__tileSize_16_i_tileSize_256_loop_jj_2_loop_ii_1_loop_kk_2_loop_i_1_loop_k_2'
p2750
ag0
((lp2751
(lp2752
g1012
aI12337205
aa(lp2753
g1014
aF2.9747548168324993
aa(lp2754
g1016
a(I64
I64
tp2755
aa(lp2756
g1019
a(I36
I64
tp2757
aa(lp2758
g1022
a(I10
I34
tp2759
aa(lp2760
g1025
a(I33
I153
tp2761
aa(lp2762
g1028
a(I10
I34
tp2763
aa(lp2764
g1031
a(I931
I3360
tp2765
aa(lp2766
g1034
a(I0
I2240
tp2767
aa(lp2768
g1037
a(I0
I6720
tp2769
aa(lp2770
g1040
a(I2884
I179904
tp2771
aa(lp2772
g1043
a(I898
I9984
tp2773
aa(lp2774
g1046
a(I299
I1045
tp2775
aa(lp2776
g1049
a(I0
I400
tp2777
aatp2778
Rp2779
aa(lp2780
S'GEMM_Blocked__tileSize_256_i_tileSize_16_loop_jj_1_loop_ii_1_loop_kk_1_loop_i_1_loop_k_2'
p2781
ag0
((lp2782
(lp2783
g1012
aI5572523
aa(lp2784
g1014
aF6.585914495103923
aa(lp2785
g1016
a(I19
I64
tp2786
aa(lp2787
g1019
a(I10
I64
tp2788
aa(lp2789
g1022
a(I3
I34
tp2790
aa(lp2791
g1025
a(I11
I153
tp2792
aa(lp2793
g1028
a(I3
I34
tp2794
aa(lp2795
g1031
a(I221
I3360
tp2796
aa(lp2797
g1034
a(I0
I2240
tp2798
aa(lp2799
g1037
a(I0
I6720
tp2800
aa(lp2801
g1040
a(I907
I52192
tp2802
aa(lp2803
g1043
a(I273
I2912
tp2804
aa(lp2805
g1046
a(I89
I311
tp2806
aa(lp2807
g1049
a(I0
I116
tp2808
aatp2809
Rp2810
aa(lp2811
S'GEMM_Blocked__tileSize_256_i_tileSize_16_loop_jj_1_loop_ii_1_loop_kk_1_loop_i_2_loop_k_2'
p2812
ag0
((lp2813
(lp2814
g1012
aI3408851
aa(lp2815
g1014
aF10.766137915678918
aa(lp2816
g1016
a(I27
I64
tp2817
aa(lp2818
g1019
a(I18
I64
tp2819
aa(lp2820
g1022
a(I4
I34
tp2821
aa(lp2822
g1025
a(I14
I153
tp2823
aa(lp2824
g1028
a(I4
I34
tp2825
aa(lp2826
g1031
a(I294
I3360
tp2827
aa(lp2828
g1034
a(I0
I2240
tp2829
aa(lp2830
g1037
a(I0
I6720
tp2831
aa(lp2832
g1040
a(I1312
I80736
tp2833
aa(lp2834
g1043
a(I377
I4416
tp2835
aa(lp2836
g1046
a(I130
I462
tp2837
aa(lp2838
g1049
a(I0
I180
tp2839
aatp2840
Rp2841
aa(lp2842
S'GEMM_Blocked__tileSize_256_i_tileSize_16_loop_jj_1_loop_ii_1_loop_kk_2_loop_i_1_loop_k_1'
p2843
ag0
((lp2844
(lp2845
g1012
aI5271241
aa(lp2846
g1014
aF6.962337711366261
aa(lp2847
g1016
a(I30
I64
tp2848
aa(lp2849
g1019
a(I14
I64
tp2850
aa(lp2851
g1022
a(I5
I34
tp2852
aa(lp2853
g1025
a(I17
I153
tp2854
aa(lp2855
g1028
a(I5
I34
tp2856
aa(lp2857
g1031
a(I369
I3360
tp2858
aa(lp2859
g1034
a(I0
I2240
tp2860
aa(lp2861
g1037
a(I0
I6720
tp2862
aa(lp2863
g1040
a(I1206
I79520
tp2864
aa(lp2865
g1043
a(I375
I4480
tp2866
aa(lp2867
g1046
a(I134
I477
tp2868
aa(lp2869
g1049
a(I0
I176
tp2870
aatp2871
Rp2872
aa(lp2873
S'GEMM_Blocked__tileSize_256_i_tileSize_16_loop_jj_1_loop_ii_1_loop_kk_2_loop_i_1_loop_k_2'
p2874
ag0
((lp2875
(lp2876
g1012
aI3638520
aa(lp2877
g1014
aF10.086562668337676
aa(lp2878
g1016
a(I32
I64
tp2879
aa(lp2880
g1019
a(I18
I64
tp2881
aa(lp2882
g1022
a(I5
I34
tp2883
aa(lp2884
g1025
a(I17
I153
tp2885
aa(lp2886
g1028
a(I5
I34
tp2887
aa(lp2888
g1031
a(I400
I3360
tp2889
aa(lp2890
g1034
a(I0
I2240
tp2891
aa(lp2892
g1037
a(I0
I6720
tp2893
aa(lp2894
g1040
a(I1442
I89952
tp2895
aa(lp2896
g1043
a(I449
I4992
tp2897
aa(lp2898
g1046
a(I150
I525
tp2899
aa(lp2900
g1049
a(I0
I200
tp2901
aatp2902
Rp2903
aa(lp2904
S'GEMM_Blocked__tileSize_256_i_tileSize_16_loop_jj_1_loop_ii_1_loop_kk_2_loop_i_2_loop_k_1'
p2905
ag0
((lp2906
(lp2907
g1012
aI3368261
aa(lp2908
g1014
aF10.89587772444
aa(lp2909
g1016
a(I44
I64
tp2910
aa(lp2911
g1019
a(I26
I64
tp2912
aa(lp2913
g1022
a(I7
I34
tp2914
aa(lp2915
g1025
a(I23
I153
tp2916
aa(lp2917
g1028
a(I7
I34
tp2918
aa(lp2919
g1031
a(I517
I3360
tp2920
aa(lp2921
g1034
a(I0
I2240
tp2922
aa(lp2923
g1037
a(I0
I6720
tp2924
aa(lp2925
g1040
a(I1780
I126176
tp2926
aa(lp2927
g1043
a(I509
I6976
tp2928
aa(lp2929
g1046
a(I200
I731
tp2930
aa(lp2931
g1049
a(I0
I280
tp2932
aatp2933
Rp2934
aa(lp2935
S'GEMM_Blocked__tileSize_256_i_tileSize_16_loop_jj_1_loop_ii_2_loop_kk_1_loop_i_1_loop_k_1'
p2936
ag0
((lp2937
(lp2938
g1012
aI4864954
aa(lp2939
g1014
aF7.5437835588990145
aa(lp2940
g1016
a(I36
I64
tp2941
aa(lp2942
g1019
a(I16
I64
tp2943
aa(lp2944
g1022
a(I6
I34
tp2945
aa(lp2946
g1025
a(I23
I153
tp2947
aa(lp2948
g1028
a(I6
I34
tp2949
aa(lp2950
g1031
a(I465
I3360
tp2951
aa(lp2952
g1034
a(I0
I2240
tp2953
aa(lp2954
g1037
a(I0
I6720
tp2955
aa(lp2956
g1040
a(I1578
I93952
tp2957
aa(lp2958
g1043
a(I472
I5312
tp2959
aa(lp2960
g1046
a(I163
I579
tp2961
aa(lp2962
g1049
a(I0
I208
tp2963
aatp2964
Rp2965
aa(lp2966
S'GEMM_Blocked__tileSize_256_i_tileSize_16_loop_jj_1_loop_ii_2_loop_kk_1_loop_i_1_loop_k_2'
p2967
ag0
((lp2968
(lp2969
g1012
aI3331849
aa(lp2970
g1014
aF11.014952958552442
aa(lp2971
g1016
a(I38
I64
tp2972
aa(lp2973
g1019
a(I20
I64
tp2974
aa(lp2975
g1022
a(I6
I34
tp2976
aa(lp2977
g1025
a(I23
I153
tp2978
aa(lp2979
g1028
a(I6
I34
tp2980
aa(lp2981
g1031
a(I520
I3360
tp2982
aa(lp2983
g1034
a(I0
I2240
tp2984
aa(lp2985
g1037
a(I0
I6720
tp2986
aa(lp2987
g1040
a(I1814
I104384
tp2988
aa(lp2989
g1043
a(I546
I5824
tp2990
aa(lp2991
g1046
a(I179
I627
tp2992
aa(lp2993
g1049
a(I0
I232
tp2994
aatp2995
Rp2996
aa(lp2997
S'GEMM_Blocked__tileSize_256_i_tileSize_16_loop_jj_1_loop_ii_2_loop_kk_1_loop_i_2_loop_k_1'
p2998
ag0
((lp2999
(lp3000
g1012
aI2939744
aa(lp3001
g1014
aF12.484134672951113
aa(lp3002
g1016
a(I50
I64
tp3003
aa(lp3004
g1019
a(I28
I64
tp3005
aa(lp3006
g1022
a(I8
I34
tp3007
aa(lp3008
g1025
a(I29
I153
tp3009
aa(lp3010
g1028
a(I8
I34
tp3011
aa(lp3012
g1031
a(I717
I3360
tp3013
aa(lp3014
g1034
a(I0
I2240
tp3015
aa(lp3016
g1037
a(I0
I6720
tp3017
aa(lp3018
g1040
a(I2152
I140608
tp3019
aa(lp3020
g1043
a(I606
I7808
tp3021
aa(lp3022
g1046
a(I229
I833
tp3023
aa(lp3024
g1049
a(I0
I312
tp3025
aatp3026
Rp3027
aa(lp3028
S'GEMM_Blocked__tileSize_256_i_tileSize_16_loop_jj_1_loop_ii_2_loop_kk_2_loop_i_1_loop_k_1'
p3029
ag0
((lp3030
(lp3031
g1012
aI3336106
aa(lp3032
g1014
aF11.00089745349818
aa(lp3033
g1016
a(I60
I64
tp3034
aa(lp3035
g1019
a(I28
I64
tp3036
aa(lp3037
g1022
a(I10
I34
tp3038
aa(lp3039
g1025
a(I35
I153
tp3040
aa(lp3041
g1028
a(I10
I34
tp3042
aa(lp3043
g1031
a(I881
I3360
tp3044
aa(lp3045
g1034
a(I0
I2240
tp3046
aa(lp3047
g1037
a(I0
I6720
tp3048
aa(lp3049
g1040
a(I2412
I159040
tp3050
aa(lp3051
g1043
a(I750
I8960
tp3052
aa(lp3053
g1046
a(I269
I959
tp3054
aa(lp3055
g1049
a(I0
I352
tp3056
aatp3057
Rp3058
aa(lp3059
S'GEMM_Blocked__tileSize_256_i_tileSize_16_loop_jj_1_loop_ii_2_loop_kk_2_loop_i_1_loop_k_2'
p3060
ag0
((lp3061
(lp3062
g1012
aI2518525
aa(lp3063
g1014
aF14.572084851252221
aa(lp3064
g1016
a(I64
I64
tp3065
aa(lp3066
g1019
a(I36
I64
tp3067
aa(lp3068
g1022
a(I10
I34
tp3069
aa(lp3070
g1025
a(I35
I153
tp3071
aa(lp3072
g1028
a(I10
I34
tp3073
aa(lp3074
g1031
a(I920
I3360
tp3075
aa(lp3076
g1034
a(I0
I2240
tp3077
aa(lp3078
g1037
a(I0
I6720
tp3079
aa(lp3080
g1040
a(I2884
I179904
tp3081
aa(lp3082
g1043
a(I898
I9984
tp3083
aa(lp3084
g1046
a(I301
I1055
tp3085
aa(lp3086
g1049
a(I0
I400
tp3087
aatp3088
Rp3089
aa(lp3090
S'GEMM_Blocked__tileSize_256_i_tileSize_16_loop_jj_2_loop_ii_1_loop_kk_1_loop_i_1_loop_k_1'
p3091
ag0
((lp3092
(lp3093
g1012
aI5120110
aa(lp3094
g1014
aF7.167846003308523
aa(lp3095
g1016
a(I36
I64
tp3096
aa(lp3097
g1019
a(I16
I64
tp3098
aa(lp3099
g1022
a(I6
I34
tp3100
aa(lp3101
g1025
a(I21
I153
tp3102
aa(lp3103
g1028
a(I6
I34
tp3104
aa(lp3105
g1031
a(I448
I3360
tp3106
aa(lp3107
g1034
a(I0
I2240
tp3108
aa(lp3109
g1037
a(I0
I6720
tp3110
aa(lp3111
g1040
a(I1578
I93952
tp3112
aa(lp3113
g1043
a(I472
I5312
tp3114
aa(lp3115
g1046
a(I161
I569
tp3116
aa(lp3117
g1049
a(I0
I208
tp3118
aatp3119
Rp3120
aa(lp3121
S'GEMM_Blocked__tileSize_256_i_tileSize_16_loop_jj_2_loop_ii_1_loop_kk_1_loop_i_2_loop_k_1'
p3122
ag0
((lp3123
(lp3124
g1012
aI3243147
aa(lp3125
g1014
aF11.316218475449926
aa(lp3126
g1016
a(I50
I64
tp3127
aa(lp3128
g1019
a(I28
I64
tp3129
aa(lp3130
g1022
a(I8
I34
tp3131
aa(lp3132
g1025
a(I27
I153
tp3133
aa(lp3134
g1028
a(I8
I34
tp3135
aa(lp3136
g1031
a(I711
I3360
tp3137
aa(lp3138
g1034
a(I0
I2240
tp3139
aa(lp3140
g1037
a(I0
I6720
tp3141
aa(lp3142
g1040
a(I2152
I140608
tp3143
aa(lp3144
g1043
a(I606
I7808
tp3145
aa(lp3146
g1046
a(I227
I823
tp3147
aa(lp3148
g1049
a(I0
I312
tp3149
aatp3150
Rp3151
aa(lp3152
S'GEMM_Blocked__tileSize_256_i_tileSize_16_loop_jj_2_loop_ii_1_loop_kk_1_loop_i_2_loop_k_2'
p3153
ag0
((lp3154
(lp3155
g1012
aI2465940
aa(lp3156
g1014
aF14.882827643819397
aa(lp3157
g1016
a(I54
I64
tp3158
aa(lp3159
g1019
a(I36
I64
tp3160
aa(lp3161
g1022
a(I8
I34
tp3162
aa(lp3163
g1025
a(I27
I153
tp3164
aa(lp3165
g1028
a(I8
I34
tp3166
aa(lp3167
g1031
a(I818
I3360
tp3168
aa(lp3169
g1034
a(I0
I2240
tp3170
aa(lp3171
g1037
a(I0
I6720
tp3172
aa(lp3173
g1040
a(I2624
I161472
tp3174
aa(lp3175
g1043
a(I754
I8832
tp3176
aa(lp3177
g1046
a(I259
I919
tp3178
aa(lp3179
g1049
a(I0
I360
tp3180
aatp3181
Rp3182
aa(lp3183
S'GEMM_Blocked__tileSize_256_i_tileSize_16_loop_jj_2_loop_ii_1_loop_kk_2_loop_i_1_loop_k_1'
p3184
ag0
((lp3185
(lp3186
g1012
aI3314015
aa(lp3187
g1014
aF11.074228692386727
aa(lp3188
g1016
a(I60
I64
tp3189
aa(lp3190
g1019
a(I28
I64
tp3191
aa(lp3192
g1022
a(I10
I34
tp3193
aa(lp3194
g1025
a(I33
I153
tp3195
aa(lp3196
g1028
a(I10
I34
tp3197
aa(lp3198
g1031
a(I855
I3360
tp3199
aa(lp3200
g1034
a(I0
I2240
tp3201
aa(lp3202
g1037
a(I0
I6720
tp3203
aa(lp3204
g1040
a(I2412
I159040
tp3205
aa(lp3206
g1043
a(I750
I8960
tp3207
aa(lp3208
g1046
a(I267
I949
tp3209
aa(lp3210
g1049
a(I0
I352
tp3211
aatp3212
Rp3213
aa(lp3214
S'GEMM_Blocked__tileSize_256_i_tileSize_256_loop_jj_1_loop_ii_1_loop_kk_1_loop_i_1_loop_k_1'
p3215
ag0
((lp3216
(lp3217
g1012
aI7766298
aa(lp3218
g1014
aF0.675080971654706
aa(lp3219
g1016
a(I18
I64
tp3220
aa(lp3221
g1019
a(I8
I64
tp3222
aa(lp3223
g1022
a(I3
I34
tp3224
aa(lp3225
g1025
a(I11
I153
tp3226
aa(lp3227
g1028
a(I3
I34
tp3228
aa(lp3229
g1031
a(I188
I3360
tp3230
aa(lp3231
g1034
a(I0
I2240
tp3232
aa(lp3233
g1037
a(I0
I6720
tp3234
aa(lp3235
g1040
a(I789
I46976
tp3236
aa(lp3237
g1043
a(I236
I2656
tp3238
aa(lp3239
g1046
a(I81
I287
tp3240
aa(lp3241
g1049
a(I0
I104
tp3242
aatp3243
Rp3244
aa(lp3245
S'GEMM_Blocked__tileSize_256_i_tileSize_256_loop_jj_1_loop_ii_1_loop_kk_1_loop_i_1_loop_k_2'
p3246
ag0
((lp3247
(lp3248
g1012
aI4510843
aa(lp3249
g1014
aF1.1622838569198706
aa(lp3250
g1016
a(I19
I64
tp3251
aa(lp3252
g1019
a(I10
I64
tp3253
aa(lp3254
g1022
a(I3
I34
tp3255
aa(lp3256
g1025
a(I11
I153
tp3257
aa(lp3258
g1028
a(I3
I34
tp3259
aa(lp3260
g1031
a(I161
I3360
tp3261
aa(lp3262
g1034
a(I0
I2240
tp3263
aa(lp3264
g1037
a(I0
I6720
tp3265
aa(lp3266
g1040
a(I907
I52192
tp3267
aa(lp3268
g1043
a(I273
I2912
tp3269
aa(lp3270
g1046
a(I89
I311
tp3271
aa(lp3272
g1049
a(I0
I116
tp3273
aatp3274
Rp3275
aa(lp3276
S'GEMM_Blocked__tileSize_256_i_tileSize_256_loop_jj_1_loop_ii_1_loop_kk_1_loop_i_2_loop_k_1'
p3277
ag0
((lp3278
(lp3279
g1012
aI3947718
aa(lp3280
g1014
aF1.3280786520212435
aa(lp3281
g1016
a(I25
I64
tp3282
aa(lp3283
g1019
a(I14
I64
tp3284
aa(lp3285
g1022
a(I4
I34
tp3286
aa(lp3287
g1025
a(I14
I153
tp3288
aa(lp3289
g1028
a(I4
I34
tp3290
aa(lp3291
g1031
a(I308
I3360
tp3292
aa(lp3293
g1034
a(I0
I2240
tp3294
aa(lp3295
g1037
a(I0
I6720
tp3296
aa(lp3297
g1040
a(I1076
I70304
tp3298
aa(lp3299
g1043
a(I303
I3904
tp3300
aa(lp3301
g1046
a(I114
I414
tp3302
aa(lp3303
g1049
a(I0
I156
tp3304
aatp3305
Rp3306
aa(lp3307
S'GEMM_Blocked__tileSize_256_i_tileSize_256_loop_jj_1_loop_ii_1_loop_kk_1_loop_i_2_loop_k_2'
p3308
ag0
((lp3309
(lp3310
g1012
aI2319805
aa(lp3311
g1014
aF2.2600520302353
aa(lp3312
g1016
a(I27
I64
tp3313
aa(lp3314
g1019
a(I18
I64
tp3315
aa(lp3316
g1022
a(I4
I34
tp3317
aa(lp3318
g1025
a(I14
I153
tp3319
aa(lp3320
g1028
a(I4
I34
tp3321
aa(lp3322
g1031
a(I355
I3360
tp3323
aa(lp3324
g1034
a(I0
I2240
tp3325
aa(lp3326
g1037
a(I0
I6720
tp3327
aa(lp3328
g1040
a(I1312
I80736
tp3329
aa(lp3330
g1043
a(I377
I4416
tp3331
aa(lp3332
g1046
a(I130
I462
tp3333
aa(lp3334
g1049
a(I0
I180
tp3335
aatp3336
Rp3337
aa(lp3338
S'GEMM_Blocked__tileSize_256_i_tileSize_256_loop_jj_1_loop_ii_1_loop_kk_2_loop_i_1_loop_k_1'
p3339
ag0
((lp3340
(lp3341
g1012
aI3968536
aa(lp3342
g1014
aF1.321111865937464
aa(lp3343
g1016
a(I30
I64
tp3344
aa(lp3345
g1019
a(I14
I64
tp3346
aa(lp3347
g1022
a(I5
I34
tp3348
aa(lp3349
g1025
a(I17
I153
tp3350
aa(lp3351
g1028
a(I5
I34
tp3352
aa(lp3353
g1031
a(I341
I3360
tp3354
aa(lp3355
g1034
a(I0
I2240
tp3356
aa(lp3357
g1037
a(I0
I6720
tp3358
aa(lp3359
g1040
a(I1206
I79520
tp3360
aa(lp3361
g1043
a(I375
I4480
tp3362
aa(lp3363
g1046
a(I134
I477
tp3364
aa(lp3365
g1049
a(I0
I176
tp3366
aatp3367
Rp3368
aa(lp3369
S'GEMM_Blocked__tileSize_256_i_tileSize_256_loop_jj_1_loop_ii_1_loop_kk_2_loop_i_1_loop_k_2'
p3370
ag0
((lp3371
(lp3372
g1012
aI2333046
aa(lp3373
g1014
aF2.2472253011728016
aa(lp3374
g1016
a(I32
I64
tp3375
aa(lp3376
g1019
a(I18
I64
tp3377
aa(lp3378
g1022
a(I5
I34
tp3379
aa(lp3380
g1025
a(I17
I153
tp3381
aa(lp3382
g1028
a(I5
I34
tp3383
aa(lp3384
g1031
a(I396
I3360
tp3385
aa(lp3386
g1034
a(I0
I2240
tp3387
aa(lp3388
g1037
a(I0
I6720
tp3389
aa(lp3390
g1040
a(I1442
I89952
tp3391
aa(lp3392
g1043
a(I449
I4992
tp3393
aa(lp3394
g1046
a(I150
I525
tp3395
aa(lp3396
g1049
a(I0
I200
tp3397
aatp3398
Rp3399
aa(lp3400
S'GEMM_Blocked__tileSize_256_i_tileSize_256_loop_jj_1_loop_ii_1_loop_kk_2_loop_i_2_loop_k_1'
p3401
ag0
((lp3402
(lp3403
g1012
aI2056265
aa(lp3404
g1014
aF2.5497102756697214
aa(lp3405
g1016
a(I44
I64
tp3406
aa(lp3407
g1019
a(I26
I64
tp3408
aa(lp3409
g1022
a(I7
I34
tp3410
aa(lp3411
g1025
a(I23
I153
tp3412
aa(lp3413
g1028
a(I7
I34
tp3414
aa(lp3415
g1031
a(I521
I3360
tp3416
aa(lp3417
g1034
a(I0
I2240
tp3418
aa(lp3419
g1037
a(I0
I6720
tp3420
aa(lp3421
g1040
a(I1780
I126176
tp3422
aa(lp3423
g1043
a(I509
I6976
tp3424
aa(lp3425
g1046
a(I200
I731
tp3426
aa(lp3427
g1049
a(I0
I280
tp3428
aatp3429
Rp3430
aa(lp3431
S'GEMM_Blocked__tileSize_256_i_tileSize_256_loop_jj_1_loop_ii_1_loop_kk_1_loop_i_1_loop_k_3'
p3432
ag0
((lp3433
(lp3434
g1012
aI3096349
aa(lp3435
g1014
aF1.693245819511948
aa(lp3436
g1016
a(I20
I64
tp3437
aa(lp3438
g1019
a(I12
I64
tp3439
aa(lp3440
g1022
a(I3
I34
tp3441
aa(lp3442
g1025
a(I11
I153
tp3443
aa(lp3444
g1028
a(I3
I34
tp3445
aa(lp3446
g1031
a(I193
I3360
tp3447
aa(lp3448
g1034
a(I0
I2240
tp3449
aa(lp3450
g1037
a(I0
I6720
tp3451
aa(lp3452
g1040
a(I1041
I57408
tp3453
aa(lp3454
g1043
a(I310
I3168
tp3455
aa(lp3456
g1046
a(I97
I335
tp3457
aa(lp3458
g1049
a(I0
I128
tp3459
aatp3460
Rp3461
aa(lp3462
S'GEMM_Blocked__tileSize_256_i_tileSize_256_loop_jj_1_loop_ii_1_loop_kk_1_loop_i_1_loop_k_4'
p3463
ag0
((lp3464
(lp3465
g1012
aI2353981
aa(lp3466
g1014
aF2.227239727083608
aa(lp3467
g1016
a(I21
I64
tp3468
aa(lp3469
g1019
a(I14
I64
tp3470
aa(lp3471
g1022
a(I3
I34
tp3472
aa(lp3473
g1025
a(I11
I153
tp3474
aa(lp3475
g1028
a(I3
I34
tp3476
aa(lp3477
g1031
a(I196
I3360
tp3478
aa(lp3479
g1034
a(I0
I2240
tp3480
aa(lp3481
g1037
a(I0
I6720
tp3482
aa(lp3483
g1040
a(I1191
I62624
tp3484
aa(lp3485
g1043
a(I347
I3424
tp3486
aa(lp3487
g1046
a(I105
I359
tp3488
aa(lp3489
g1049
a(I0
I140
tp3490
aatp3491
Rp3492
aa(lp3493
S'GEMM_Blocked__tileSize_256_i_tileSize_256_loop_jj_1_loop_ii_1_loop_kk_1_loop_i_2_loop_k_3'
p3494
ag0
((lp3495
(lp3496
g1012
aI1612503
aa(lp3497
g1014
aF3.251392400510263
aa(lp3498
g1016
a(I29
I64
tp3499
aa(lp3500
g1019
a(I22
I64
tp3501
aa(lp3502
g1022
a(I4
I34
tp3503
aa(lp3504
g1025
a(I14
I153
tp3505
aa(lp3506
g1028
a(I4
I34
tp3507
aa(lp3508
g1031
a(I391
I3360
tp3509
aa(lp3510
g1034
a(I0
I2240
tp3511
aa(lp3512
g1037
a(I0
I6720
tp3513
aa(lp3514
g1040
a(I1580
I91168
tp3515
aa(lp3516
g1043
a(I451
I4928
tp3517
aa(lp3518
g1046
a(I146
I510
tp3519
aa(lp3520
g1049
a(I0
I204
tp3521
aatp3522
Rp3523
aa(lp3524
S'GEMM_Blocked__tileSize_256_i_tileSize_256_loop_jj_1_loop_ii_1_loop_kk_1_loop_i_3_loop_k_1'
p3525
ag0
((lp3526
(lp3527
g1012
aI2693928
aa(lp3528
g1014
aF1.9461841593390767
aa(lp3529
g1016
a(I32
I64
tp3530
aa(lp3531
g1019
a(I20
I64
tp3532
aa(lp3533
g1022
a(I5
I34
tp3534
aa(lp3535
g1025
a(I17
I153
tp3536
aa(lp3537
g1028
a(I5
I34
tp3538
aa(lp3539
g1031
a(I328
I3360
tp3540
aa(lp3541
g1034
a(I0
I2240
tp3542
aa(lp3543
g1037
a(I0
I6720
tp3544
aa(lp3545
g1040
a(I1363
I93632
tp3546
aa(lp3547
g1043
a(I370
I5152
tp3548
aa(lp3549
g1046
a(I147
I541
tp3550
aa(lp3551
g1049
a(I0
I208
tp3552
aatp3553
Rp3554
aa(lp3555
S'GEMM_Blocked__tileSize_256_i_tileSize_256_loop_jj_1_loop_ii_1_loop_kk_1_loop_i_3_loop_k_3'
p3556
ag0
((lp3557
(lp3558
g1012
aI1132475
aa(lp3559
g1014
aF4.629576811850151
aa(lp3560
g1016
a(I38
I64
tp3561
aa(lp3562
g1019
a(I32
I64
tp3563
aa(lp3564
g1022
a(I5
I34
tp3565
aa(lp3566
g1025
a(I17
I153
tp3567
aa(lp3568
g1028
a(I5
I34
tp3569
aa(lp3570
g1031
a(I553
I3360
tp3571
aa(lp3572
g1034
a(I0
I2240
tp3573
aa(lp3574
g1037
a(I0
I6720
tp3575
aa(lp3576
g1040
a(I2119
I124928
tp3577
aa(lp3578
g1043
a(I592
I6688
tp3579
aa(lp3580
g1046
a(I195
I685
tp3581
aa(lp3582
g1049
a(I0
I280
tp3583
aatp3584
Rp3585
aa(lp3586
S'GEMM_Blocked__tileSize_256_i_tileSize_256_loop_jj_1_loop_ii_1_loop_kk_1_loop_i_3_loop_k_4'
p3587
ag0
((lp3588
(lp3589
g1012
aI884363
aa(lp3590
g1014
aF5.928425318562627
aa(lp3591
g1016
a(I41
I64
tp3592
aa(lp3593
g1019
a(I38
I64
tp3594
aa(lp3595
g1022
a(I5
I34
tp3596
aa(lp3597
g1025
a(I17
I153
tp3598
aa(lp3599
g1028
a(I5
I34
tp3600
aa(lp3601
g1031
a(I577
I3360
tp3602
aa(lp3603
g1034
a(I0
I2240
tp3604
aa(lp3605
g1037
a(I0
I6720
tp3606
aa(lp3607
g1040
a(I2569
I140576
tp3608
aa(lp3609
g1043
a(I703
I7456
tp3610
aa(lp3611
g1046
a(I219
I757
tp3612
aa(lp3613
g1049
a(I0
I316
tp3614
aatp3615
Rp3616
aa(lp3617
S'GEMM_Blocked__tileSize_256_i_tileSize_256_loop_jj_1_loop_ii_1_loop_kk_1_loop_i_4_loop_k_1'
p3618
ag0
((lp3619
(lp3620
g1012
aI2030451
aa(lp3621
g1014
aF2.5821258429777427
aa(lp3622
g1016
a(I39
I64
tp3623
aa(lp3624
g1019
a(I26
I64
tp3625
aa(lp3626
g1022
a(I6
I34
tp3627
aa(lp3628
g1025
a(I20
I153
tp3629
aa(lp3630
g1028
a(I6
I34
tp3631
aa(lp3632
g1031
a(I519
I3360
tp3633
aa(lp3634
g1034
a(I0
I2240
tp3635
aa(lp3636
g1037
a(I0
I6720
tp3637
aa(lp3638
g1040
a(I1650
I116960
tp3639
aa(lp3640
g1043
a(I437
I6400
tp3641
aa(lp3642
g1046
a(I180
I668
tp3643
aa(lp3644
g1049
a(I0
I260
tp3645
aatp3646
Rp3647
aa(lp3648
S'GEMM_Blocked__tileSize_256_i_tileSize_256_loop_jj_1_loop_ii_1_loop_kk_1_loop_i_4_loop_k_2'
p3649
ag0
((lp3650
(lp3651
g1012
aI1226891
aa(lp3652
g1014
aF4.2733054525626155
aa(lp3653
g1016
a(I43
I64
tp3654
aa(lp3655
g1019
a(I34
I64
tp3656
aa(lp3657
g1022
a(I6
I34
tp3658
aa(lp3659
g1025
a(I20
I153
tp3660
aa(lp3661
g1028
a(I6
I34
tp3662
aa(lp3663
g1031
a(I584
I3360
tp3664
aa(lp3665
g1034
a(I0
I2240
tp3666
aa(lp3667
g1037
a(I0
I6720
tp3668
aa(lp3669
g1040
a(I2122
I137824
tp3670
aa(lp3671
g1043
a(I585
I7424
tp3672
aa(lp3673
g1046
a(I212
I764
tp3674
aa(lp3675
g1049
a(I0
I308
tp3676
aatp3677
Rp3678
aa(lp3679
S'GEMM_Blocked__tileSize_256_i_tileSize_256_loop_jj_1_loop_ii_1_loop_kk_1_loop_i_4_loop_k_3'
p3680
ag0
((lp3681
(lp3682
g1012
aI875881
aa(lp3683
g1014
aF5.98583597543502
aa(lp3684
g1016
a(I47
I64
tp3685
aa(lp3686
g1019
a(I42
I64
tp3687
aa(lp3688
g1022
a(I6
I34
tp3689
aa(lp3690
g1025
a(I20
I153
tp3691
aa(lp3692
g1028
a(I6
I34
tp3693
aa(lp3694
g1031
a(I693
I3360
tp3695
aa(lp3696
g1034
a(I0
I2240
tp3697
aa(lp3698
g1037
a(I0
I6720
tp3699
aa(lp3700
g1040
a(I2658
I158688
tp3701
aa(lp3702
g1043
a(I733
I8448
tp3703
aa(lp3704
g1046
a(I244
I860
tp3705
aa(lp3706
g1049
a(I0
I356
tp3707
aatp3708
Rp3709
aatp3710
Rp3711
aatp3712
Rp3713
aatp3714
Rp3715
.