ccollections
OrderedDict
p0
((lp1
(lp2
S'TPCHQ6'
p3
ag0
((lp4
(lp5
S'96000'
p6
ag0
((lp7
tp8
Rp9
aatp10
Rp11
aa(lp12
S'GDA'
p13
ag0
((lp14
(lp15
S'38400'
p16
ag0
((lp17
tp18
Rp19
aatp20
Rp21
aa(lp22
S'BlackScholes'
p23
ag0
((lp24
(lp25
S'1966080'
p26
ag0
((lp27
tp28
Rp29
aatp30
Rp31
aa(lp32
S'Kmeans23'
p33
ag0
((lp34
(lp35
S'1_320'
p36
ag0
((lp37
tp38
Rp39
aatp40
Rp41
aa(lp42
S'GEMM_Blocked'
p43
ag0
((lp44
(lp45
S''
p46
ag0
((lp47
tp48
Rp49
aatp50
Rp51
aatp52
Rp53
.