ccollections
OrderedDict
p0
((lp1
(lp2
S'DotProduct'
p3
ag0
((lp4
tp5
Rp6
aa(lp7
S'TPCHQ6'
p8
ag0
((lp9
(lp10
S'96000'
p11
ag0
((lp12
(lp13
S'TPCHQ6_96000_outerPar_1_tileSize_3000'
p14
ag0
((lp15
(lp16
S'cycle'
p17
aI33435
aa(lp18
S'lavgbw'
p19
aF45.93988335576491
aa(lp20
S'savgbw'
p21
aF0.0
aa(lp22
S'pcuUtil'
p23
a(I5
I64
tp24
aa(lp25
S'mcuUtil'
p26
a(I4
I64
tp27
aa(lp28
S'scuUtil'
p29
a(I4
I34
tp30
aa(lp31
S'ocuUtil'
p32
a(I7
I153
tp33
aa(lp34
S'mcUtil'
p35
a(I4
I34
tp36
aa(lp37
S'slinkUtil'
p38
a(I27
I3360
tp39
aa(lp40
S'vlinkUtil'
p41
a(I1
I2240
tp42
aa(lp43
S'clinkUtil'
p44
a(I0
I6720
tp45
aa(lp46
S'totalRegUtil'
p47
a(I632
I19712
tp48
aa(lp49
S'totalFUUtil'
p50
a(I240
I1120
tp51
aa(lp52
S'totalSBufUtil'
p53
a(I21
I139
tp54
aa(lp55
S'totalVBufUtil'
p56
a(I3
I36
tp57
aatp58
Rp59
aa(lp60
S'TPCHQ6_96000_outerPar_1_tileSize_6000'
p61
ag0
((lp62
(lp63
g17
aI31633
aa(lp64
g19
aF48.55688679543515
aa(lp65
g21
aF0.0
aa(lp66
g23
a(I5
I64
tp67
aa(lp68
g26
a(I4
I64
tp69
aa(lp70
g29
a(I4
I34
tp71
aa(lp72
g32
a(I7
I153
tp73
aa(lp74
g35
a(I4
I34
tp75
aa(lp76
g38
a(I22
I3360
tp77
aa(lp78
g41
a(I1
I2240
tp79
aa(lp80
g44
a(I0
I6720
tp81
aa(lp82
g47
a(I632
I19712
tp83
aa(lp84
g50
a(I240
I1120
tp85
aa(lp86
g53
a(I21
I139
tp87
aa(lp88
g56
a(I3
I36
tp89
aatp90
Rp91
aa(lp92
S'TPCHQ6_96000_outerPar_3_tileSize_3000'
p93
ag0
((lp94
(lp95
g17
aI33381
aa(lp96
g19
aF46.01419969443696
aa(lp97
g21
aF0.0
aa(lp98
g23
a(I11
I64
tp99
aa(lp100
g26
a(I12
I64
tp101
aa(lp102
g29
a(I12
I34
tp103
aa(lp104
g32
a(I17
I153
tp105
aa(lp106
g35
a(I12
I34
tp107
aa(lp108
g38
a(I112
I3360
tp109
aa(lp110
g41
a(I4
I2240
tp111
aa(lp112
g44
a(I0
I6720
tp113
aa(lp114
g47
a(I1873
I52992
tp115
aa(lp116
g50
a(I713
I2976
tp117
aa(lp118
g53
a(I57
I365
tp119
aa(lp120
g56
a(I9
I92
tp121
aatp122
Rp123
aa(lp124
S'TPCHQ6_96000_outerPar_3_tileSize_6000'
p125
ag0
((lp126
(lp127
g17
aI32712
aa(lp128
g19
aF46.95524578136463
aa(lp129
g21
aF0.0
aa(lp130
g23
a(I11
I64
tp131
aa(lp132
g26
a(I12
I64
tp133
aa(lp134
g29
a(I12
I34
tp135
aa(lp136
g32
a(I17
I153
tp137
aa(lp138
g35
a(I12
I34
tp139
aa(lp140
g38
a(I95
I3360
tp141
aa(lp142
g41
a(I4
I2240
tp143
aa(lp144
g44
a(I0
I6720
tp145
aa(lp146
g47
a(I1873
I52992
tp147
aa(lp148
g50
a(I713
I2976
tp149
aa(lp150
g53
a(I57
I365
tp151
aa(lp152
g56
a(I9
I92
tp153
aatp154
Rp155
aa(lp156
S'TPCHQ6_96000_outerPar_5_tileSize_3000'
p157
ag0
((lp158
(lp159
g17
aI32514
aa(lp160
g19
aF47.24118841114596
aa(lp161
g21
aF0.0
aa(lp162
g23
a(I17
I64
tp163
aa(lp164
g26
a(I20
I64
tp165
aa(lp166
g29
a(I20
I34
tp167
aa(lp168
g32
a(I27
I153
tp169
aa(lp170
g35
a(I20
I34
tp171
aa(lp172
g38
a(I273
I3360
tp173
aa(lp174
g41
a(I7
I2240
tp175
aa(lp176
g44
a(I0
I6720
tp177
aa(lp178
g47
a(I3118
I86272
tp179
aa(lp180
g50
a(I1187
I4832
tp181
aa(lp182
g53
a(I93
I591
tp183
aa(lp184
g56
a(I15
I148
tp185
aatp186
Rp187
aa(lp188
S'TPCHQ6_96000_outerPar_6_tileSize_400'
p189
ag0
((lp190
(lp191
g17
aI36846
aa(lp192
g19
aF41.687021657710474
aa(lp193
g21
aF0.0
aa(lp194
g23
a(I20
I64
tp195
aa(lp196
g26
a(I24
I64
tp197
aa(lp198
g29
a(I24
I34
tp199
aa(lp200
g32
a(I32
I153
tp201
aa(lp202
g35
a(I24
I34
tp203
aa(lp204
g38
a(I339
I3360
tp205
aa(lp206
g41
a(I11
I2240
tp207
aa(lp208
g44
a(I0
I6720
tp209
aa(lp210
g47
a(I3742
I102912
tp211
aa(lp212
g50
a(I1424
I5760
tp213
aa(lp214
g53
a(I111
I704
tp215
aa(lp216
g56
a(I18
I176
tp217
aatp218
Rp219
aa(lp220
S'TPCHQ6_96000_outerPar_6_tileSize_1200'
p221
ag0
((lp222
(lp223
g17
aI33181
aa(lp224
g19
aF46.291552394442604
aa(lp225
g21
aF0.0
aa(lp226
g23
a(I20
I64
tp227
aa(lp228
g26
a(I24
I64
tp229
aa(lp230
g29
a(I24
I34
tp231
aa(lp232
g32
a(I32
I153
tp233
aa(lp234
g35
a(I24
I34
tp235
aa(lp236
g38
a(I337
I3360
tp237
aa(lp238
g41
a(I10
I2240
tp239
aa(lp240
g44
a(I0
I6720
tp241
aa(lp242
g47
a(I3742
I102912
tp243
aa(lp244
g50
a(I1424
I5760
tp245
aa(lp246
g53
a(I111
I704
tp247
aa(lp248
g56
a(I18
I176
tp249
aatp250
Rp251
aa(lp252
S'TPCHQ6_96000_outerPar_6_tileSize_2000'
p253
ag0
((lp254
(lp255
g17
aI33123
aa(lp256
g19
aF46.37261117652386
aa(lp257
g21
aF0.0
aa(lp258
g23
a(I20
I64
tp259
aa(lp260
g26
a(I24
I64
tp261
aa(lp262
g29
a(I24
I34
tp263
aa(lp264
g32
a(I32
I153
tp265
aa(lp266
g35
a(I24
I34
tp267
aa(lp268
g38
a(I337
I3360
tp269
aa(lp270
g41
a(I11
I2240
tp271
aa(lp272
g44
a(I0
I6720
tp273
aa(lp274
g47
a(I3742
I102912
tp275
aa(lp276
g50
a(I1424
I5760
tp277
aa(lp278
g53
a(I111
I704
tp279
aa(lp280
g56
a(I18
I176
tp281
aatp282
Rp283
aa(lp284
S'TPCHQ6_96000_outerPar_6_tileSize_2800'
p285
ag0
((lp286
(lp287
g17
aI32621
aa(lp288
g19
aF47.08623279482543
aa(lp289
g21
aF0.0
aa(lp290
g23
a(I20
I64
tp291
aa(lp292
g26
a(I24
I64
tp293
aa(lp294
g29
a(I24
I34
tp295
aa(lp296
g32
a(I32
I153
tp297
aa(lp298
g35
a(I24
I34
tp299
aa(lp300
g38
a(I344
I3360
tp301
aa(lp302
g41
a(I10
I2240
tp303
aa(lp304
g44
a(I0
I6720
tp305
aa(lp306
g47
a(I3742
I102912
tp307
aa(lp308
g50
a(I1424
I5760
tp309
aa(lp310
g53
a(I111
I704
tp311
aa(lp312
g56
a(I18
I176
tp313
aatp314
Rp315
aa(lp316
S'TPCHQ6_96000_outerPar_6_tileSize_3600'
p317
ag0
((lp318
(lp319
g17
aI32361
aa(lp320
g19
aF47.464540650783356
aa(lp321
g21
aF0.0
aa(lp322
g23
a(I20
I64
tp323
aa(lp324
g26
a(I24
I64
tp325
aa(lp326
g29
a(I24
I34
tp327
aa(lp328
g32
a(I32
I153
tp329
aa(lp330
g35
a(I24
I34
tp331
aa(lp332
g38
a(I343
I3360
tp333
aa(lp334
g41
a(I11
I2240
tp335
aa(lp336
g44
a(I0
I6720
tp337
aa(lp338
g47
a(I3742
I102912
tp339
aa(lp340
g50
a(I1424
I5760
tp341
aa(lp342
g53
a(I111
I704
tp343
aa(lp344
g56
a(I18
I176
tp345
aatp346
Rp347
aa(lp348
S'TPCHQ6_96000_outerPar_8_tileSize_400'
p349
ag0
((lp350
(lp351
g17
aI35423
aa(lp352
g19
aF43.36165768003839
aa(lp353
g21
aF0.0
aa(lp354
g23
a(I27
I64
tp355
aa(lp356
g26
a(I32
I64
tp357
aa(lp358
g29
a(I32
I34
tp359
aa(lp360
g32
a(I42
I153
tp361
aa(lp362
g35
a(I32
I34
tp363
aa(lp364
g38
a(I479
I3360
tp365
aa(lp366
g41
a(I17
I2240
tp367
aa(lp368
g44
a(I0
I6720
tp369
aa(lp370
g47
a(I4993
I137728
tp371
aa(lp372
g50
a(I1898
I7712
tp373
aa(lp374
g53
a(I149
I938
tp375
aa(lp376
g56
a(I24
I236
tp377
aatp378
Rp379
aa(lp380
S'TPCHQ6_96000_outerPar_8_tileSize_1200'
p381
ag0
((lp382
(lp383
g17
aI33196
aa(lp384
g19
aF46.27063501626702
aa(lp385
g21
aF0.0
aa(lp386
g23
a(I27
I64
tp387
aa(lp388
g26
a(I32
I64
tp389
aa(lp390
g29
a(I32
I34
tp391
aa(lp392
g32
a(I42
I153
tp393
aa(lp394
g35
a(I32
I34
tp395
aa(lp396
g38
a(I533
I3360
tp397
aa(lp398
g41
a(I34
I2240
tp399
aa(lp400
g44
a(I0
I6720
tp401
aa(lp402
g47
a(I4993
I137728
tp403
aa(lp404
g50
a(I1898
I7712
tp405
aa(lp406
g53
a(I149
I938
tp407
aa(lp408
g56
a(I24
I236
tp409
aatp410
Rp411
aa(lp412
S'TPCHQ6_96000_outerPar_8_tileSize_2000'
p413
ag0
((lp414
(lp415
g17
aI31906
aa(lp416
g19
aF48.14141540776029
aa(lp417
g21
aF0.0
aa(lp418
g23
a(I27
I64
tp419
aa(lp420
g26
a(I32
I64
tp421
aa(lp422
g29
a(I32
I34
tp423
aa(lp424
g32
a(I42
I153
tp425
aa(lp426
g35
a(I32
I34
tp427
aa(lp428
g38
a(I502
I3360
tp429
aa(lp430
g41
a(I26
I2240
tp431
aa(lp432
g44
a(I0
I6720
tp433
aa(lp434
g47
a(I4993
I137728
tp435
aa(lp436
g50
a(I1898
I7712
tp437
aa(lp438
g53
a(I149
I938
tp439
aa(lp440
g56
a(I24
I236
tp441
aatp442
Rp443
aa(lp444
S'TPCHQ6_96000_outerPar_8_tileSize_2800'
p445
ag0
((lp446
(lp447
g17
aI32844
aa(lp448
g19
aF46.766532700036535
aa(lp449
g21
aF0.0
aa(lp450
g23
a(I27
I64
tp451
aa(lp452
g26
a(I32
I64
tp453
aa(lp454
g29
a(I32
I34
tp455
aa(lp456
g32
a(I42
I153
tp457
aa(lp458
g35
a(I32
I34
tp459
aa(lp460
g38
a(I481
I3360
tp461
aa(lp462
g41
a(I17
I2240
tp463
aa(lp464
g44
a(I0
I6720
tp465
aa(lp466
g47
a(I4993
I137728
tp467
aa(lp468
g50
a(I1898
I7712
tp469
aa(lp470
g53
a(I149
I938
tp471
aa(lp472
g56
a(I24
I236
tp473
aatp474
Rp475
aa(lp476
S'TPCHQ6_96000_outerPar_2_tileSize_16'
p477
ag0
((lp478
(lp479
g17
aI405792
aa(lp480
g19
aF3.785190442394133
aa(lp481
g21
aF0.0
aa(lp482
g23
a(I8
I64
tp483
aa(lp484
g26
a(I8
I64
tp485
aa(lp486
g29
a(I8
I34
tp487
aa(lp488
g32
a(I12
I153
tp489
aa(lp490
g35
a(I8
I34
tp491
aa(lp492
g38
a(I105
I3360
tp493
aa(lp494
g41
a(I3
I2240
tp495
aa(lp496
g44
a(I0
I6720
tp497
aa(lp498
g47
a(I1252
I36352
tp499
aa(lp500
g50
a(I476
I2048
tp501
aa(lp502
g53
a(I39
I252
tp503
aa(lp504
g56
a(I6
I64
tp505
aatp506
Rp507
aa(lp508
S'TPCHQ6_96000_outerPar_2_tileSize_48'
p509
ag0
((lp510
(lp511
g17
aI137843
aa(lp512
g19
aF11.143112091292268
aa(lp513
g21
aF0.0
aa(lp514
g23
a(I8
I64
tp515
aa(lp516
g26
a(I8
I64
tp517
aa(lp518
g29
a(I8
I34
tp519
aa(lp520
g32
a(I12
I153
tp521
aa(lp522
g35
a(I8
I34
tp523
aa(lp524
g38
a(I75
I3360
tp525
aa(lp526
g41
a(I2
I2240
tp527
aa(lp528
g44
a(I0
I6720
tp529
aa(lp530
g47
a(I1252
I36352
tp531
aa(lp532
g50
a(I476
I2048
tp533
aa(lp534
g53
a(I39
I252
tp535
aa(lp536
g56
a(I6
I64
tp537
aatp538
Rp539
aa(lp540
S'TPCHQ6_96000_outerPar_2_tileSize_80'
p541
ag0
((lp542
(lp543
g17
aI99063
aa(lp544
g19
aF15.505284515914116
aa(lp545
g21
aF0.0
aa(lp546
g23
a(I8
I64
tp547
aa(lp548
g26
a(I8
I64
tp549
aa(lp550
g29
a(I8
I34
tp551
aa(lp552
g32
a(I12
I153
tp553
aa(lp554
g35
a(I8
I34
tp555
aa(lp556
g38
a(I74
I3360
tp557
aa(lp558
g41
a(I2
I2240
tp559
aa(lp560
g44
a(I0
I6720
tp561
aa(lp562
g47
a(I1252
I36352
tp563
aa(lp564
g50
a(I476
I2048
tp565
aa(lp566
g53
a(I39
I252
tp567
aa(lp568
g56
a(I6
I64
tp569
aatp570
Rp571
aa(lp572
S'TPCHQ6_96000_outerPar_2_tileSize_112'
p573
ag0
((lp574
(lp575
g17
aI78569
aa(lp576
g19
aF19.549695172396238
aa(lp577
g21
aF0.0
aa(lp578
g23
a(I8
I64
tp579
aa(lp580
g26
a(I8
I64
tp581
aa(lp582
g29
a(I8
I34
tp583
aa(lp584
g32
a(I12
I153
tp585
aa(lp586
g35
a(I8
I34
tp587
aa(lp588
g38
a(I70
I3360
tp589
aa(lp590
g41
a(I2
I2240
tp591
aa(lp592
g44
a(I0
I6720
tp593
aa(lp594
g47
a(I1252
I36352
tp595
aa(lp596
g50
a(I476
I2048
tp597
aa(lp598
g53
a(I39
I252
tp599
aa(lp600
g56
a(I6
I64
tp601
aatp602
Rp603
aa(lp604
S'TPCHQ6_96000_outerPar_2_tileSize_144'
p605
ag0
((lp606
(lp607
g17
aI64694
aa(lp608
g19
aF23.7425418122237
aa(lp609
g21
aF0.0
aa(lp610
g23
a(I8
I64
tp611
aa(lp612
g26
a(I8
I64
tp613
aa(lp614
g29
a(I8
I34
tp615
aa(lp616
g32
a(I12
I153
tp617
aa(lp618
g35
a(I8
I34
tp619
aa(lp620
g38
a(I80
I3360
tp621
aa(lp622
g41
a(I2
I2240
tp623
aa(lp624
g44
a(I0
I6720
tp625
aa(lp626
g47
a(I1252
I36352
tp627
aa(lp628
g50
a(I476
I2048
tp629
aa(lp630
g53
a(I39
I252
tp631
aa(lp632
g56
a(I6
I64
tp633
aatp634
Rp635
aa(lp636
S'TPCHQ6_96000_outerPar_2_tileSize_176'
p637
ag0
((lp638
(lp639
g17
aI59850
aa(lp640
g19
aF25.664160401002505
aa(lp641
g21
aF0.0
aa(lp642
g23
a(I8
I64
tp643
aa(lp644
g26
a(I8
I64
tp645
aa(lp646
g29
a(I8
I34
tp647
aa(lp648
g32
a(I12
I153
tp649
aa(lp650
g35
a(I8
I34
tp651
aa(lp652
g38
a(I66
I3360
tp653
aa(lp654
g41
a(I2
I2240
tp655
aa(lp656
g44
a(I0
I6720
tp657
aa(lp658
g47
a(I1252
I36352
tp659
aa(lp660
g50
a(I476
I2048
tp661
aa(lp662
g53
a(I39
I252
tp663
aa(lp664
g56
a(I6
I64
tp665
aatp666
Rp667
aa(lp668
S'TPCHQ6_96000_outerPar_2_tileSize_208'
p669
ag0
((lp670
(lp671
g17
aI55820
aa(lp672
g19
aF27.517018989609458
aa(lp673
g21
aF0.0
aa(lp674
g23
a(I8
I64
tp675
aa(lp676
g26
a(I8
I64
tp677
aa(lp678
g29
a(I8
I34
tp679
aa(lp680
g32
a(I12
I153
tp681
aa(lp682
g35
a(I8
I34
tp683
aa(lp684
g38
a(I69
I3360
tp685
aa(lp686
g41
a(I2
I2240
tp687
aa(lp688
g44
a(I0
I6720
tp689
aa(lp690
g47
a(I1252
I36352
tp691
aa(lp692
g50
a(I476
I2048
tp693
aa(lp694
g53
a(I39
I252
tp695
aa(lp696
g56
a(I6
I64
tp697
aatp698
Rp699
aa(lp700
S'TPCHQ6_96000_outerPar_2_tileSize_240'
p701
ag0
((lp702
(lp703
g17
aI51062
aa(lp704
g19
aF30.081077905291608
aa(lp705
g21
aF0.0
aa(lp706
g23
a(I8
I64
tp707
aa(lp708
g26
a(I8
I64
tp709
aa(lp710
g29
a(I8
I34
tp711
aa(lp712
g32
a(I12
I153
tp713
aa(lp714
g35
a(I8
I34
tp715
aa(lp716
g38
a(I80
I3360
tp717
aa(lp718
g41
a(I2
I2240
tp719
aa(lp720
g44
a(I0
I6720
tp721
aa(lp722
g47
a(I1252
I36352
tp723
aa(lp724
g50
a(I476
I2048
tp725
aa(lp726
g53
a(I39
I252
tp727
aa(lp728
g56
a(I6
I64
tp729
aatp730
Rp731
aa(lp732
S'TPCHQ6_96000_outerPar_4_tileSize_16'
p733
ag0
((lp734
(lp735
g17
aI201953
aa(lp736
g19
aF7.605730046099835
aa(lp737
g21
aF0.0
aa(lp738
g23
a(I14
I64
tp739
aa(lp740
g26
a(I16
I64
tp741
aa(lp742
g29
a(I16
I34
tp743
aa(lp744
g32
a(I22
I153
tp745
aa(lp746
g35
a(I16
I34
tp747
aa(lp748
g38
a(I217
I3360
tp749
aa(lp750
g41
a(I5
I2240
tp751
aa(lp752
g44
a(I0
I6720
tp753
aa(lp754
g47
a(I2495
I69632
tp755
aa(lp756
g50
a(I950
I3904
tp757
aa(lp758
g53
a(I75
I478
tp759
aa(lp760
g56
a(I12
I120
tp761
aatp762
Rp763
aa(lp764
S'TPCHQ6_96000_outerPar_4_tileSize_48'
p765
ag0
((lp766
(lp767
g17
aI84737
aa(lp768
g19
aF18.126674298122424
aa(lp769
g21
aF0.0
aa(lp770
g23
a(I14
I64
tp771
aa(lp772
g26
a(I16
I64
tp773
aa(lp774
g29
a(I16
I34
tp775
aa(lp776
g32
a(I22
I153
tp777
aa(lp778
g35
a(I16
I34
tp779
aa(lp780
g38
a(I207
I3360
tp781
aa(lp782
g41
a(I5
I2240
tp783
aa(lp784
g44
a(I0
I6720
tp785
aa(lp786
g47
a(I2495
I69632
tp787
aa(lp788
g50
a(I950
I3904
tp789
aa(lp790
g53
a(I75
I478
tp791
aa(lp792
g56
a(I12
I120
tp793
aatp794
Rp795
aa(lp796
S'TPCHQ6_96000_outerPar_4_tileSize_80'
p797
ag0
((lp798
(lp799
g17
aI60710
aa(lp800
g19
aF25.300609454785047
aa(lp801
g21
aF0.0
aa(lp802
g23
a(I14
I64
tp803
aa(lp804
g26
a(I16
I64
tp805
aa(lp806
g29
a(I16
I34
tp807
aa(lp808
g32
a(I22
I153
tp809
aa(lp810
g35
a(I16
I34
tp811
aa(lp812
g38
a(I186
I3360
tp813
aa(lp814
g41
a(I5
I2240
tp815
aa(lp816
g44
a(I0
I6720
tp817
aa(lp818
g47
a(I2495
I69632
tp819
aa(lp820
g50
a(I950
I3904
tp821
aa(lp822
g53
a(I75
I478
tp823
aa(lp824
g56
a(I12
I120
tp825
aatp826
Rp827
aa(lp828
S'TPCHQ6_96000_outerPar_4_tileSize_112'
p829
ag0
((lp830
(lp831
g17
aI53686
aa(lp832
g19
aF28.610811012181944
aa(lp833
g21
aF0.0
aa(lp834
g23
a(I14
I64
tp835
aa(lp836
g26
a(I16
I64
tp837
aa(lp838
g29
a(I16
I34
tp839
aa(lp840
g32
a(I22
I153
tp841
aa(lp842
g35
a(I16
I34
tp843
aa(lp844
g38
a(I202
I3360
tp845
aa(lp846
g41
a(I5
I2240
tp847
aa(lp848
g44
a(I0
I6720
tp849
aa(lp850
g47
a(I2495
I69632
tp851
aa(lp852
g50
a(I950
I3904
tp853
aa(lp854
g53
a(I75
I478
tp855
aa(lp856
g56
a(I12
I120
tp857
aatp858
Rp859
aa(lp860
S'TPCHQ6_96000_outerPar_6_tileSize_16'
p861
ag0
((lp862
(lp863
g17
aI164316
aa(lp864
g19
aF9.347841963046813
aa(lp865
g21
aF0.0
aa(lp866
g23
a(I20
I64
tp867
aa(lp868
g26
a(I24
I64
tp869
aa(lp870
g29
a(I24
I34
tp871
aa(lp872
g32
a(I32
I153
tp873
aa(lp874
g35
a(I24
I34
tp875
aa(lp876
g38
a(I375
I3360
tp877
aa(lp878
g41
a(I11
I2240
tp879
aa(lp880
g44
a(I0
I6720
tp881
aa(lp882
g47
a(I3742
I102912
tp883
aa(lp884
g50
a(I1424
I5760
tp885
aa(lp886
g53
a(I111
I704
tp887
aa(lp888
g56
a(I18
I176
tp889
aatp890
Rp891
aa(lp892
S'TPCHQ6_96000_outerPar_6_tileSize_48'
p893
ag0
((lp894
(lp895
g17
aI68913
aa(lp896
g19
aF22.28897305297985
aa(lp897
g21
aF0.0
aa(lp898
g23
a(I20
I64
tp899
aa(lp900
g26
a(I24
I64
tp901
aa(lp902
g29
a(I24
I34
tp903
aa(lp904
g32
a(I32
I153
tp905
aa(lp906
g35
a(I24
I34
tp907
aa(lp908
g38
a(I348
I3360
tp909
aa(lp910
g41
a(I10
I2240
tp911
aa(lp912
g44
a(I0
I6720
tp913
aa(lp914
g47
a(I3742
I102912
tp915
aa(lp916
g50
a(I1424
I5760
tp917
aa(lp918
g53
a(I111
I704
tp919
aa(lp920
g56
a(I18
I176
tp921
aatp922
Rp923
aa(lp924
S'TPCHQ6_96000_outerPar_6_tileSize_80'
p925
ag0
((lp926
(lp927
g17
aI49357
aa(lp928
g19
aF31.120205847194928
aa(lp929
g21
aF0.0
aa(lp930
g23
a(I20
I64
tp931
aa(lp932
g26
a(I24
I64
tp933
aa(lp934
g29
a(I24
I34
tp935
aa(lp936
g32
a(I32
I153
tp937
aa(lp938
g35
a(I24
I34
tp939
aa(lp940
g38
a(I347
I3360
tp941
aa(lp942
g41
a(I11
I2240
tp943
aa(lp944
g44
a(I0
I6720
tp945
aa(lp946
g47
a(I3742
I102912
tp947
aa(lp948
g50
a(I1424
I5760
tp949
aa(lp950
g53
a(I111
I704
tp951
aa(lp952
g56
a(I18
I176
tp953
aatp954
Rp955
aa(lp956
S'TPCHQ6_96000_outerPar_8_tileSize_16'
p957
ag0
((lp958
(lp959
g17
aI133521
aa(lp960
g19
aF11.503808389691509
aa(lp961
g21
aF0.0
aa(lp962
g23
a(I27
I64
tp963
aa(lp964
g26
a(I32
I64
tp965
aa(lp966
g29
a(I32
I34
tp967
aa(lp968
g32
a(I42
I153
tp969
aa(lp970
g35
a(I32
I34
tp971
aa(lp972
g38
a(I495
I3360
tp973
aa(lp974
g41
a(I17
I2240
tp975
aa(lp976
g44
a(I0
I6720
tp977
aa(lp978
g47
a(I4993
I137728
tp979
aa(lp980
g50
a(I1898
I7712
tp981
aa(lp982
g53
a(I149
I938
tp983
aa(lp984
g56
a(I24
I236
tp985
aatp986
Rp987
aa(lp988
S'TPCHQ6_96000_outerPar_8_tileSize_48'
p989
ag0
((lp990
(lp991
g17
aI54641
aa(lp992
g19
aF28.1107593199246
aa(lp993
g21
aF0.0
aa(lp994
g23
a(I27
I64
tp995
aa(lp996
g26
a(I32
I64
tp997
aa(lp998
g29
a(I32
I34
tp999
aa(lp1000
g32
a(I42
I153
tp1001
aa(lp1002
g35
a(I32
I34
tp1003
aa(lp1004
g38
a(I507
I3360
tp1005
aa(lp1006
g41
a(I19
I2240
tp1007
aa(lp1008
g44
a(I0
I6720
tp1009
aa(lp1010
g47
a(I4993
I137728
tp1011
aa(lp1012
g50
a(I1898
I7712
tp1013
aa(lp1014
g53
a(I149
I938
tp1015
aa(lp1016
g56
a(I24
I236
tp1017
aatp1018
Rp1019
aatp1020
Rp1021
aatp1022
Rp1023
aa(lp1024
S'GDA'
p1025
ag0
((lp1026
(lp1027
S'19200'
p1028
ag0
((lp1029
tp1030
Rp1031
aa(lp1032
S'192000'
p1033
ag0
((lp1034
(lp1035
S'GDA_192000_tileSize_16_outerPar_1_midPar_4'
p1036
ag0
((lp1037
(lp1038
S'cycle'
p1039
aI156652715
aa(lp1040
S'lavgbw'
p1041
aF0.3971117896041572
aa(lp1042
S'savgbw'
p1043
aF0.00016341880828557614
aa(lp1044
S'pcuUtil'
p1045
a(I11
I64
tp1046
aa(lp1047
S'mcuUtil'
p1048
a(I29
I64
tp1049
aa(lp1050
S'scuUtil'
p1051
a(I5
I34
tp1052
aa(lp1053
S'ocuUtil'
p1054
a(I8
I153
tp1055
aa(lp1056
S'mcUtil'
p1057
a(I5
I34
tp1058
aa(lp1059
S'slinkUtil'
p1060
a(I314
I3360
tp1061
aa(lp1062
S'vlinkUtil'
p1063
a(I0
I2240
tp1064
aa(lp1065
S'clinkUtil'
p1066
a(I0
I6720
tp1067
aa(lp1068
S'totalRegUtil'
p1069
a(I1151
I67264
tp1070
aa(lp1071
S'totalFUUtil'
p1072
a(I331
I3392
tp1073
aa(lp1074
S'totalSBufUtil'
p1075
a(I85
I400
tp1076
aa(lp1077
S'totalVBufUtil'
p1078
a(I0
I160
tp1079
aatp1080
Rp1081
aatp1082
Rp1083
aa(lp1084
S'38400'
p1085
ag0
((lp1086
(lp1087
S'GDA_38400_tileSize_1600_outerPar_6_midPar_1'
p1088
ag0
((lp1089
(lp1090
S'cycle'
p1091
aI29598189
aa(lp1092
S'lavgbw'
p1093
aF0.5034080970291797
aa(lp1094
S'savgbw'
p1095
aF0.0012454816069996716
aa(lp1096
S'pcuUtil'
p1097
a(I25
I64
tp1098
aa(lp1099
S'mcuUtil'
p1100
a(I56
I64
tp1101
aa(lp1102
S'scuUtil'
p1103
a(I15
I34
tp1104
aa(lp1105
S'ocuUtil'
p1106
a(I23
I153
tp1107
aa(lp1108
S'mcUtil'
p1109
a(I15
I34
tp1110
aa(lp1111
S'slinkUtil'
p1112
a(I638
I3360
tp1113
aa(lp1114
S'vlinkUtil'
p1115
a(I0
I2240
tp1116
aa(lp1117
S'clinkUtil'
p1118
a(I0
I6720
tp1119
aa(lp1120
S'totalRegUtil'
p1121
a(I1898
I143872
tp1122
aa(lp1123
S'totalFUUtil'
p1124
a(I577
I7424
tp1125
aa(lp1126
S'totalSBufUtil'
p1127
a(I182
I883
tp1128
aa(lp1129
S'totalVBufUtil'
p1130
a(I0
I324
tp1131
aatp1132
Rp1133
aatp1134
Rp1135
aatp1136
Rp1137
aa(lp1138
S'BlackScholes'
p1139
ag0
((lp1140
(lp1141
S'1966080'
p1142
ag0
((lp1143
(lp1144
S'BlackScholes_1966080_outerPar_1_tileSize_1024'
p1145
ag0
((lp1146
(lp1147
S'cycle'
p1148
aI1248537
aa(lp1149
S'lavgbw'
p1150
aF37.79296889078978
aa(lp1151
S'savgbw'
p1152
aF6.298828148464963
aa(lp1153
S'pcuUtil'
p1154
a(I37
I64
tp1155
aa(lp1156
S'mcuUtil'
p1157
a(I7
I64
tp1158
aa(lp1159
S'scuUtil'
p1160
a(I7
I34
tp1161
aa(lp1162
S'ocuUtil'
p1163
a(I9
I153
tp1164
aa(lp1165
S'mcUtil'
p1166
a(I7
I34
tp1167
aa(lp1168
S'slinkUtil'
p1169
a(I125
I3360
tp1170
aa(lp1171
S'vlinkUtil'
p1172
a(I154
I2240
tp1173
aa(lp1174
S'clinkUtil'
p1175
a(I0
I6720
tp1176
aa(lp1177
S'totalRegUtil'
p1178
a(I9069
I77888
tp1179
aa(lp1180
S'totalFUUtil'
p1181
a(I2821
I4672
tp1182
aa(lp1183
S'totalSBufUtil'
p1184
a(I37
I453
tp1185
aa(lp1186
S'totalVBufUtil'
p1187
a(I96
I176
tp1188
aatp1189
Rp1190
aa(lp1191
S'BlackScholes_1966080_outerPar_1_tileSize_2048'
p1192
ag0
((lp1193
(lp1194
g1148
aI1167681
aa(lp1195
g1150
aF40.40994072867504
aa(lp1196
g1152
aF6.73499012144584
aa(lp1197
g1154
a(I37
I64
tp1198
aa(lp1199
g1157
a(I7
I64
tp1200
aa(lp1201
g1160
a(I7
I34
tp1202
aa(lp1203
g1163
a(I9
I153
tp1204
aa(lp1205
g1166
a(I7
I34
tp1206
aa(lp1207
g1169
a(I111
I3360
tp1208
aa(lp1209
g1172
a(I186
I2240
tp1210
aa(lp1211
g1175
a(I0
I6720
tp1212
aa(lp1213
g1178
a(I9069
I77888
tp1214
aa(lp1215
g1181
a(I2821
I4672
tp1216
aa(lp1217
g1184
a(I37
I453
tp1218
aa(lp1219
g1187
a(I96
I176
tp1220
aatp1221
Rp1222
aa(lp1223
S'BlackScholes_1966080_outerPar_1_tileSize_3072'
p1224
ag0
((lp1225
(lp1226
g1148
aI1238092
aa(lp1227
g1150
aF38.11180429241122
aa(lp1228
g1152
aF6.351967382068537
aa(lp1229
g1154
a(I37
I64
tp1230
aa(lp1231
g1157
a(I7
I64
tp1232
aa(lp1233
g1160
a(I7
I34
tp1234
aa(lp1235
g1163
a(I9
I153
tp1236
aa(lp1237
g1166
a(I7
I34
tp1238
aa(lp1239
g1169
a(I152
I3360
tp1240
aa(lp1241
g1172
a(I162
I2240
tp1242
aa(lp1243
g1175
a(I0
I6720
tp1244
aa(lp1245
g1178
a(I9069
I77888
tp1246
aa(lp1247
g1181
a(I2821
I4672
tp1248
aa(lp1249
g1184
a(I37
I453
tp1250
aa(lp1251
g1187
a(I96
I176
tp1252
aatp1253
Rp1254
aa(lp1255
S'BlackScholes_1966080_outerPar_1_tileSize_4096'
p1256
ag0
((lp1257
(lp1258
g1148
aI1150591
aa(lp1259
g1150
aF41.01015912691825
aa(lp1260
g1152
aF6.835026521153042
aa(lp1261
g1154
a(I37
I64
tp1262
aa(lp1263
g1157
a(I7
I64
tp1264
aa(lp1265
g1160
a(I7
I34
tp1266
aa(lp1267
g1163
a(I9
I153
tp1268
aa(lp1269
g1166
a(I7
I34
tp1270
aa(lp1271
g1169
a(I128
I3360
tp1272
aa(lp1273
g1172
a(I154
I2240
tp1274
aa(lp1275
g1175
a(I0
I6720
tp1276
aa(lp1277
g1178
a(I9069
I77888
tp1278
aa(lp1279
g1181
a(I2821
I4672
tp1280
aa(lp1281
g1184
a(I37
I453
tp1282
aa(lp1283
g1187
a(I96
I176
tp1284
aatp1285
Rp1286
aa(lp1287
S'BlackScholes_1966080_outerPar_1_tileSize_5120'
p1288
ag0
((lp1289
(lp1290
g1148
aI1123589
aa(lp1291
g1150
aF41.995711955172226
aa(lp1292
g1152
aF6.999285325862037
aa(lp1293
g1154
a(I37
I64
tp1294
aa(lp1295
g1157
a(I7
I64
tp1296
aa(lp1297
g1160
a(I7
I34
tp1298
aa(lp1299
g1163
a(I9
I153
tp1300
aa(lp1301
g1166
a(I7
I34
tp1302
aa(lp1303
g1169
a(I116
I3360
tp1304
aa(lp1305
g1172
a(I173
I2240
tp1306
aa(lp1307
g1175
a(I0
I6720
tp1308
aa(lp1309
g1178
a(I9069
I77888
tp1310
aa(lp1311
g1181
a(I2821
I4672
tp1312
aa(lp1313
g1184
a(I37
I453
tp1314
aa(lp1315
g1187
a(I96
I176
tp1316
aatp1317
Rp1318
aa(lp1319
S'BlackScholes_1966080_outerPar_1_tileSize_6144'
p1320
ag0
((lp1321
(lp1322
g1148
aI1118236
aa(lp1323
g1150
aF42.19674558858774
aa(lp1324
g1152
aF7.03279093143129
aa(lp1325
g1154
a(I37
I64
tp1326
aa(lp1327
g1157
a(I7
I64
tp1328
aa(lp1329
g1160
a(I7
I34
tp1330
aa(lp1331
g1163
a(I9
I153
tp1332
aa(lp1333
g1166
a(I7
I34
tp1334
aa(lp1335
g1169
a(I114
I3360
tp1336
aa(lp1337
g1172
a(I194
I2240
tp1338
aa(lp1339
g1175
a(I0
I6720
tp1340
aa(lp1341
g1178
a(I9069
I77888
tp1342
aa(lp1343
g1181
a(I2821
I4672
tp1344
aa(lp1345
g1184
a(I37
I453
tp1346
aa(lp1347
g1187
a(I96
I176
tp1348
aatp1349
Rp1350
aa(lp1351
S'BlackScholes_1966080_outerPar_1_tileSize_7168'
p1352
ag0
((lp1353
(lp1354
g1148
aI1116949
aa(lp1355
g1150
aF42.24536661924583
aa(lp1356
g1152
aF7.040894436540971
aa(lp1357
g1154
a(I37
I64
tp1358
aa(lp1359
g1157
a(I7
I64
tp1360
aa(lp1361
g1160
a(I7
I34
tp1362
aa(lp1363
g1163
a(I9
I153
tp1364
aa(lp1365
g1166
a(I7
I34
tp1366
aa(lp1367
g1169
a(I103
I3360
tp1368
aa(lp1369
g1172
a(I195
I2240
tp1370
aa(lp1371
g1175
a(I0
I6720
tp1372
aa(lp1373
g1178
a(I9069
I77888
tp1374
aa(lp1375
g1181
a(I2821
I4672
tp1376
aa(lp1377
g1184
a(I37
I453
tp1378
aa(lp1379
g1187
a(I96
I176
tp1380
aatp1381
Rp1382
aa(lp1383
S'BlackScholes_1966080_outerPar_1_tileSize_8192'
p1384
ag0
((lp1385
(lp1386
g1148
aI1114544
aa(lp1387
g1150
aF42.33652507213712
aa(lp1388
g1152
aF7.056087512022854
aa(lp1389
g1154
a(I37
I64
tp1390
aa(lp1391
g1157
a(I7
I64
tp1392
aa(lp1393
g1160
a(I7
I34
tp1394
aa(lp1395
g1163
a(I9
I153
tp1396
aa(lp1397
g1166
a(I7
I34
tp1398
aa(lp1399
g1169
a(I98
I3360
tp1400
aa(lp1401
g1172
a(I196
I2240
tp1402
aa(lp1403
g1175
a(I0
I6720
tp1404
aa(lp1405
g1178
a(I9069
I77888
tp1406
aa(lp1407
g1181
a(I2821
I4672
tp1408
aa(lp1409
g1184
a(I37
I453
tp1410
aa(lp1411
g1187
a(I96
I176
tp1412
aatp1413
Rp1414
aa(lp1415
S'BlackScholes_1966080_outerPar_1_tileSize_16384'
p1416
ag0
((lp1417
(lp1418
g1148
aI1106333
aa(lp1419
g1150
aF42.65073897280475
aa(lp1420
g1152
aF7.1084564954674585
aa(lp1421
g1154
a(I37
I64
tp1422
aa(lp1423
g1157
a(I7
I64
tp1424
aa(lp1425
g1160
a(I7
I34
tp1426
aa(lp1427
g1163
a(I9
I153
tp1428
aa(lp1429
g1166
a(I7
I34
tp1430
aa(lp1431
g1169
a(I116
I3360
tp1432
aa(lp1433
g1172
a(I191
I2240
tp1434
aa(lp1435
g1175
a(I0
I6720
tp1436
aa(lp1437
g1178
a(I9069
I80464
tp1438
aa(lp1439
g1181
a(I2821
I4784
tp1440
aa(lp1441
g1184
a(I37
I453
tp1442
aa(lp1443
g1187
a(I96
I176
tp1444
aatp1445
Rp1446
aa(lp1447
S'BlackScholes_1966080_outerPar_1_tileSize_32768'
p1448
ag0
((lp1449
(lp1450
g1148
aI1090177
aa(lp1451
g1150
aF43.282806369974786
aa(lp1452
g1152
aF7.2138010616624655
aa(lp1453
g1154
a(I37
I64
tp1454
aa(lp1455
g1157
a(I7
I64
tp1456
aa(lp1457
g1160
a(I7
I34
tp1458
aa(lp1459
g1163
a(I9
I153
tp1460
aa(lp1461
g1166
a(I7
I34
tp1462
aa(lp1463
g1169
a(I120
I3360
tp1464
aa(lp1465
g1172
a(I199
I2240
tp1466
aa(lp1467
g1175
a(I0
I6720
tp1468
aa(lp1469
g1178
a(I9069
I80464
tp1470
aa(lp1471
g1181
a(I2821
I4784
tp1472
aa(lp1473
g1184
a(I37
I453
tp1474
aa(lp1475
g1187
a(I96
I176
tp1476
aatp1477
Rp1478
aa(lp1479
S'BlackScholes_1966080_outerPar_1_tileSize_49152'
p1480
ag0
((lp1481
(lp1482
g1148
aI1094698
aa(lp1483
g1150
aF43.104052441860674
aa(lp1484
g1152
aF7.184008740310112
aa(lp1485
g1154
a(I37
I64
tp1486
aa(lp1487
g1157
a(I7
I64
tp1488
aa(lp1489
g1160
a(I7
I34
tp1490
aa(lp1491
g1163
a(I9
I153
tp1492
aa(lp1493
g1166
a(I7
I34
tp1494
aa(lp1495
g1169
a(I122
I3360
tp1496
aa(lp1497
g1172
a(I178
I2240
tp1498
aa(lp1499
g1175
a(I0
I6720
tp1500
aa(lp1501
g1178
a(I9069
I80464
tp1502
aa(lp1503
g1181
a(I2821
I4784
tp1504
aa(lp1505
g1184
a(I37
I453
tp1506
aa(lp1507
g1187
a(I96
I176
tp1508
aatp1509
Rp1510
aa(lp1511
S'BlackScholes_1966080_outerPar_1_tileSize_65536'
p1512
ag0
((lp1513
(lp1514
g1148
aI1103476
aa(lp1515
g1150
aF42.76116562571365
aa(lp1516
g1152
aF7.126860937618942
aa(lp1517
g1154
a(I37
I64
tp1518
aa(lp1519
g1157
a(I7
I64
tp1520
aa(lp1521
g1160
a(I7
I34
tp1522
aa(lp1523
g1163
a(I9
I153
tp1524
aa(lp1525
g1166
a(I7
I34
tp1526
aa(lp1527
g1169
a(I118
I3360
tp1528
aa(lp1529
g1172
a(I166
I2240
tp1530
aa(lp1531
g1175
a(I0
I6720
tp1532
aa(lp1533
g1178
a(I9069
I80464
tp1534
aa(lp1535
g1181
a(I2821
I4784
tp1536
aa(lp1537
g1184
a(I37
I453
tp1538
aa(lp1539
g1187
a(I96
I176
tp1540
aatp1541
Rp1542
aa(lp1543
S'BlackScholes_1966080_outerPar_1_tileSize_81920'
p1544
ag0
((lp1545
(lp1546
g1148
aI1104239
aa(lp1547
g1150
aF42.73161878904838
aa(lp1548
g1152
aF7.121936464841398
aa(lp1549
g1154
a(I37
I64
tp1550
aa(lp1551
g1157
a(I7
I64
tp1552
aa(lp1553
g1160
a(I7
I34
tp1554
aa(lp1555
g1163
a(I9
I153
tp1556
aa(lp1557
g1166
a(I7
I34
tp1558
aa(lp1559
g1169
a(I118
I3360
tp1560
aa(lp1561
g1172
a(I213
I2240
tp1562
aa(lp1563
g1175
a(I0
I6720
tp1564
aa(lp1565
g1178
a(I9069
I80464
tp1566
aa(lp1567
g1181
a(I2821
I4784
tp1568
aa(lp1569
g1184
a(I37
I453
tp1570
aa(lp1571
g1187
a(I96
I176
tp1572
aatp1573
Rp1574
aa(lp1575
S'BlackScholes_1966080_outerPar_1_tileSize_98304'
p1576
ag0
((lp1577
(lp1578
g1148
aI1098941
aa(lp1579
g1150
aF42.93762813472243
aa(lp1580
g1152
aF7.156271355787071
aa(lp1581
g1154
a(I37
I64
tp1582
aa(lp1583
g1157
a(I7
I64
tp1584
aa(lp1585
g1160
a(I7
I34
tp1586
aa(lp1587
g1163
a(I9
I153
tp1588
aa(lp1589
g1166
a(I7
I34
tp1590
aa(lp1591
g1169
a(I122
I3360
tp1592
aa(lp1593
g1172
a(I172
I2240
tp1594
aa(lp1595
g1175
a(I0
I6720
tp1596
aa(lp1597
g1178
a(I9069
I80464
tp1598
aa(lp1599
g1181
a(I2821
I4784
tp1600
aa(lp1601
g1184
a(I37
I453
tp1602
aa(lp1603
g1187
a(I96
I176
tp1604
aatp1605
Rp1606
aa(lp1607
S'BlackScholes_1966080_outerPar_1_tileSize_131072'
p1608
ag0
((lp1609
(lp1610
g1148
aI1095237
aa(lp1611
g1150
aF43.08283960457874
aa(lp1612
g1152
aF7.1804732674297895
aa(lp1613
g1154
a(I37
I64
tp1614
aa(lp1615
g1157
a(I7
I64
tp1616
aa(lp1617
g1160
a(I7
I34
tp1618
aa(lp1619
g1163
a(I9
I153
tp1620
aa(lp1621
g1166
a(I7
I34
tp1622
aa(lp1623
g1169
a(I129
I3360
tp1624
aa(lp1625
g1172
a(I155
I2240
tp1626
aa(lp1627
g1175
a(I0
I6720
tp1628
aa(lp1629
g1178
a(I9069
I80464
tp1630
aa(lp1631
g1181
a(I2821
I4784
tp1632
aa(lp1633
g1184
a(I37
I453
tp1634
aa(lp1635
g1187
a(I96
I176
tp1636
aatp1637
Rp1638
aatp1639
Rp1640
aatp1641
Rp1642
aa(lp1643
S'Kmeans_plasticine'
p1644
ag0
((lp1645
(lp1646
S'1_6144'
p1647
ag0
((lp1648
(lp1649
S'Kmeans_plasticine_1_6144_tileSize_128'
p1650
ag0
((lp1651
(lp1652
g1148
aI5963667
aa(lp1653
g1150
aF0.3968994244648469
aa(lp1654
g1152
aF0.001287798262377829
aa(lp1655
g1154
a(I8
I64
tp1656
aa(lp1657
g1157
a(I11
I64
tp1658
aa(lp1659
g1160
a(I3
I34
tp1660
aa(lp1661
g1163
a(I9
I153
tp1662
aa(lp1663
g1166
a(I3
I34
tp1664
aa(lp1665
g1169
a(I57
I3360
tp1666
aa(lp1667
g1172
a(I6
I2240
tp1668
aa(lp1669
g1175
a(I0
I6720
tp1670
aa(lp1671
g1178
a(I605
I37136
tp1672
aa(lp1673
g1181
a(I249
I1936
tp1674
aa(lp1675
g1184
a(I34
I221
tp1676
aa(lp1677
g1187
a(I1
I76
tp1678
aatp1679
Rp1680
aa(lp1681
S'Kmeans_plasticine_1_6144_tileSize_256'
p1682
ag0
((lp1683
(lp1684
g1148
aI5950139
aa(lp1685
g1150
aF0.3978017992520847
aa(lp1686
g1152
aF0.0012907261494227277
aa(lp1687
g1154
a(I8
I64
tp1688
aa(lp1689
g1157
a(I11
I64
tp1690
aa(lp1691
g1160
a(I3
I34
tp1692
aa(lp1693
g1163
a(I9
I153
tp1694
aa(lp1695
g1166
a(I3
I34
tp1696
aa(lp1697
g1169
a(I48
I3360
tp1698
aa(lp1699
g1172
a(I7
I2240
tp1700
aa(lp1701
g1175
a(I0
I6720
tp1702
aa(lp1703
g1178
a(I605
I37136
tp1704
aa(lp1705
g1181
a(I249
I1936
tp1706
aa(lp1707
g1184
a(I34
I221
tp1708
aa(lp1709
g1187
a(I1
I76
tp1710
aatp1711
Rp1712
aa(lp1713
S'Kmeans_plasticine_1_6144_tileSize_384'
p1714
ag0
((lp1715
(lp1716
g1148
aI5946286
aa(lp1717
g1150
aF0.39805956188451075
aa(lp1718
g1152
aF0.001291562498002955
aa(lp1719
g1154
a(I8
I64
tp1720
aa(lp1721
g1157
a(I11
I64
tp1722
aa(lp1723
g1160
a(I3
I34
tp1724
aa(lp1725
g1163
a(I9
I153
tp1726
aa(lp1727
g1166
a(I3
I34
tp1728
aa(lp1729
g1169
a(I54
I3360
tp1730
aa(lp1731
g1172
a(I2
I2240
tp1732
aa(lp1733
g1175
a(I0
I6720
tp1734
aa(lp1735
g1178
a(I605
I37136
tp1736
aa(lp1737
g1181
a(I249
I1936
tp1738
aa(lp1739
g1184
a(I34
I221
tp1740
aa(lp1741
g1187
a(I1
I76
tp1742
aatp1743
Rp1744
aa(lp1745
S'Kmeans_plasticine_1_6144_tileSize_512'
p1746
ag0
((lp1747
(lp1748
g1148
aI5945063
aa(lp1749
g1150
aF0.39814144946823943
aa(lp1750
g1152
aF0.0012918281942512636
aa(lp1751
g1154
a(I8
I64
tp1752
aa(lp1753
g1157
a(I11
I64
tp1754
aa(lp1755
g1160
a(I3
I34
tp1756
aa(lp1757
g1163
a(I9
I153
tp1758
aa(lp1759
g1166
a(I3
I34
tp1760
aa(lp1761
g1169
a(I62
I3360
tp1762
aa(lp1763
g1172
a(I9
I2240
tp1764
aa(lp1765
g1175
a(I0
I6720
tp1766
aa(lp1767
g1178
a(I605
I37136
tp1768
aa(lp1769
g1181
a(I249
I1936
tp1770
aa(lp1771
g1184
a(I34
I221
tp1772
aa(lp1773
g1187
a(I1
I76
tp1774
aatp1775
Rp1776
aa(lp1777
S'Kmeans_plasticine_1_6144_tileSize_1024'
p1778
ag0
((lp1779
(lp1780
g1148
aI5945409
aa(lp1781
g1150
aF0.3981182791629643
aa(lp1782
g1152
aF0.001291753014805205
aa(lp1783
g1154
a(I8
I64
tp1784
aa(lp1785
g1157
a(I11
I64
tp1786
aa(lp1787
g1160
a(I3
I34
tp1788
aa(lp1789
g1163
a(I9
I153
tp1790
aa(lp1791
g1166
a(I3
I34
tp1792
aa(lp1793
g1169
a(I54
I3360
tp1794
aa(lp1795
g1172
a(I1
I2240
tp1796
aa(lp1797
g1175
a(I0
I6720
tp1798
aa(lp1799
g1178
a(I605
I33088
tp1800
aa(lp1801
g1181
a(I249
I1760
tp1802
aa(lp1803
g1184
a(I34
I221
tp1804
aa(lp1805
g1187
a(I1
I76
tp1806
aatp1807
Rp1808
aatp1809
Rp1810
aatp1811
Rp1812
aa(lp1813
S'PageRank_plasticine'
p1814
ag0
((lp1815
(lp1816
S'1_491520_0.125'
p1817
ag0
((lp1818
tp1819
Rp1820
aatp1821
Rp1822
aa(lp1823
S'SPMV_CRS'
p1824
ag0
((lp1825
(lp1826
S''
p1827
ag0
((lp1828
(lp1829
S'SPMV_CRS__tileSize_80_tile_par_1_pt_par_1'
p1830
ag0
((lp1831
(lp1832
S'cycle'
p1833
aI93202
aa(lp1834
S'lavgbw'
p1835
aF1.1179159245509753
aa(lp1836
S'savgbw'
p1837
aF0.0206004163000794
aa(lp1838
S'pcuUtil'
p1839
a(I25
I64
tp1840
aa(lp1841
S'mcuUtil'
p1842
a(I6
I64
tp1843
aa(lp1844
S'scuUtil'
p1845
a(I5
I34
tp1846
aa(lp1847
S'ocuUtil'
p1848
a(I15
I153
tp1849
aa(lp1850
S'mcUtil'
p1851
a(I5
I34
tp1852
aa(lp1853
S'slinkUtil'
p1854
a(I303
I3360
tp1855
aa(lp1856
S'vlinkUtil'
p1857
a(I0
I2240
tp1858
aa(lp1859
S'clinkUtil'
p1860
a(I0
I6720
tp1861
aa(lp1862
S'totalRegUtil'
p1863
a(I868
I54912
tp1864
aa(lp1865
S'totalFUUtil'
p1866
a(I319
I3264
tp1867
aa(lp1868
S'totalSBufUtil'
p1869
a(I107
I363
tp1870
aa(lp1871
S'totalVBufUtil'
p1872
a(I1
I124
tp1873
aatp1874
Rp1875
aa(lp1876
S'SPMV_CRS__tileSize_80_tile_par_1_pt_par_2'
p1877
ag0
((lp1878
(lp1879
g1833
aI83538
aa(lp1880
g1835
aF1.2472407766525413
aa(lp1881
g1837
aF0.0229835523953171
aa(lp1882
g1839
a(I40
I64
tp1883
aa(lp1884
g1842
a(I9
I64
tp1885
aa(lp1886
g1845
a(I8
I34
tp1887
aa(lp1888
g1848
a(I22
I153
tp1889
aa(lp1890
g1851
a(I8
I34
tp1891
aa(lp1892
g1854
a(I524
I3360
tp1893
aa(lp1894
g1857
a(I0
I2240
tp1895
aa(lp1896
g1860
a(I0
I6720
tp1897
aa(lp1898
g1863
a(I1321
I86976
tp1899
aa(lp1900
g1866
a(I497
I5184
tp1901
aa(lp1902
g1869
a(I168
I566
tp1903
aa(lp1904
g1872
a(I2
I196
tp1905
aatp1906
Rp1907
aa(lp1908
S'SPMV_CRS__tileSize_80_tile_par_2_pt_par_1'
p1909
ag0
((lp1910
(lp1911
g1833
aI69732
aa(lp1912
g1835
aF1.4941777089428097
aa(lp1913
g1837
aF0.02753398726553089
aa(lp1914
g1839
a(I49
I64
tp1915
aa(lp1916
g1842
a(I12
I64
tp1917
aa(lp1918
g1845
a(I10
I34
tp1919
aa(lp1920
g1848
a(I28
I153
tp1921
aa(lp1922
g1851
a(I10
I34
tp1923
aa(lp1924
g1854
a(I675
I3360
tp1925
aa(lp1926
g1857
a(I0
I2240
tp1927
aa(lp1928
g1860
a(I0
I6720
tp1929
aa(lp1930
g1863
a(I1730
I108288
tp1931
aa(lp1932
g1866
a(I637
I6432
tp1933
aa(lp1934
g1869
a(I212
I708
tp1935
aa(lp1936
g1872
a(I2
I244
tp1937
aatp1938
Rp1939
aa(lp1940
S'SPMV_CRS__tileSize_144_tile_par_1_pt_par_1'
p1941
ag0
((lp1942
(lp1943
g1833
aI83563
aa(lp1944
g1835
aF1.1151346887976736
aa(lp1945
g1837
aF0.020679008652154662
aa(lp1946
g1839
a(I25
I64
tp1947
aa(lp1948
g1842
a(I6
I64
tp1949
aa(lp1950
g1845
a(I5
I34
tp1951
aa(lp1952
g1848
a(I15
I153
tp1953
aa(lp1954
g1851
a(I5
I34
tp1955
aa(lp1956
g1854
a(I307
I3360
tp1957
aa(lp1958
g1857
a(I0
I2240
tp1959
aa(lp1960
g1860
a(I0
I6720
tp1961
aa(lp1962
g1863
a(I868
I54912
tp1963
aa(lp1964
g1866
a(I319
I3264
tp1965
aa(lp1966
g1869
a(I107
I363
tp1967
aa(lp1968
g1872
a(I1
I124
tp1969
aatp1970
Rp1971
aa(lp1972
S'SPMV_CRS__tileSize_144_tile_par_1_pt_par_2'
p1973
ag0
((lp1974
(lp1975
g1833
aI74606
aa(lp1976
g1835
aF1.2490148245449428
aa(lp1977
g1837
aF0.023161676004610887
aa(lp1978
g1839
a(I40
I64
tp1979
aa(lp1980
g1842
a(I9
I64
tp1981
aa(lp1982
g1845
a(I8
I34
tp1983
aa(lp1984
g1848
a(I22
I153
tp1985
aa(lp1986
g1851
a(I8
I34
tp1987
aa(lp1988
g1854
a(I592
I3360
tp1989
aa(lp1990
g1857
a(I0
I2240
tp1991
aa(lp1992
g1860
a(I0
I6720
tp1993
aa(lp1994
g1863
a(I1321
I86976
tp1995
aa(lp1996
g1866
a(I497
I5184
tp1997
aa(lp1998
g1869
a(I168
I566
tp1999
aa(lp2000
g1872
a(I2
I196
tp2001
aatp2002
Rp2003
aa(lp2004
S'SPMV_CRS__tileSize_144_tile_par_2_pt_par_1'
p2005
ag0
((lp2006
(lp2007
g1833
aI69177
aa(lp2008
g1835
aF1.3470373100886133
aa(lp2009
g1837
aF0.02497940066785203
aa(lp2010
g1839
a(I49
I64
tp2011
aa(lp2012
g1842
a(I12
I64
tp2013
aa(lp2014
g1845
a(I10
I34
tp2015
aa(lp2016
g1848
a(I28
I153
tp2017
aa(lp2018
g1851
a(I10
I34
tp2019
aa(lp2020
g1854
a(I762
I3360
tp2021
aa(lp2022
g1857
a(I0
I2240
tp2023
aa(lp2024
g1860
a(I0
I6720
tp2025
aa(lp2026
g1863
a(I1730
I108288
tp2027
aa(lp2028
g1866
a(I637
I6432
tp2029
aa(lp2030
g1869
a(I212
I708
tp2031
aa(lp2032
g1872
a(I2
I244
tp2033
aatp2034
Rp2035
aa(lp2036
S'SPMV_CRS__tileSize_208_tile_par_1_pt_par_1'
p2037
ag0
((lp2038
(lp2039
g1833
aI80064
aa(lp2040
g1835
aF1.1191047162270185
aa(lp2041
g1837
aF0.02078337330135891
aa(lp2042
g1839
a(I25
I64
tp2043
aa(lp2044
g1842
a(I6
I64
tp2045
aa(lp2046
g1845
a(I5
I34
tp2047
aa(lp2048
g1848
a(I15
I153
tp2049
aa(lp2050
g1851
a(I5
I34
tp2051
aa(lp2052
g1854
a(I254
I3360
tp2053
aa(lp2054
g1857
a(I0
I2240
tp2055
aa(lp2056
g1860
a(I0
I6720
tp2057
aa(lp2058
g1863
a(I868
I54912
tp2059
aa(lp2060
g1866
a(I319
I3264
tp2061
aa(lp2062
g1869
a(I107
I363
tp2063
aa(lp2064
g1872
a(I1
I124
tp2065
aatp2066
Rp2067
aa(lp2068
S'SPMV_CRS__tileSize_208_tile_par_1_pt_par_2'
p2069
ag0
((lp2070
(lp2071
g1833
aI71824
aa(lp2072
g1835
aF1.2474938739140122
aa(lp2073
g1837
aF0.023167743372688798
aa(lp2074
g1839
a(I40
I64
tp2075
aa(lp2076
g1842
a(I9
I64
tp2077
aa(lp2078
g1845
a(I8
I34
tp2079
aa(lp2080
g1848
a(I22
I153
tp2081
aa(lp2082
g1851
a(I8
I34
tp2083
aa(lp2084
g1854
a(I527
I3360
tp2085
aa(lp2086
g1857
a(I0
I2240
tp2087
aa(lp2088
g1860
a(I0
I6720
tp2089
aa(lp2090
g1863
a(I1321
I86976
tp2091
aa(lp2092
g1866
a(I497
I5184
tp2093
aa(lp2094
g1869
a(I168
I566
tp2095
aa(lp2096
g1872
a(I2
I196
tp2097
aatp2098
Rp2099
aa(lp2100
S'SPMV_CRS__tileSize_208_tile_par_2_pt_par_1'
p2101
ag0
((lp2102
(lp2103
g1833
aI60012
aa(lp2104
g1835
aF1.493034726388056
aa(lp2105
g1837
aF0.027727787775778178
aa(lp2106
g1839
a(I49
I64
tp2107
aa(lp2108
g1842
a(I12
I64
tp2109
aa(lp2110
g1845
a(I10
I34
tp2111
aa(lp2112
g1848
a(I28
I153
tp2113
aa(lp2114
g1851
a(I10
I34
tp2115
aa(lp2116
g1854
a(I789
I3360
tp2117
aa(lp2118
g1857
a(I0
I2240
tp2119
aa(lp2120
g1860
a(I0
I6720
tp2121
aa(lp2122
g1863
a(I1730
I108288
tp2123
aa(lp2124
g1866
a(I637
I6432
tp2125
aa(lp2126
g1869
a(I212
I708
tp2127
aa(lp2128
g1872
a(I2
I244
tp2129
aatp2130
Rp2131
aatp2132
Rp2133
aatp2134
Rp2135
aa(lp2136
S'GEMM_Blocked'
p2137
ag0
((lp2138
(lp2139
g1827
ag0
((lp2140
(lp2141
S'GEMM_Blocked__tileSize_16_i_tileSize_16_loop_jj_1_loop_ii_1_loop_kk_1_loop_i_1_loop_k_1'
p2142
ag0
((lp2143
(lp2144
g1148
aI71521420
aa(lp2145
g1150
aF0.9383044128598118
aa(lp2146
g1152
aF0.01466100645093456
aa(lp2147
g1154
a(I18
I64
tp2148
aa(lp2149
g1157
a(I8
I64
tp2150
aa(lp2151
g1160
a(I3
I34
tp2152
aa(lp2153
g1163
a(I11
I153
tp2154
aa(lp2155
g1166
a(I3
I34
tp2156
aa(lp2157
g1169
a(I170
I3360
tp2158
aa(lp2159
g1172
a(I0
I2240
tp2160
aa(lp2161
g1175
a(I0
I6720
tp2162
aa(lp2163
g1178
a(I789
I46976
tp2164
aa(lp2165
g1181
a(I236
I2656
tp2166
aa(lp2167
g1184
a(I81
I287
tp2168
aa(lp2169
g1187
a(I0
I104
tp2170
aatp2171
Rp2172
aa(lp2173
S'GEMM_Blocked__tileSize_16_i_tileSize_16_loop_jj_1_loop_ii_1_loop_kk_1_loop_i_2_loop_k_1'
p2174
ag0
((lp2175
(lp2176
g1148
aI38484739
aa(lp2177
g1150
aF1.7437785923402003
aa(lp2178
g1152
aF0.02724654050531563
aa(lp2179
g1154
a(I25
I64
tp2180
aa(lp2181
g1157
a(I14
I64
tp2182
aa(lp2183
g1160
a(I4
I34
tp2184
aa(lp2185
g1163
a(I14
I153
tp2186
aa(lp2187
g1166
a(I4
I34
tp2188
aa(lp2189
g1169
a(I274
I3360
tp2190
aa(lp2191
g1172
a(I0
I2240
tp2192
aa(lp2193
g1175
a(I0
I6720
tp2194
aa(lp2195
g1178
a(I1076
I70304
tp2196
aa(lp2197
g1181
a(I303
I3904
tp2198
aa(lp2199
g1184
a(I114
I414
tp2200
aa(lp2201
g1187
a(I0
I156
tp2202
aatp2203
Rp2204
aa(lp2205
S'GEMM_Blocked__tileSize_16_i_tileSize_16_loop_jj_1_loop_ii_1_loop_kk_1_loop_i_2_loop_k_2'
p2206
ag0
((lp2207
(lp2208
g1148
aI28935759
aa(lp2209
g1150
aF2.319236346971234
aa(lp2210
g1152
aF0.03623806792142553
aa(lp2211
g1154
a(I27
I64
tp2212
aa(lp2213
g1157
a(I18
I64
tp2214
aa(lp2215
g1160
a(I4
I34
tp2216
aa(lp2217
g1163
a(I14
I153
tp2218
aa(lp2219
g1166
a(I4
I34
tp2220
aa(lp2221
g1169
a(I262
I3360
tp2222
aa(lp2223
g1172
a(I0
I2240
tp2224
aa(lp2225
g1175
a(I0
I6720
tp2226
aa(lp2227
g1178
a(I1312
I80736
tp2228
aa(lp2229
g1181
a(I377
I4416
tp2230
aa(lp2231
g1184
a(I130
I462
tp2232
aa(lp2233
g1187
a(I0
I180
tp2234
aatp2235
Rp2236
aa(lp2237
S'GEMM_Blocked__tileSize_16_i_tileSize_16_loop_jj_1_loop_ii_1_loop_kk_2_loop_i_1_loop_k_1'
p2238
ag0
((lp2239
(lp2240
g1148
aI36502225
aa(lp2241
g1150
aF1.8384869415494536
aa(lp2242
g1152
aF0.028726358461710212
aa(lp2243
g1154
a(I30
I64
tp2244
aa(lp2245
g1157
a(I14
I64
tp2246
aa(lp2247
g1160
a(I5
I34
tp2248
aa(lp2249
g1163
a(I17
I153
tp2250
aa(lp2251
g1166
a(I5
I34
tp2252
aa(lp2253
g1169
a(I359
I3360
tp2254
aa(lp2255
g1172
a(I0
I2240
tp2256
aa(lp2257
g1175
a(I0
I6720
tp2258
aa(lp2259
g1178
a(I1206
I79520
tp2260
aa(lp2261
g1181
a(I375
I4480
tp2262
aa(lp2263
g1184
a(I134
I477
tp2264
aa(lp2265
g1187
a(I0
I176
tp2266
aatp2267
Rp2268
aa(lp2269
S'GEMM_Blocked__tileSize_16_i_tileSize_16_loop_jj_1_loop_ii_1_loop_kk_2_loop_i_1_loop_k_2'
p2270
ag0
((lp2271
(lp2272
g1148
aI26960180
aa(lp2273
g1150
aF2.4891845677588207
aa(lp2274
g1152
aF0.03889350887123157
aa(lp2275
g1154
a(I32
I64
tp2276
aa(lp2277
g1157
a(I18
I64
tp2278
aa(lp2279
g1160
a(I5
I34
tp2280
aa(lp2281
g1163
a(I17
I153
tp2282
aa(lp2283
g1166
a(I5
I34
tp2284
aa(lp2285
g1169
a(I407
I3360
tp2286
aa(lp2287
g1172
a(I0
I2240
tp2288
aa(lp2289
g1175
a(I0
I6720
tp2290
aa(lp2291
g1178
a(I1442
I89952
tp2292
aa(lp2293
g1181
a(I449
I4992
tp2294
aa(lp2295
g1184
a(I150
I525
tp2296
aa(lp2297
g1187
a(I0
I200
tp2298
aatp2299
Rp2300
aa(lp2301
S'GEMM_Blocked__tileSize_16_i_tileSize_16_loop_jj_1_loop_ii_1_loop_kk_2_loop_i_2_loop_k_1'
p2302
ag0
((lp2303
(lp2304
g1148
aI19968305
aa(lp2305
g1150
aF3.3607691789563514
aa(lp2306
g1152
aF0.05251201842119299
aa(lp2307
g1154
a(I44
I64
tp2308
aa(lp2309
g1157
a(I26
I64
tp2310
aa(lp2311
g1160
a(I7
I34
tp2312
aa(lp2313
g1163
a(I23
I153
tp2314
aa(lp2315
g1166
a(I7
I34
tp2316
aa(lp2317
g1169
a(I535
I3360
tp2318
aa(lp2319
g1172
a(I0
I2240
tp2320
aa(lp2321
g1175
a(I0
I6720
tp2322
aa(lp2323
g1178
a(I1780
I126176
tp2324
aa(lp2325
g1181
a(I509
I6976
tp2326
aa(lp2327
g1184
a(I200
I731
tp2328
aa(lp2329
g1187
a(I0
I280
tp2330
aatp2331
Rp2332
aa(lp2333
S'GEMM_Blocked__tileSize_16_i_tileSize_16_loop_jj_1_loop_ii_1_loop_kk_2_loop_i_2_loop_k_2'
p2334
ag0
((lp2335
(lp2336
g1148
aI15225514
aa(lp2337
g1150
aF4.407658355573414
aa(lp2338
g1152
aF0.06886966180583459
aa(lp2339
g1154
a(I48
I64
tp2340
aa(lp2341
g1157
a(I34
I64
tp2342
aa(lp2343
g1160
a(I7
I34
tp2344
aa(lp2345
g1163
a(I23
I153
tp2346
aa(lp2347
g1166
a(I7
I34
tp2348
aa(lp2349
g1169
a(I662
I3360
tp2350
aa(lp2351
g1172
a(I0
I2240
tp2352
aa(lp2353
g1175
a(I0
I6720
tp2354
aa(lp2355
g1178
a(I2252
I147040
tp2356
aa(lp2357
g1181
a(I657
I8000
tp2358
aa(lp2359
g1184
a(I232
I827
tp2360
aa(lp2361
g1187
a(I0
I328
tp2362
aatp2363
Rp2364
aa(lp2365
S'GEMM_Blocked__tileSize_16_i_tileSize_16_loop_jj_1_loop_ii_2_loop_kk_1_loop_i_1_loop_k_2'
p2366
ag0
((lp2367
(lp2368
g1148
aI26373270
aa(lp2369
g1150
aF2.544578810287841
aa(lp2370
g1152
aF0.03975904391074751
aa(lp2371
g1154
a(I38
I64
tp2372
aa(lp2373
g1157
a(I20
I64
tp2374
aa(lp2375
g1160
a(I6
I34
tp2376
aa(lp2377
g1163
a(I23
I153
tp2378
aa(lp2379
g1166
a(I6
I34
tp2380
aa(lp2381
g1169
a(I507
I3360
tp2382
aa(lp2383
g1172
a(I0
I2240
tp2384
aa(lp2385
g1175
a(I0
I6720
tp2386
aa(lp2387
g1178
a(I1814
I104384
tp2388
aa(lp2389
g1181
a(I546
I5824
tp2390
aa(lp2391
g1184
a(I179
I627
tp2392
aa(lp2393
g1187
a(I0
I232
tp2394
aatp2395
Rp2396
aa(lp2397
S'GEMM_Blocked__tileSize_16_i_tileSize_16_loop_jj_1_loop_ii_2_loop_kk_1_loop_i_2_loop_k_2'
p2398
ag0
((lp2399
(lp2400
g1148
aI14668242
aa(lp2401
g1150
aF4.575112954913069
aa(lp2402
g1152
aF0.07148613992051671
aa(lp2403
g1154
a(I54
I64
tp2404
aa(lp2405
g1157
a(I36
I64
tp2406
aa(lp2407
g1160
a(I8
I34
tp2408
aa(lp2409
g1163
a(I29
I153
tp2410
aa(lp2411
g1166
a(I8
I34
tp2412
aa(lp2413
g1169
a(I786
I3360
tp2414
aa(lp2415
g1172
a(I0
I2240
tp2416
aa(lp2417
g1175
a(I0
I6720
tp2418
aa(lp2419
g1178
a(I2624
I161472
tp2420
aa(lp2421
g1181
a(I754
I8832
tp2422
aa(lp2423
g1184
a(I261
I929
tp2424
aa(lp2425
g1187
a(I0
I360
tp2426
aatp2427
Rp2428
aa(lp2429
S'GEMM_Blocked__tileSize_16_i_tileSize_16_loop_jj_1_loop_ii_2_loop_kk_2_loop_i_1_loop_k_2'
p2430
ag0
((lp2431
(lp2432
g1148
aI13866271
aa(lp2433
g1150
aF4.839719633346268
aa(lp2434
g1152
aF0.07562061927103544
aa(lp2435
g1154
a(I64
I64
tp2436
aa(lp2437
g1157
a(I36
I64
tp2438
aa(lp2439
g1160
a(I10
I34
tp2440
aa(lp2441
g1163
a(I35
I153
tp2442
aa(lp2443
g1166
a(I10
I34
tp2444
aa(lp2445
g1169
a(I920
I3360
tp2446
aa(lp2447
g1172
a(I0
I2240
tp2448
aa(lp2449
g1175
a(I0
I6720
tp2450
aa(lp2451
g1178
a(I2884
I179904
tp2452
aa(lp2453
g1181
a(I898
I9984
tp2454
aa(lp2455
g1184
a(I301
I1055
tp2456
aa(lp2457
g1187
a(I0
I400
tp2458
aatp2459
Rp2460
aa(lp2461
S'GEMM_Blocked__tileSize_16_i_tileSize_16_loop_jj_2_loop_ii_1_loop_kk_1_loop_i_1_loop_k_1'
p2462
ag0
((lp2463
(lp2464
g1148
aI35922717
aa(lp2465
g1150
aF1.868145552576104
aa(lp2466
g1152
aF0.029189774259001624
aa(lp2467
g1154
a(I36
I64
tp2468
aa(lp2469
g1157
a(I16
I64
tp2470
aa(lp2471
g1160
a(I6
I34
tp2472
aa(lp2473
g1163
a(I21
I153
tp2474
aa(lp2475
g1166
a(I6
I34
tp2476
aa(lp2477
g1169
a(I457
I3360
tp2478
aa(lp2479
g1172
a(I0
I2240
tp2480
aa(lp2481
g1175
a(I0
I6720
tp2482
aa(lp2483
g1178
a(I1578
I93952
tp2484
aa(lp2485
g1181
a(I472
I5312
tp2486
aa(lp2487
g1184
a(I161
I569
tp2488
aa(lp2489
g1187
a(I0
I208
tp2490
aatp2491
Rp2492
aa(lp2493
S'GEMM_Blocked__tileSize_16_i_tileSize_16_loop_jj_2_loop_ii_1_loop_kk_1_loop_i_2_loop_k_2'
p2494
ag0
((lp2495
(lp2496
g1148
aI14594499
aa(lp2497
g1150
aF4.598230059147628
aa(lp2498
g1152
aF0.07184734467418169
aa(lp2499
g1154
a(I54
I64
tp2500
aa(lp2501
g1157
a(I36
I64
tp2502
aa(lp2503
g1160
a(I8
I34
tp2504
aa(lp2505
g1163
a(I27
I153
tp2506
aa(lp2507
g1166
a(I8
I34
tp2508
aa(lp2509
g1169
a(I830
I3360
tp2510
aa(lp2511
g1172
a(I0
I2240
tp2512
aa(lp2513
g1175
a(I0
I6720
tp2514
aa(lp2515
g1178
a(I2624
I161472
tp2516
aa(lp2517
g1181
a(I754
I8832
tp2518
aa(lp2519
g1184
a(I259
I919
tp2520
aa(lp2521
g1187
a(I0
I360
tp2522
aatp2523
Rp2524
aa(lp2525
S'GEMM_Blocked__tileSize_16_i_tileSize_16_loop_jj_2_loop_ii_1_loop_kk_2_loop_i_1_loop_k_1'
p2526
ag0
((lp2527
(lp2528
g1148
aI18283225
aa(lp2529
g1150
aF3.67051567762252
aa(lp2530
g1152
aF0.05735180746285187
aa(lp2531
g1154
a(I60
I64
tp2532
aa(lp2533
g1157
a(I28
I64
tp2534
aa(lp2535
g1160
a(I10
I34
tp2536
aa(lp2537
g1163
a(I33
I153
tp2538
aa(lp2539
g1166
a(I10
I34
tp2540
aa(lp2541
g1169
a(I839
I3360
tp2542
aa(lp2543
g1172
a(I0
I2240
tp2544
aa(lp2545
g1175
a(I0
I6720
tp2546
aa(lp2547
g1178
a(I2412
I159040
tp2548
aa(lp2549
g1181
a(I750
I8960
tp2550
aa(lp2551
g1184
a(I267
I949
tp2552
aa(lp2553
g1187
a(I0
I352
tp2554
aatp2555
Rp2556
aa(lp2557
S'GEMM_Blocked__tileSize_16_i_tileSize_256_loop_jj_1_loop_ii_1_loop_kk_1_loop_i_1_loop_k_1'
p2558
ag0
((lp2559
(lp2560
g1148
aI68229998
aa(lp2561
g1150
aF0.5225206660565929
aa(lp2562
g1152
aF0.015368254884017437
aa(lp2563
g1154
a(I18
I64
tp2564
aa(lp2565
g1157
a(I8
I64
tp2566
aa(lp2567
g1160
a(I3
I34
tp2568
aa(lp2569
g1163
a(I11
I153
tp2570
aa(lp2571
g1166
a(I3
I34
tp2572
aa(lp2573
g1169
a(I176
I3360
tp2574
aa(lp2575
g1172
a(I0
I2240
tp2576
aa(lp2577
g1175
a(I0
I6720
tp2578
aa(lp2579
g1178
a(I789
I46976
tp2580
aa(lp2581
g1181
a(I236
I2656
tp2582
aa(lp2583
g1184
a(I81
I287
tp2584
aa(lp2585
g1187
a(I0
I104
tp2586
aatp2587
Rp2588
aa(lp2589
S'GEMM_Blocked__tileSize_16_i_tileSize_256_loop_jj_1_loop_ii_1_loop_kk_1_loop_i_2_loop_k_1'
p2590
ag0
((lp2591
(lp2592
g1148
aI34846139
aa(lp2593
g1150
aF1.0231143255211144
aa(lp2594
g1152
aF0.030091597809444544
aa(lp2595
g1154
a(I25
I64
tp2596
aa(lp2597
g1157
a(I14
I64
tp2598
aa(lp2599
g1160
a(I4
I34
tp2600
aa(lp2601
g1163
a(I14
I153
tp2602
aa(lp2603
g1166
a(I4
I34
tp2604
aa(lp2605
g1169
a(I304
I3360
tp2606
aa(lp2607
g1172
a(I0
I2240
tp2608
aa(lp2609
g1175
a(I0
I6720
tp2610
aa(lp2611
g1178
a(I1076
I70304
tp2612
aa(lp2613
g1181
a(I303
I3904
tp2614
aa(lp2615
g1184
a(I114
I414
tp2616
aa(lp2617
g1187
a(I0
I156
tp2618
aatp2619
Rp2620
aa(lp2621
S'GEMM_Blocked__tileSize_16_i_tileSize_256_loop_jj_1_loop_ii_1_loop_kk_2_loop_i_1_loop_k_2'
p2622
ag0
((lp2623
(lp2624
g1148
aI24598886
aa(lp2625
g1150
aF1.449317013786722
aa(lp2626
g1152
aF0.04262697099372711
aa(lp2627
g1154
a(I32
I64
tp2628
aa(lp2629
g1157
a(I18
I64
tp2630
aa(lp2631
g1160
a(I5
I34
tp2632
aa(lp2633
g1163
a(I17
I153
tp2634
aa(lp2635
g1166
a(I5
I34
tp2636
aa(lp2637
g1169
a(I386
I3360
tp2638
aa(lp2639
g1172
a(I0
I2240
tp2640
aa(lp2641
g1175
a(I0
I6720
tp2642
aa(lp2643
g1178
a(I1442
I89952
tp2644
aa(lp2645
g1181
a(I449
I4992
tp2646
aa(lp2647
g1184
a(I150
I525
tp2648
aa(lp2649
g1187
a(I0
I200
tp2650
aatp2651
Rp2652
aa(lp2653
S'GEMM_Blocked__tileSize_16_i_tileSize_256_loop_jj_1_loop_ii_1_loop_kk_2_loop_i_2_loop_k_1'
p2654
ag0
((lp2655
(lp2656
g1148
aI17541238
aa(lp2657
g1150
aF2.032444004237329
aa(lp2658
g1152
aF0.05977776483050968
aa(lp2659
g1154
a(I44
I64
tp2660
aa(lp2661
g1157
a(I26
I64
tp2662
aa(lp2663
g1160
a(I7
I34
tp2664
aa(lp2665
g1163
a(I23
I153
tp2666
aa(lp2667
g1166
a(I7
I34
tp2668
aa(lp2669
g1169
a(I506
I3360
tp2670
aa(lp2671
g1172
a(I0
I2240
tp2672
aa(lp2673
g1175
a(I0
I6720
tp2674
aa(lp2675
g1178
a(I1780
I126176
tp2676
aa(lp2677
g1181
a(I509
I6976
tp2678
aa(lp2679
g1184
a(I200
I731
tp2680
aa(lp2681
g1187
a(I0
I280
tp2682
aatp2683
Rp2684
aa(lp2685
S'GEMM_Blocked__tileSize_16_i_tileSize_256_loop_jj_1_loop_ii_1_loop_kk_2_loop_i_2_loop_k_2'
p2686
ag0
((lp2687
(lp2688
g1148
aI12713018
aa(lp2689
g1150
aF2.80433678297317
aa(lp2690
g1152
aF0.08248049361685793
aa(lp2691
g1154
a(I48
I64
tp2692
aa(lp2693
g1157
a(I34
I64
tp2694
aa(lp2695
g1160
a(I7
I34
tp2696
aa(lp2697
g1163
a(I23
I153
tp2698
aa(lp2699
g1166
a(I7
I34
tp2700
aa(lp2701
g1169
a(I634
I3360
tp2702
aa(lp2703
g1172
a(I0
I2240
tp2704
aa(lp2705
g1175
a(I0
I6720
tp2706
aa(lp2707
g1178
a(I2252
I147040
tp2708
aa(lp2709
g1181
a(I657
I8000
tp2710
aa(lp2711
g1184
a(I232
I827
tp2712
aa(lp2713
g1187
a(I0
I328
tp2714
aatp2715
Rp2716
aa(lp2717
S'GEMM_Blocked__tileSize_16_i_tileSize_256_loop_jj_1_loop_ii_2_loop_kk_1_loop_i_1_loop_k_2'
p2718
ag0
((lp2719
(lp2720
g1148
aI25823937
aa(lp2721
g1150
aF1.380563467142907
aa(lp2722
g1152
aF0.04060480785714432
aa(lp2723
g1154
a(I38
I64
tp2724
aa(lp2725
g1157
a(I20
I64
tp2726
aa(lp2727
g1160
a(I6
I34
tp2728
aa(lp2729
g1163
a(I23
I153
tp2730
aa(lp2731
g1166
a(I6
I34
tp2732
aa(lp2733
g1169
a(I509
I3360
tp2734
aa(lp2735
g1172
a(I0
I2240
tp2736
aa(lp2737
g1175
a(I0
I6720
tp2738
aa(lp2739
g1178
a(I1814
I104384
tp2740
aa(lp2741
g1181
a(I546
I5824
tp2742
aa(lp2743
g1184
a(I179
I627
tp2744
aa(lp2745
g1187
a(I0
I232
tp2746
aatp2747
Rp2748
aa(lp2749
S'GEMM_Blocked__tileSize_16_i_tileSize_256_loop_jj_1_loop_ii_2_loop_kk_1_loop_i_2_loop_k_1'
p2750
ag0
((lp2751
(lp2752
g1148
aI17506145
aa(lp2753
g1150
aF2.0365182625872227
aa(lp2754
g1152
aF0.05989759595844773
aa(lp2755
g1154
a(I50
I64
tp2756
aa(lp2757
g1157
a(I28
I64
tp2758
aa(lp2759
g1160
a(I8
I34
tp2760
aa(lp2761
g1163
a(I29
I153
tp2762
aa(lp2763
g1166
a(I8
I34
tp2764
aa(lp2765
g1169
a(I655
I3360
tp2766
aa(lp2767
g1172
a(I0
I2240
tp2768
aa(lp2769
g1175
a(I0
I6720
tp2770
aa(lp2771
g1178
a(I2152
I140608
tp2772
aa(lp2773
g1181
a(I606
I7808
tp2774
aa(lp2775
g1184
a(I229
I833
tp2776
aa(lp2777
g1187
a(I0
I312
tp2778
aatp2779
Rp2780
aa(lp2781
S'GEMM_Blocked__tileSize_16_i_tileSize_256_loop_jj_1_loop_ii_2_loop_kk_1_loop_i_2_loop_k_2'
p2782
ag0
((lp2783
(lp2784
g1148
aI12800236
aa(lp2785
g1150
aF2.7852286473468144
aa(lp2786
g1152
aF0.0819184896278475
aa(lp2787
g1154
a(I54
I64
tp2788
aa(lp2789
g1157
a(I36
I64
tp2790
aa(lp2791
g1160
a(I8
I34
tp2792
aa(lp2793
g1163
a(I29
I153
tp2794
aa(lp2795
g1166
a(I8
I34
tp2796
aa(lp2797
g1169
a(I808
I3360
tp2798
aa(lp2799
g1172
a(I0
I2240
tp2800
aa(lp2801
g1175
a(I0
I6720
tp2802
aa(lp2803
g1178
a(I2624
I161472
tp2804
aa(lp2805
g1181
a(I754
I8832
tp2806
aa(lp2807
g1184
a(I261
I929
tp2808
aa(lp2809
g1187
a(I0
I360
tp2810
aatp2811
Rp2812
aa(lp2813
S'GEMM_Blocked__tileSize_16_i_tileSize_256_loop_jj_1_loop_ii_2_loop_kk_2_loop_i_1_loop_k_2'
p2814
ag0
((lp2815
(lp2816
g1148
aI13025035
aa(lp2817
g1150
aF2.737158403029243
aa(lp2818
g1152
aF0.08050465891262479
aa(lp2819
g1154
a(I64
I64
tp2820
aa(lp2821
g1157
a(I36
I64
tp2822
aa(lp2823
g1160
a(I10
I34
tp2824
aa(lp2825
g1163
a(I35
I153
tp2826
aa(lp2827
g1166
a(I10
I34
tp2828
aa(lp2829
g1169
a(I1027
I3360
tp2830
aa(lp2831
g1172
a(I0
I2240
tp2832
aa(lp2833
g1175
a(I0
I6720
tp2834
aa(lp2835
g1178
a(I2884
I179904
tp2836
aa(lp2837
g1181
a(I898
I9984
tp2838
aa(lp2839
g1184
a(I301
I1055
tp2840
aa(lp2841
g1187
a(I0
I400
tp2842
aatp2843
Rp2844
aa(lp2845
S'GEMM_Blocked__tileSize_16_i_tileSize_256_loop_jj_2_loop_ii_1_loop_kk_1_loop_i_1_loop_k_1'
p2846
ag0
((lp2847
(lp2848
g1148
aI34144736
aa(lp2849
g1150
aF1.0441311949226961
aa(lp2850
g1152
aF0.03070974102713812
aa(lp2851
g1154
a(I36
I64
tp2852
aa(lp2853
g1157
a(I16
I64
tp2854
aa(lp2855
g1160
a(I6
I34
tp2856
aa(lp2857
g1163
a(I21
I153
tp2858
aa(lp2859
g1166
a(I6
I34
tp2860
aa(lp2861
g1169
a(I470
I3360
tp2862
aa(lp2863
g1172
a(I0
I2240
tp2864
aa(lp2865
g1175
a(I0
I6720
tp2866
aa(lp2867
g1178
a(I1578
I93952
tp2868
aa(lp2869
g1181
a(I472
I5312
tp2870
aa(lp2871
g1184
a(I161
I569
tp2872
aa(lp2873
g1187
a(I0
I208
tp2874
aatp2875
Rp2876
aa(lp2877
S'GEMM_Blocked__tileSize_16_i_tileSize_256_loop_jj_2_loop_ii_1_loop_kk_1_loop_i_1_loop_k_2'
p2878
ag0
((lp2879
(lp2880
g1148
aI24586004
aa(lp2881
g1150
aF1.4500763930567975
aa(lp2882
g1152
aF0.042649305678141104
aa(lp2883
g1154
a(I38
I64
tp2884
aa(lp2885
g1157
a(I20
I64
tp2886
aa(lp2887
g1160
a(I6
I34
tp2888
aa(lp2889
g1163
a(I21
I153
tp2890
aa(lp2891
g1166
a(I6
I34
tp2892
aa(lp2893
g1169
a(I566
I3360
tp2894
aa(lp2895
g1172
a(I0
I2240
tp2896
aa(lp2897
g1175
a(I0
I6720
tp2898
aa(lp2899
g1178
a(I1814
I104384
tp2900
aa(lp2901
g1181
a(I546
I5824
tp2902
aa(lp2903
g1184
a(I177
I617
tp2904
aa(lp2905
g1187
a(I0
I232
tp2906
aatp2907
Rp2908
aa(lp2909
S'GEMM_Blocked__tileSize_16_i_tileSize_256_loop_jj_2_loop_ii_1_loop_kk_1_loop_i_2_loop_k_2'
p2910
ag0
((lp2911
(lp2912
g1148
aI12714609
aa(lp2913
g1150
aF2.8039858716850827
aa(lp2914
g1152
aF0.08247017269662009
aa(lp2915
g1154
a(I54
I64
tp2916
aa(lp2917
g1157
a(I36
I64
tp2918
aa(lp2919
g1160
a(I8
I34
tp2920
aa(lp2921
g1163
a(I27
I153
tp2922
aa(lp2923
g1166
a(I8
I34
tp2924
aa(lp2925
g1169
a(I781
I3360
tp2926
aa(lp2927
g1172
a(I0
I2240
tp2928
aa(lp2929
g1175
a(I0
I6720
tp2930
aa(lp2931
g1178
a(I2624
I161472
tp2932
aa(lp2933
g1181
a(I754
I8832
tp2934
aa(lp2935
g1184
a(I259
I919
tp2936
aa(lp2937
g1187
a(I0
I360
tp2938
aatp2939
Rp2940
aa(lp2941
S'GEMM_Blocked__tileSize_16_i_tileSize_256_loop_jj_2_loop_ii_1_loop_kk_2_loop_i_1_loop_k_2'
p2942
ag0
((lp2943
(lp2944
g1148
aI12337205
aa(lp2945
g1150
aF2.8897618220658567
aa(lp2946
g1152
aF0.08499299476664285
aa(lp2947
g1154
a(I64
I64
tp2948
aa(lp2949
g1157
a(I36
I64
tp2950
aa(lp2951
g1160
a(I10
I34
tp2952
aa(lp2953
g1163
a(I33
I153
tp2954
aa(lp2955
g1166
a(I10
I34
tp2956
aa(lp2957
g1169
a(I931
I3360
tp2958
aa(lp2959
g1172
a(I0
I2240
tp2960
aa(lp2961
g1175
a(I0
I6720
tp2962
aa(lp2963
g1178
a(I2884
I179904
tp2964
aa(lp2965
g1181
a(I898
I9984
tp2966
aa(lp2967
g1184
a(I299
I1045
tp2968
aa(lp2969
g1187
a(I0
I400
tp2970
aatp2971
Rp2972
aa(lp2973
S'GEMM_Blocked__tileSize_256_i_tileSize_16_loop_jj_1_loop_ii_1_loop_kk_1_loop_i_1_loop_k_2'
p2974
ag0
((lp2975
(lp2976
g1148
aI5572523
aa(lp2977
g1150
aF6.397745509529525
aa(lp2978
g1152
aF0.1881689855743978
aa(lp2979
g1154
a(I19
I64
tp2980
aa(lp2981
g1157
a(I10
I64
tp2982
aa(lp2983
g1160
a(I3
I34
tp2984
aa(lp2985
g1163
a(I11
I153
tp2986
aa(lp2987
g1166
a(I3
I34
tp2988
aa(lp2989
g1169
a(I221
I3360
tp2990
aa(lp2991
g1172
a(I0
I2240
tp2992
aa(lp2993
g1175
a(I0
I6720
tp2994
aa(lp2995
g1178
a(I907
I52192
tp2996
aa(lp2997
g1181
a(I273
I2912
tp2998
aa(lp2999
g1184
a(I89
I311
tp3000
aa(lp3001
g1187
a(I0
I116
tp3002
aatp3003
Rp3004
aa(lp3005
S'GEMM_Blocked__tileSize_256_i_tileSize_16_loop_jj_1_loop_ii_1_loop_kk_1_loop_i_2_loop_k_2'
p3006
ag0
((lp3007
(lp3008
g1148
aI3408851
aa(lp3009
g1150
aF10.45853397523095
aa(lp3010
g1152
aF0.3076039404479691
aa(lp3011
g1154
a(I27
I64
tp3012
aa(lp3013
g1157
a(I18
I64
tp3014
aa(lp3015
g1160
a(I4
I34
tp3016
aa(lp3017
g1163
a(I14
I153
tp3018
aa(lp3019
g1166
a(I4
I34
tp3020
aa(lp3021
g1169
a(I294
I3360
tp3022
aa(lp3023
g1172
a(I0
I2240
tp3024
aa(lp3025
g1175
a(I0
I6720
tp3026
aa(lp3027
g1178
a(I1312
I80736
tp3028
aa(lp3029
g1181
a(I377
I4416
tp3030
aa(lp3031
g1184
a(I130
I462
tp3032
aa(lp3033
g1187
a(I0
I180
tp3034
aatp3035
Rp3036
aa(lp3037
S'GEMM_Blocked__tileSize_256_i_tileSize_16_loop_jj_1_loop_ii_1_loop_kk_2_loop_i_1_loop_k_1'
p3038
ag0
((lp3039
(lp3040
g1148
aI5271241
aa(lp3041
g1150
aF6.763413776755796
aa(lp3042
g1152
aF0.19892393461046456
aa(lp3043
g1154
a(I30
I64
tp3044
aa(lp3045
g1157
a(I14
I64
tp3046
aa(lp3047
g1160
a(I5
I34
tp3048
aa(lp3049
g1163
a(I17
I153
tp3050
aa(lp3051
g1166
a(I5
I34
tp3052
aa(lp3053
g1169
a(I369
I3360
tp3054
aa(lp3055
g1172
a(I0
I2240
tp3056
aa(lp3057
g1175
a(I0
I6720
tp3058
aa(lp3059
g1178
a(I1206
I79520
tp3060
aa(lp3061
g1181
a(I375
I4480
tp3062
aa(lp3063
g1184
a(I134
I477
tp3064
aa(lp3065
g1187
a(I0
I176
tp3066
aatp3067
Rp3068
aa(lp3069
S'GEMM_Blocked__tileSize_256_i_tileSize_16_loop_jj_1_loop_ii_1_loop_kk_2_loop_i_1_loop_k_2'
p3070
ag0
((lp3071
(lp3072
g1148
aI3638520
aa(lp3073
g1150
aF9.798375163528029
aa(lp3074
g1152
aF0.28818750480964783
aa(lp3075
g1154
a(I32
I64
tp3076
aa(lp3077
g1157
a(I18
I64
tp3078
aa(lp3079
g1160
a(I5
I34
tp3080
aa(lp3081
g1163
a(I17
I153
tp3082
aa(lp3083
g1166
a(I5
I34
tp3084
aa(lp3085
g1169
a(I400
I3360
tp3086
aa(lp3087
g1172
a(I0
I2240
tp3088
aa(lp3089
g1175
a(I0
I6720
tp3090
aa(lp3091
g1178
a(I1442
I89952
tp3092
aa(lp3093
g1181
a(I449
I4992
tp3094
aa(lp3095
g1184
a(I150
I525
tp3096
aa(lp3097
g1187
a(I0
I200
tp3098
aatp3099
Rp3100
aa(lp3101
S'GEMM_Blocked__tileSize_256_i_tileSize_16_loop_jj_1_loop_ii_1_loop_kk_2_loop_i_2_loop_k_1'
p3102
ag0
((lp3103
(lp3104
g1148
aI3368261
aa(lp3105
g1150
aF10.584566932313143
aa(lp3106
g1152
aF0.31131079212685714
aa(lp3107
g1154
a(I44
I64
tp3108
aa(lp3109
g1157
a(I26
I64
tp3110
aa(lp3111
g1160
a(I7
I34
tp3112
aa(lp3113
g1163
a(I23
I153
tp3114
aa(lp3115
g1166
a(I7
I34
tp3116
aa(lp3117
g1169
a(I517
I3360
tp3118
aa(lp3119
g1172
a(I0
I2240
tp3120
aa(lp3121
g1175
a(I0
I6720
tp3122
aa(lp3123
g1178
a(I1780
I126176
tp3124
aa(lp3125
g1181
a(I509
I6976
tp3126
aa(lp3127
g1184
a(I200
I731
tp3128
aa(lp3129
g1187
a(I0
I280
tp3130
aatp3131
Rp3132
aa(lp3133
S'GEMM_Blocked__tileSize_256_i_tileSize_16_loop_jj_1_loop_ii_2_loop_kk_1_loop_i_1_loop_k_1'
p3134
ag0
((lp3135
(lp3136
g1148
aI4864954
aa(lp3137
g1150
aF7.328246885787615
aa(lp3138
g1152
aF0.21553667311140043
aa(lp3139
g1154
a(I36
I64
tp3140
aa(lp3141
g1157
a(I16
I64
tp3142
aa(lp3143
g1160
a(I6
I34
tp3144
aa(lp3145
g1163
a(I23
I153
tp3146
aa(lp3147
g1166
a(I6
I34
tp3148
aa(lp3149
g1169
a(I465
I3360
tp3150
aa(lp3151
g1172
a(I0
I2240
tp3152
aa(lp3153
g1175
a(I0
I6720
tp3154
aa(lp3155
g1178
a(I1578
I93952
tp3156
aa(lp3157
g1181
a(I472
I5312
tp3158
aa(lp3159
g1184
a(I163
I579
tp3160
aa(lp3161
g1187
a(I0
I208
tp3162
aatp3163
Rp3164
aa(lp3165
S'GEMM_Blocked__tileSize_256_i_tileSize_16_loop_jj_1_loop_ii_2_loop_kk_1_loop_i_1_loop_k_2'
p3166
ag0
((lp3167
(lp3168
g1148
aI3331849
aa(lp3169
g1150
aF10.700240016879517
aa(lp3170
g1152
aF0.31471294167292696
aa(lp3171
g1154
a(I38
I64
tp3172
aa(lp3173
g1157
a(I20
I64
tp3174
aa(lp3175
g1160
a(I6
I34
tp3176
aa(lp3177
g1163
a(I23
I153
tp3178
aa(lp3179
g1166
a(I6
I34
tp3180
aa(lp3181
g1169
a(I520
I3360
tp3182
aa(lp3183
g1172
a(I0
I2240
tp3184
aa(lp3185
g1175
a(I0
I6720
tp3186
aa(lp3187
g1178
a(I1814
I104384
tp3188
aa(lp3189
g1181
a(I546
I5824
tp3190
aa(lp3191
g1184
a(I179
I627
tp3192
aa(lp3193
g1187
a(I0
I232
tp3194
aatp3195
Rp3196
aa(lp3197
S'GEMM_Blocked__tileSize_256_i_tileSize_16_loop_jj_1_loop_ii_2_loop_kk_1_loop_i_2_loop_k_1'
p3198
ag0
((lp3199
(lp3200
g1148
aI2939744
aa(lp3201
g1150
aF12.127445110866796
aa(lp3202
g1152
aF0.3566895620843175
aa(lp3203
g1154
a(I50
I64
tp3204
aa(lp3205
g1157
a(I28
I64
tp3206
aa(lp3207
g1160
a(I8
I34
tp3208
aa(lp3209
g1163
a(I29
I153
tp3210
aa(lp3211
g1166
a(I8
I34
tp3212
aa(lp3213
g1169
a(I717
I3360
tp3214
aa(lp3215
g1172
a(I0
I2240
tp3216
aa(lp3217
g1175
a(I0
I6720
tp3218
aa(lp3219
g1178
a(I2152
I140608
tp3220
aa(lp3221
g1181
a(I606
I7808
tp3222
aa(lp3223
g1184
a(I229
I833
tp3224
aa(lp3225
g1187
a(I0
I312
tp3226
aatp3227
Rp3228
aa(lp3229
S'GEMM_Blocked__tileSize_256_i_tileSize_16_loop_jj_1_loop_ii_2_loop_kk_2_loop_i_1_loop_k_1'
p3230
ag0
((lp3231
(lp3232
g1148
aI3336106
aa(lp3233
g1150
aF10.686586097683946
aa(lp3234
g1152
aF0.3143113558142337
aa(lp3235
g1154
a(I60
I64
tp3236
aa(lp3237
g1157
a(I28
I64
tp3238
aa(lp3239
g1160
a(I10
I34
tp3240
aa(lp3241
g1163
a(I35
I153
tp3242
aa(lp3243
g1166
a(I10
I34
tp3244
aa(lp3245
g1169
a(I881
I3360
tp3246
aa(lp3247
g1172
a(I0
I2240
tp3248
aa(lp3249
g1175
a(I0
I6720
tp3250
aa(lp3251
g1178
a(I2412
I159040
tp3252
aa(lp3253
g1181
a(I750
I8960
tp3254
aa(lp3255
g1184
a(I269
I959
tp3256
aa(lp3257
g1187
a(I0
I352
tp3258
aatp3259
Rp3260
aa(lp3261
S'GEMM_Blocked__tileSize_256_i_tileSize_16_loop_jj_1_loop_ii_2_loop_kk_2_loop_i_1_loop_k_2'
p3262
ag0
((lp3263
(lp3264
g1148
aI2518525
aa(lp3265
g1150
aF14.15573956978787
aa(lp3266
g1152
aF0.4163452814643491
aa(lp3267
g1154
a(I64
I64
tp3268
aa(lp3269
g1157
a(I36
I64
tp3270
aa(lp3271
g1160
a(I10
I34
tp3272
aa(lp3273
g1163
a(I35
I153
tp3274
aa(lp3275
g1166
a(I10
I34
tp3276
aa(lp3277
g1169
a(I920
I3360
tp3278
aa(lp3279
g1172
a(I0
I2240
tp3280
aa(lp3281
g1175
a(I0
I6720
tp3282
aa(lp3283
g1178
a(I2884
I179904
tp3284
aa(lp3285
g1181
a(I898
I9984
tp3286
aa(lp3287
g1184
a(I301
I1055
tp3288
aa(lp3289
g1187
a(I0
I400
tp3290
aatp3291
Rp3292
aa(lp3293
S'GEMM_Blocked__tileSize_256_i_tileSize_16_loop_jj_2_loop_ii_1_loop_kk_1_loop_i_1_loop_k_1'
p3294
ag0
((lp3295
(lp3296
g1148
aI5120110
aa(lp3297
g1150
aF6.963050403213994
aa(lp3298
g1152
aF0.20479560009452924
aa(lp3299
g1154
a(I36
I64
tp3300
aa(lp3301
g1157
a(I16
I64
tp3302
aa(lp3303
g1160
a(I6
I34
tp3304
aa(lp3305
g1163
a(I21
I153
tp3306
aa(lp3307
g1166
a(I6
I34
tp3308
aa(lp3309
g1169
a(I448
I3360
tp3310
aa(lp3311
g1172
a(I0
I2240
tp3312
aa(lp3313
g1175
a(I0
I6720
tp3314
aa(lp3315
g1178
a(I1578
I93952
tp3316
aa(lp3317
g1181
a(I472
I5312
tp3318
aa(lp3319
g1184
a(I161
I569
tp3320
aa(lp3321
g1187
a(I0
I208
tp3322
aatp3323
Rp3324
aa(lp3325
S'GEMM_Blocked__tileSize_256_i_tileSize_16_loop_jj_2_loop_ii_1_loop_kk_1_loop_i_2_loop_k_1'
p3326
ag0
((lp3327
(lp3328
g1148
aI3243147
aa(lp3329
g1150
aF10.992897947579927
aa(lp3330
g1152
aF0.3233205278699979
aa(lp3331
g1154
a(I50
I64
tp3332
aa(lp3333
g1157
a(I28
I64
tp3334
aa(lp3335
g1160
a(I8
I34
tp3336
aa(lp3337
g1163
a(I27
I153
tp3338
aa(lp3339
g1166
a(I8
I34
tp3340
aa(lp3341
g1169
a(I711
I3360
tp3342
aa(lp3343
g1172
a(I0
I2240
tp3344
aa(lp3345
g1175
a(I0
I6720
tp3346
aa(lp3347
g1178
a(I2152
I140608
tp3348
aa(lp3349
g1181
a(I606
I7808
tp3350
aa(lp3351
g1184
a(I227
I823
tp3352
aa(lp3353
g1187
a(I0
I312
tp3354
aatp3355
Rp3356
aa(lp3357
S'GEMM_Blocked__tileSize_256_i_tileSize_16_loop_jj_2_loop_ii_1_loop_kk_1_loop_i_2_loop_k_2'
p3358
ag0
((lp3359
(lp3360
g1148
aI2465940
aa(lp3361
g1150
aF14.457603996853129
aa(lp3362
g1152
aF0.42522364696626846
aa(lp3363
g1154
a(I54
I64
tp3364
aa(lp3365
g1157
a(I36
I64
tp3366
aa(lp3367
g1160
a(I8
I34
tp3368
aa(lp3369
g1163
a(I27
I153
tp3370
aa(lp3371
g1166
a(I8
I34
tp3372
aa(lp3373
g1169
a(I818
I3360
tp3374
aa(lp3375
g1172
a(I0
I2240
tp3376
aa(lp3377
g1175
a(I0
I6720
tp3378
aa(lp3379
g1178
a(I2624
I161472
tp3380
aa(lp3381
g1181
a(I754
I8832
tp3382
aa(lp3383
g1184
a(I259
I919
tp3384
aa(lp3385
g1187
a(I0
I360
tp3386
aatp3387
Rp3388
aa(lp3389
S'GEMM_Blocked__tileSize_256_i_tileSize_16_loop_jj_2_loop_ii_1_loop_kk_2_loop_i_1_loop_k_1'
p3390
ag0
((lp3391
(lp3392
g1148
aI3314015
aa(lp3393
g1150
aF10.757822158318534
aa(lp3394
g1152
aF0.3164065340681922
aa(lp3395
g1154
a(I60
I64
tp3396
aa(lp3397
g1157
a(I28
I64
tp3398
aa(lp3399
g1160
a(I10
I34
tp3400
aa(lp3401
g1163
a(I33
I153
tp3402
aa(lp3403
g1166
a(I10
I34
tp3404
aa(lp3405
g1169
a(I855
I3360
tp3406
aa(lp3407
g1172
a(I0
I2240
tp3408
aa(lp3409
g1175
a(I0
I6720
tp3410
aa(lp3411
g1178
a(I2412
I159040
tp3412
aa(lp3413
g1181
a(I750
I8960
tp3414
aa(lp3415
g1184
a(I267
I949
tp3416
aa(lp3417
g1187
a(I0
I352
tp3418
aatp3419
Rp3420
aa(lp3421
S'GEMM_Blocked__tileSize_256_i_tileSize_256_loop_jj_1_loop_ii_1_loop_kk_1_loop_i_1_loop_k_1'
p3422
ag0
((lp3423
(lp3424
g1148
aI7766298
aa(lp3425
g1150
aF0.5400647773237648
aa(lp3426
g1152
aF0.1350161943309412
aa(lp3427
g1154
a(I18
I64
tp3428
aa(lp3429
g1157
a(I8
I64
tp3430
aa(lp3431
g1160
a(I3
I34
tp3432
aa(lp3433
g1163
a(I11
I153
tp3434
aa(lp3435
g1166
a(I3
I34
tp3436
aa(lp3437
g1169
a(I188
I3360
tp3438
aa(lp3439
g1172
a(I0
I2240
tp3440
aa(lp3441
g1175
a(I0
I6720
tp3442
aa(lp3443
g1178
a(I789
I46976
tp3444
aa(lp3445
g1181
a(I236
I2656
tp3446
aa(lp3447
g1184
a(I81
I287
tp3448
aa(lp3449
g1187
a(I0
I104
tp3450
aatp3451
Rp3452
aa(lp3453
S'GEMM_Blocked__tileSize_256_i_tileSize_256_loop_jj_1_loop_ii_1_loop_kk_1_loop_i_1_loop_k_2'
p3454
ag0
((lp3455
(lp3456
g1148
aI4510843
aa(lp3457
g1150
aF0.9298270855358965
aa(lp3458
g1152
aF0.23245677138397414
aa(lp3459
g1154
a(I19
I64
tp3460
aa(lp3461
g1157
a(I10
I64
tp3462
aa(lp3463
g1160
a(I3
I34
tp3464
aa(lp3465
g1163
a(I11
I153
tp3466
aa(lp3467
g1166
a(I3
I34
tp3468
aa(lp3469
g1169
a(I161
I3360
tp3470
aa(lp3471
g1172
a(I0
I2240
tp3472
aa(lp3473
g1175
a(I0
I6720
tp3474
aa(lp3475
g1178
a(I907
I52192
tp3476
aa(lp3477
g1181
a(I273
I2912
tp3478
aa(lp3479
g1184
a(I89
I311
tp3480
aa(lp3481
g1187
a(I0
I116
tp3482
aatp3483
Rp3484
aa(lp3485
S'GEMM_Blocked__tileSize_256_i_tileSize_256_loop_jj_1_loop_ii_1_loop_kk_1_loop_i_2_loop_k_1'
p3486
ag0
((lp3487
(lp3488
g1148
aI3947718
aa(lp3489
g1150
aF1.062462921616995
aa(lp3490
g1152
aF0.26561573040424874
aa(lp3491
g1154
a(I25
I64
tp3492
aa(lp3493
g1157
a(I14
I64
tp3494
aa(lp3495
g1160
a(I4
I34
tp3496
aa(lp3497
g1163
a(I14
I153
tp3498
aa(lp3499
g1166
a(I4
I34
tp3500
aa(lp3501
g1169
a(I308
I3360
tp3502
aa(lp3503
g1172
a(I0
I2240
tp3504
aa(lp3505
g1175
a(I0
I6720
tp3506
aa(lp3507
g1178
a(I1076
I70304
tp3508
aa(lp3509
g1181
a(I303
I3904
tp3510
aa(lp3511
g1184
a(I114
I414
tp3512
aa(lp3513
g1187
a(I0
I156
tp3514
aatp3515
Rp3516
aa(lp3517
S'GEMM_Blocked__tileSize_256_i_tileSize_256_loop_jj_1_loop_ii_1_loop_kk_1_loop_i_2_loop_k_2'
p3518
ag0
((lp3519
(lp3520
g1148
aI2319805
aa(lp3521
g1150
aF1.80804162418824
aa(lp3522
g1152
aF0.45201040604706
aa(lp3523
g1154
a(I27
I64
tp3524
aa(lp3525
g1157
a(I18
I64
tp3526
aa(lp3527
g1160
a(I4
I34
tp3528
aa(lp3529
g1163
a(I14
I153
tp3530
aa(lp3531
g1166
a(I4
I34
tp3532
aa(lp3533
g1169
a(I355
I3360
tp3534
aa(lp3535
g1172
a(I0
I2240
tp3536
aa(lp3537
g1175
a(I0
I6720
tp3538
aa(lp3539
g1178
a(I1312
I80736
tp3540
aa(lp3541
g1181
a(I377
I4416
tp3542
aa(lp3543
g1184
a(I130
I462
tp3544
aa(lp3545
g1187
a(I0
I180
tp3546
aatp3547
Rp3548
aa(lp3549
S'GEMM_Blocked__tileSize_256_i_tileSize_256_loop_jj_1_loop_ii_1_loop_kk_2_loop_i_1_loop_k_1'
p3550
ag0
((lp3551
(lp3552
g1148
aI3968536
aa(lp3553
g1150
aF1.0568894927499712
aa(lp3554
g1152
aF0.2642223731874928
aa(lp3555
g1154
a(I30
I64
tp3556
aa(lp3557
g1157
a(I14
I64
tp3558
aa(lp3559
g1160
a(I5
I34
tp3560
aa(lp3561
g1163
a(I17
I153
tp3562
aa(lp3563
g1166
a(I5
I34
tp3564
aa(lp3565
g1169
a(I341
I3360
tp3566
aa(lp3567
g1172
a(I0
I2240
tp3568
aa(lp3569
g1175
a(I0
I6720
tp3570
aa(lp3571
g1178
a(I1206
I79520
tp3572
aa(lp3573
g1181
a(I375
I4480
tp3574
aa(lp3575
g1184
a(I134
I477
tp3576
aa(lp3577
g1187
a(I0
I176
tp3578
aatp3579
Rp3580
aa(lp3581
S'GEMM_Blocked__tileSize_256_i_tileSize_256_loop_jj_1_loop_ii_1_loop_kk_2_loop_i_1_loop_k_2'
p3582
ag0
((lp3583
(lp3584
g1148
aI2333046
aa(lp3585
g1150
aF1.7977802409382413
aa(lp3586
g1152
aF0.4494450602345603
aa(lp3587
g1154
a(I32
I64
tp3588
aa(lp3589
g1157
a(I18
I64
tp3590
aa(lp3591
g1160
a(I5
I34
tp3592
aa(lp3593
g1163
a(I17
I153
tp3594
aa(lp3595
g1166
a(I5
I34
tp3596
aa(lp3597
g1169
a(I396
I3360
tp3598
aa(lp3599
g1172
a(I0
I2240
tp3600
aa(lp3601
g1175
a(I0
I6720
tp3602
aa(lp3603
g1178
a(I1442
I89952
tp3604
aa(lp3605
g1181
a(I449
I4992
tp3606
aa(lp3607
g1184
a(I150
I525
tp3608
aa(lp3609
g1187
a(I0
I200
tp3610
aatp3611
Rp3612
aa(lp3613
S'GEMM_Blocked__tileSize_256_i_tileSize_256_loop_jj_1_loop_ii_1_loop_kk_2_loop_i_2_loop_k_1'
p3614
ag0
((lp3615
(lp3616
g1148
aI2056265
aa(lp3617
g1150
aF2.039768220535777
aa(lp3618
g1152
aF0.5099420551339443
aa(lp3619
g1154
a(I44
I64
tp3620
aa(lp3621
g1157
a(I26
I64
tp3622
aa(lp3623
g1160
a(I7
I34
tp3624
aa(lp3625
g1163
a(I23
I153
tp3626
aa(lp3627
g1166
a(I7
I34
tp3628
aa(lp3629
g1169
a(I521
I3360
tp3630
aa(lp3631
g1172
a(I0
I2240
tp3632
aa(lp3633
g1175
a(I0
I6720
tp3634
aa(lp3635
g1178
a(I1780
I126176
tp3636
aa(lp3637
g1181
a(I509
I6976
tp3638
aa(lp3639
g1184
a(I200
I731
tp3640
aa(lp3641
g1187
a(I0
I280
tp3642
aatp3643
Rp3644
aa(lp3645
S'GEMM_Blocked__tileSize_256_i_tileSize_256_loop_jj_1_loop_ii_1_loop_kk_1_loop_i_1_loop_k_3'
p3646
ag0
((lp3647
(lp3648
g1148
aI3096349
aa(lp3649
g1150
aF1.3545966556095583
aa(lp3650
g1152
aF0.3386491639023896
aa(lp3651
g1154
a(I20
I64
tp3652
aa(lp3653
g1157
a(I12
I64
tp3654
aa(lp3655
g1160
a(I3
I34
tp3656
aa(lp3657
g1163
a(I11
I153
tp3658
aa(lp3659
g1166
a(I3
I34
tp3660
aa(lp3661
g1169
a(I193
I3360
tp3662
aa(lp3663
g1172
a(I0
I2240
tp3664
aa(lp3665
g1175
a(I0
I6720
tp3666
aa(lp3667
g1178
a(I1041
I57408
tp3668
aa(lp3669
g1181
a(I310
I3168
tp3670
aa(lp3671
g1184
a(I97
I335
tp3672
aa(lp3673
g1187
a(I0
I128
tp3674
aatp3675
Rp3676
aa(lp3677
S'GEMM_Blocked__tileSize_256_i_tileSize_256_loop_jj_1_loop_ii_1_loop_kk_1_loop_i_1_loop_k_4'
p3678
ag0
((lp3679
(lp3680
g1148
aI2353981
aa(lp3681
g1150
aF1.781791781666887
aa(lp3682
g1152
aF0.4454479454167217
aa(lp3683
g1154
a(I21
I64
tp3684
aa(lp3685
g1157
a(I14
I64
tp3686
aa(lp3687
g1160
a(I3
I34
tp3688
aa(lp3689
g1163
a(I11
I153
tp3690
aa(lp3691
g1166
a(I3
I34
tp3692
aa(lp3693
g1169
a(I196
I3360
tp3694
aa(lp3695
g1172
a(I0
I2240
tp3696
aa(lp3697
g1175
a(I0
I6720
tp3698
aa(lp3699
g1178
a(I1191
I62624
tp3700
aa(lp3701
g1181
a(I347
I3424
tp3702
aa(lp3703
g1184
a(I105
I359
tp3704
aa(lp3705
g1187
a(I0
I140
tp3706
aatp3707
Rp3708
aa(lp3709
S'GEMM_Blocked__tileSize_256_i_tileSize_256_loop_jj_1_loop_ii_1_loop_kk_1_loop_i_2_loop_k_3'
p3710
ag0
((lp3711
(lp3712
g1148
aI1612503
aa(lp3713
g1150
aF2.6011139204082103
aa(lp3714
g1152
aF0.6502784801020526
aa(lp3715
g1154
a(I29
I64
tp3716
aa(lp3717
g1157
a(I22
I64
tp3718
aa(lp3719
g1160
a(I4
I34
tp3720
aa(lp3721
g1163
a(I14
I153
tp3722
aa(lp3723
g1166
a(I4
I34
tp3724
aa(lp3725
g1169
a(I391
I3360
tp3726
aa(lp3727
g1172
a(I0
I2240
tp3728
aa(lp3729
g1175
a(I0
I6720
tp3730
aa(lp3731
g1178
a(I1580
I91168
tp3732
aa(lp3733
g1181
a(I451
I4928
tp3734
aa(lp3735
g1184
a(I146
I510
tp3736
aa(lp3737
g1187
a(I0
I204
tp3738
aatp3739
Rp3740
aa(lp3741
S'GEMM_Blocked__tileSize_256_i_tileSize_256_loop_jj_1_loop_ii_1_loop_kk_1_loop_i_3_loop_k_1'
p3742
ag0
((lp3743
(lp3744
g1148
aI2693928
aa(lp3745
g1150
aF1.5569473274712613
aa(lp3746
g1152
aF0.3892368318678153
aa(lp3747
g1154
a(I32
I64
tp3748
aa(lp3749
g1157
a(I20
I64
tp3750
aa(lp3751
g1160
a(I5
I34
tp3752
aa(lp3753
g1163
a(I17
I153
tp3754
aa(lp3755
g1166
a(I5
I34
tp3756
aa(lp3757
g1169
a(I328
I3360
tp3758
aa(lp3759
g1172
a(I0
I2240
tp3760
aa(lp3761
g1175
a(I0
I6720
tp3762
aa(lp3763
g1178
a(I1363
I93632
tp3764
aa(lp3765
g1181
a(I370
I5152
tp3766
aa(lp3767
g1184
a(I147
I541
tp3768
aa(lp3769
g1187
a(I0
I208
tp3770
aatp3771
Rp3772
aa(lp3773
S'GEMM_Blocked__tileSize_256_i_tileSize_256_loop_jj_1_loop_ii_1_loop_kk_1_loop_i_3_loop_k_3'
p3774
ag0
((lp3775
(lp3776
g1148
aI1132475
aa(lp3777
g1150
aF3.703661449480121
aa(lp3778
g1152
aF0.9259153623700302
aa(lp3779
g1154
a(I38
I64
tp3780
aa(lp3781
g1157
a(I32
I64
tp3782
aa(lp3783
g1160
a(I5
I34
tp3784
aa(lp3785
g1163
a(I17
I153
tp3786
aa(lp3787
g1166
a(I5
I34
tp3788
aa(lp3789
g1169
a(I553
I3360
tp3790
aa(lp3791
g1172
a(I0
I2240
tp3792
aa(lp3793
g1175
a(I0
I6720
tp3794
aa(lp3795
g1178
a(I2119
I124928
tp3796
aa(lp3797
g1181
a(I592
I6688
tp3798
aa(lp3799
g1184
a(I195
I685
tp3800
aa(lp3801
g1187
a(I0
I280
tp3802
aatp3803
Rp3804
aa(lp3805
S'GEMM_Blocked__tileSize_256_i_tileSize_256_loop_jj_1_loop_ii_1_loop_kk_1_loop_i_3_loop_k_4'
p3806
ag0
((lp3807
(lp3808
g1148
aI884363
aa(lp3809
g1150
aF4.742740254850101
aa(lp3810
g1152
aF1.1856850637125254
aa(lp3811
g1154
a(I41
I64
tp3812
aa(lp3813
g1157
a(I38
I64
tp3814
aa(lp3815
g1160
a(I5
I34
tp3816
aa(lp3817
g1163
a(I17
I153
tp3818
aa(lp3819
g1166
a(I5
I34
tp3820
aa(lp3821
g1169
a(I577
I3360
tp3822
aa(lp3823
g1172
a(I0
I2240
tp3824
aa(lp3825
g1175
a(I0
I6720
tp3826
aa(lp3827
g1178
a(I2569
I140576
tp3828
aa(lp3829
g1181
a(I703
I7456
tp3830
aa(lp3831
g1184
a(I219
I757
tp3832
aa(lp3833
g1187
a(I0
I316
tp3834
aatp3835
Rp3836
aa(lp3837
S'GEMM_Blocked__tileSize_256_i_tileSize_256_loop_jj_1_loop_ii_1_loop_kk_1_loop_i_4_loop_k_1'
p3838
ag0
((lp3839
(lp3840
g1148
aI2030451
aa(lp3841
g1150
aF2.065700674382194
aa(lp3842
g1152
aF0.5164251685955485
aa(lp3843
g1154
a(I39
I64
tp3844
aa(lp3845
g1157
a(I26
I64
tp3846
aa(lp3847
g1160
a(I6
I34
tp3848
aa(lp3849
g1163
a(I20
I153
tp3850
aa(lp3851
g1166
a(I6
I34
tp3852
aa(lp3853
g1169
a(I519
I3360
tp3854
aa(lp3855
g1172
a(I0
I2240
tp3856
aa(lp3857
g1175
a(I0
I6720
tp3858
aa(lp3859
g1178
a(I1650
I116960
tp3860
aa(lp3861
g1181
a(I437
I6400
tp3862
aa(lp3863
g1184
a(I180
I668
tp3864
aa(lp3865
g1187
a(I0
I260
tp3866
aatp3867
Rp3868
aa(lp3869
S'GEMM_Blocked__tileSize_256_i_tileSize_256_loop_jj_1_loop_ii_1_loop_kk_1_loop_i_4_loop_k_2'
p3870
ag0
((lp3871
(lp3872
g1148
aI1226891
aa(lp3873
g1150
aF3.4186443620500926
aa(lp3874
g1152
aF0.8546610905125231
aa(lp3875
g1154
a(I43
I64
tp3876
aa(lp3877
g1157
a(I34
I64
tp3878
aa(lp3879
g1160
a(I6
I34
tp3880
aa(lp3881
g1163
a(I20
I153
tp3882
aa(lp3883
g1166
a(I6
I34
tp3884
aa(lp3885
g1169
a(I584
I3360
tp3886
aa(lp3887
g1172
a(I0
I2240
tp3888
aa(lp3889
g1175
a(I0
I6720
tp3890
aa(lp3891
g1178
a(I2122
I137824
tp3892
aa(lp3893
g1181
a(I585
I7424
tp3894
aa(lp3895
g1184
a(I212
I764
tp3896
aa(lp3897
g1187
a(I0
I308
tp3898
aatp3899
Rp3900
aa(lp3901
S'GEMM_Blocked__tileSize_256_i_tileSize_256_loop_jj_1_loop_ii_1_loop_kk_1_loop_i_4_loop_k_3'
p3902
ag0
((lp3903
(lp3904
g1148
aI875881
aa(lp3905
g1150
aF4.788668780348015
aa(lp3906
g1152
aF1.1971671950870038
aa(lp3907
g1154
a(I47
I64
tp3908
aa(lp3909
g1157
a(I42
I64
tp3910
aa(lp3911
g1160
a(I6
I34
tp3912
aa(lp3913
g1163
a(I20
I153
tp3914
aa(lp3915
g1166
a(I6
I34
tp3916
aa(lp3917
g1169
a(I693
I3360
tp3918
aa(lp3919
g1172
a(I0
I2240
tp3920
aa(lp3921
g1175
a(I0
I6720
tp3922
aa(lp3923
g1178
a(I2658
I158688
tp3924
aa(lp3925
g1181
a(I733
I8448
tp3926
aa(lp3927
g1184
a(I244
I860
tp3928
aa(lp3929
g1187
a(I0
I356
tp3930
aatp3931
Rp3932
aatp3933
Rp3934
aatp3935
Rp3936
aatp3937
Rp3938
.