ccollections
OrderedDict
p0
((lp1
(lp2
S'DotProduct'
p3
ag0
((lp4
tp5
Rp6
aa(lp7
S'TPCHQ6'
p8
ag0
((lp9
(lp10
S'96000'
p11
ag0
((lp12
(lp13
S'TPCHQ6_96000_outerPar_1_tileSize_3000'
p14
ag0
((lp15
(lp16
S'cycle'
p17
aI33435
aa(lp18
S'lavgbw'
p19
aF45.93988335576491
aa(lp20
S'savgbw'
p21
aF0.0
aa(lp22
S'pcuUtil'
p23
a(I5
I64
tp24
aa(lp25
S'mcuUtil'
p26
a(I4
I64
tp27
aa(lp28
S'scuUtil'
p29
a(I4
I34
tp30
aa(lp31
S'ocuUtil'
p32
a(I7
I153
tp33
aa(lp34
S'mcUtil'
p35
a(I4
I34
tp36
aa(lp37
S'slinkUtil'
p38
a(I27
I3360
tp39
aa(lp40
S'vlinkUtil'
p41
a(I1
I2240
tp42
aa(lp43
S'clinkUtil'
p44
a(I0
I6720
tp45
aa(lp46
S'totalRegUtil'
p47
a(I632
I19712
tp48
aa(lp49
S'totalFUUtil'
p50
a(I240
I1120
tp51
aa(lp52
S'totalSBufUtil'
p53
a(I21
I139
tp54
aa(lp55
S'totalVBufUtil'
p56
a(I3
I36
tp57
aatp58
Rp59
aa(lp60
S'TPCHQ6_96000_outerPar_1_tileSize_6000'
p61
ag0
((lp62
(lp63
g17
aI31633
aa(lp64
g19
aF48.55688679543515
aa(lp65
g21
aF0.0
aa(lp66
g23
a(I5
I64
tp67
aa(lp68
g26
a(I4
I64
tp69
aa(lp70
g29
a(I4
I34
tp71
aa(lp72
g32
a(I7
I153
tp73
aa(lp74
g35
a(I4
I34
tp75
aa(lp76
g38
a(I22
I3360
tp77
aa(lp78
g41
a(I1
I2240
tp79
aa(lp80
g44
a(I0
I6720
tp81
aa(lp82
g47
a(I632
I19712
tp83
aa(lp84
g50
a(I240
I1120
tp85
aa(lp86
g53
a(I21
I139
tp87
aa(lp88
g56
a(I3
I36
tp89
aatp90
Rp91
aa(lp92
S'TPCHQ6_96000_outerPar_3_tileSize_3000'
p93
ag0
((lp94
(lp95
g17
aI33381
aa(lp96
g19
aF46.01419969443696
aa(lp97
g21
aF0.0
aa(lp98
g23
a(I11
I64
tp99
aa(lp100
g26
a(I12
I64
tp101
aa(lp102
g29
a(I12
I34
tp103
aa(lp104
g32
a(I17
I153
tp105
aa(lp106
g35
a(I12
I34
tp107
aa(lp108
g38
a(I112
I3360
tp109
aa(lp110
g41
a(I4
I2240
tp111
aa(lp112
g44
a(I0
I6720
tp113
aa(lp114
g47
a(I1873
I52992
tp115
aa(lp116
g50
a(I713
I2976
tp117
aa(lp118
g53
a(I57
I365
tp119
aa(lp120
g56
a(I9
I92
tp121
aatp122
Rp123
aa(lp124
S'TPCHQ6_96000_outerPar_3_tileSize_6000'
p125
ag0
((lp126
(lp127
g17
aI32712
aa(lp128
g19
aF46.95524578136463
aa(lp129
g21
aF0.0
aa(lp130
g23
a(I11
I64
tp131
aa(lp132
g26
a(I12
I64
tp133
aa(lp134
g29
a(I12
I34
tp135
aa(lp136
g32
a(I17
I153
tp137
aa(lp138
g35
a(I12
I34
tp139
aa(lp140
g38
a(I95
I3360
tp141
aa(lp142
g41
a(I4
I2240
tp143
aa(lp144
g44
a(I0
I6720
tp145
aa(lp146
g47
a(I1873
I52992
tp147
aa(lp148
g50
a(I713
I2976
tp149
aa(lp150
g53
a(I57
I365
tp151
aa(lp152
g56
a(I9
I92
tp153
aatp154
Rp155
aa(lp156
S'TPCHQ6_96000_outerPar_5_tileSize_3000'
p157
ag0
((lp158
(lp159
g17
aI32514
aa(lp160
g19
aF47.24118841114596
aa(lp161
g21
aF0.0
aa(lp162
g23
a(I17
I64
tp163
aa(lp164
g26
a(I20
I64
tp165
aa(lp166
g29
a(I20
I34
tp167
aa(lp168
g32
a(I27
I153
tp169
aa(lp170
g35
a(I20
I34
tp171
aa(lp172
g38
a(I273
I3360
tp173
aa(lp174
g41
a(I7
I2240
tp175
aa(lp176
g44
a(I0
I6720
tp177
aa(lp178
g47
a(I3118
I86272
tp179
aa(lp180
g50
a(I1187
I4832
tp181
aa(lp182
g53
a(I93
I591
tp183
aa(lp184
g56
a(I15
I148
tp185
aatp186
Rp187
aa(lp188
S'TPCHQ6_96000_outerPar_6_tileSize_400'
p189
ag0
((lp190
(lp191
g17
aI36846
aa(lp192
g19
aF41.687021657710474
aa(lp193
g21
aF0.0
aa(lp194
g23
a(I20
I64
tp195
aa(lp196
g26
a(I24
I64
tp197
aa(lp198
g29
a(I24
I34
tp199
aa(lp200
g32
a(I32
I153
tp201
aa(lp202
g35
a(I24
I34
tp203
aa(lp204
g38
a(I339
I3360
tp205
aa(lp206
g41
a(I11
I2240
tp207
aa(lp208
g44
a(I0
I6720
tp209
aa(lp210
g47
a(I3742
I102912
tp211
aa(lp212
g50
a(I1424
I5760
tp213
aa(lp214
g53
a(I111
I704
tp215
aa(lp216
g56
a(I18
I176
tp217
aatp218
Rp219
aa(lp220
S'TPCHQ6_96000_outerPar_6_tileSize_1200'
p221
ag0
((lp222
(lp223
g17
aI33181
aa(lp224
g19
aF46.291552394442604
aa(lp225
g21
aF0.0
aa(lp226
g23
a(I20
I64
tp227
aa(lp228
g26
a(I24
I64
tp229
aa(lp230
g29
a(I24
I34
tp231
aa(lp232
g32
a(I32
I153
tp233
aa(lp234
g35
a(I24
I34
tp235
aa(lp236
g38
a(I337
I3360
tp237
aa(lp238
g41
a(I10
I2240
tp239
aa(lp240
g44
a(I0
I6720
tp241
aa(lp242
g47
a(I3742
I102912
tp243
aa(lp244
g50
a(I1424
I5760
tp245
aa(lp246
g53
a(I111
I704
tp247
aa(lp248
g56
a(I18
I176
tp249
aatp250
Rp251
aa(lp252
S'TPCHQ6_96000_outerPar_6_tileSize_2000'
p253
ag0
((lp254
(lp255
g17
aI33123
aa(lp256
g19
aF46.37261117652386
aa(lp257
g21
aF0.0
aa(lp258
g23
a(I20
I64
tp259
aa(lp260
g26
a(I24
I64
tp261
aa(lp262
g29
a(I24
I34
tp263
aa(lp264
g32
a(I32
I153
tp265
aa(lp266
g35
a(I24
I34
tp267
aa(lp268
g38
a(I337
I3360
tp269
aa(lp270
g41
a(I11
I2240
tp271
aa(lp272
g44
a(I0
I6720
tp273
aa(lp274
g47
a(I3742
I102912
tp275
aa(lp276
g50
a(I1424
I5760
tp277
aa(lp278
g53
a(I111
I704
tp279
aa(lp280
g56
a(I18
I176
tp281
aatp282
Rp283
aa(lp284
S'TPCHQ6_96000_outerPar_6_tileSize_2800'
p285
ag0
((lp286
(lp287
g17
aI32621
aa(lp288
g19
aF47.08623279482543
aa(lp289
g21
aF0.0
aa(lp290
g23
a(I20
I64
tp291
aa(lp292
g26
a(I24
I64
tp293
aa(lp294
g29
a(I24
I34
tp295
aa(lp296
g32
a(I32
I153
tp297
aa(lp298
g35
a(I24
I34
tp299
aa(lp300
g38
a(I344
I3360
tp301
aa(lp302
g41
a(I10
I2240
tp303
aa(lp304
g44
a(I0
I6720
tp305
aa(lp306
g47
a(I3742
I102912
tp307
aa(lp308
g50
a(I1424
I5760
tp309
aa(lp310
g53
a(I111
I704
tp311
aa(lp312
g56
a(I18
I176
tp313
aatp314
Rp315
aa(lp316
S'TPCHQ6_96000_outerPar_6_tileSize_3600'
p317
ag0
((lp318
(lp319
g17
aI32361
aa(lp320
g19
aF47.464540650783356
aa(lp321
g21
aF0.0
aa(lp322
g23
a(I20
I64
tp323
aa(lp324
g26
a(I24
I64
tp325
aa(lp326
g29
a(I24
I34
tp327
aa(lp328
g32
a(I32
I153
tp329
aa(lp330
g35
a(I24
I34
tp331
aa(lp332
g38
a(I343
I3360
tp333
aa(lp334
g41
a(I11
I2240
tp335
aa(lp336
g44
a(I0
I6720
tp337
aa(lp338
g47
a(I3742
I102912
tp339
aa(lp340
g50
a(I1424
I5760
tp341
aa(lp342
g53
a(I111
I704
tp343
aa(lp344
g56
a(I18
I176
tp345
aatp346
Rp347
aa(lp348
S'TPCHQ6_96000_outerPar_8_tileSize_400'
p349
ag0
((lp350
(lp351
g17
aI35423
aa(lp352
g19
aF43.36165768003839
aa(lp353
g21
aF0.0
aa(lp354
g23
a(I27
I64
tp355
aa(lp356
g26
a(I32
I64
tp357
aa(lp358
g29
a(I32
I34
tp359
aa(lp360
g32
a(I42
I153
tp361
aa(lp362
g35
a(I32
I34
tp363
aa(lp364
g38
a(I479
I3360
tp365
aa(lp366
g41
a(I17
I2240
tp367
aa(lp368
g44
a(I0
I6720
tp369
aa(lp370
g47
a(I4993
I137728
tp371
aa(lp372
g50
a(I1898
I7712
tp373
aa(lp374
g53
a(I149
I938
tp375
aa(lp376
g56
a(I24
I236
tp377
aatp378
Rp379
aa(lp380
S'TPCHQ6_96000_outerPar_8_tileSize_1200'
p381
ag0
((lp382
(lp383
g17
aI33196
aa(lp384
g19
aF46.27063501626702
aa(lp385
g21
aF0.0
aa(lp386
g23
a(I27
I64
tp387
aa(lp388
g26
a(I32
I64
tp389
aa(lp390
g29
a(I32
I34
tp391
aa(lp392
g32
a(I42
I153
tp393
aa(lp394
g35
a(I32
I34
tp395
aa(lp396
g38
a(I533
I3360
tp397
aa(lp398
g41
a(I34
I2240
tp399
aa(lp400
g44
a(I0
I6720
tp401
aa(lp402
g47
a(I4993
I137728
tp403
aa(lp404
g50
a(I1898
I7712
tp405
aa(lp406
g53
a(I149
I938
tp407
aa(lp408
g56
a(I24
I236
tp409
aatp410
Rp411
aa(lp412
S'TPCHQ6_96000_outerPar_8_tileSize_2000'
p413
ag0
((lp414
(lp415
g17
aI31906
aa(lp416
g19
aF48.14141540776029
aa(lp417
g21
aF0.0
aa(lp418
g23
a(I27
I64
tp419
aa(lp420
g26
a(I32
I64
tp421
aa(lp422
g29
a(I32
I34
tp423
aa(lp424
g32
a(I42
I153
tp425
aa(lp426
g35
a(I32
I34
tp427
aa(lp428
g38
a(I502
I3360
tp429
aa(lp430
g41
a(I26
I2240
tp431
aa(lp432
g44
a(I0
I6720
tp433
aa(lp434
g47
a(I4993
I137728
tp435
aa(lp436
g50
a(I1898
I7712
tp437
aa(lp438
g53
a(I149
I938
tp439
aa(lp440
g56
a(I24
I236
tp441
aatp442
Rp443
aa(lp444
S'TPCHQ6_96000_outerPar_8_tileSize_2800'
p445
ag0
((lp446
(lp447
g17
aI32844
aa(lp448
g19
aF46.766532700036535
aa(lp449
g21
aF0.0
aa(lp450
g23
a(I27
I64
tp451
aa(lp452
g26
a(I32
I64
tp453
aa(lp454
g29
a(I32
I34
tp455
aa(lp456
g32
a(I42
I153
tp457
aa(lp458
g35
a(I32
I34
tp459
aa(lp460
g38
a(I481
I3360
tp461
aa(lp462
g41
a(I17
I2240
tp463
aa(lp464
g44
a(I0
I6720
tp465
aa(lp466
g47
a(I4993
I137728
tp467
aa(lp468
g50
a(I1898
I7712
tp469
aa(lp470
g53
a(I149
I938
tp471
aa(lp472
g56
a(I24
I236
tp473
aatp474
Rp475
aa(lp476
S'TPCHQ6_96000_outerPar_2_tileSize_16'
p477
ag0
((lp478
(lp479
g17
aI405792
aa(lp480
g19
aF3.785190442394133
aa(lp481
g21
aF0.0
aa(lp482
g23
a(I8
I64
tp483
aa(lp484
g26
a(I8
I64
tp485
aa(lp486
g29
a(I8
I34
tp487
aa(lp488
g32
a(I12
I153
tp489
aa(lp490
g35
a(I8
I34
tp491
aa(lp492
g38
a(I105
I3360
tp493
aa(lp494
g41
a(I3
I2240
tp495
aa(lp496
g44
a(I0
I6720
tp497
aa(lp498
g47
a(I1252
I36352
tp499
aa(lp500
g50
a(I476
I2048
tp501
aa(lp502
g53
a(I39
I252
tp503
aa(lp504
g56
a(I6
I64
tp505
aatp506
Rp507
aa(lp508
S'TPCHQ6_96000_outerPar_2_tileSize_48'
p509
ag0
((lp510
(lp511
g17
aI137843
aa(lp512
g19
aF11.143112091292268
aa(lp513
g21
aF0.0
aa(lp514
g23
a(I8
I64
tp515
aa(lp516
g26
a(I8
I64
tp517
aa(lp518
g29
a(I8
I34
tp519
aa(lp520
g32
a(I12
I153
tp521
aa(lp522
g35
a(I8
I34
tp523
aa(lp524
g38
a(I75
I3360
tp525
aa(lp526
g41
a(I2
I2240
tp527
aa(lp528
g44
a(I0
I6720
tp529
aa(lp530
g47
a(I1252
I36352
tp531
aa(lp532
g50
a(I476
I2048
tp533
aa(lp534
g53
a(I39
I252
tp535
aa(lp536
g56
a(I6
I64
tp537
aatp538
Rp539
aa(lp540
S'TPCHQ6_96000_outerPar_2_tileSize_80'
p541
ag0
((lp542
(lp543
g17
aI99063
aa(lp544
g19
aF15.505284515914116
aa(lp545
g21
aF0.0
aa(lp546
g23
a(I8
I64
tp547
aa(lp548
g26
a(I8
I64
tp549
aa(lp550
g29
a(I8
I34
tp551
aa(lp552
g32
a(I12
I153
tp553
aa(lp554
g35
a(I8
I34
tp555
aa(lp556
g38
a(I74
I3360
tp557
aa(lp558
g41
a(I2
I2240
tp559
aa(lp560
g44
a(I0
I6720
tp561
aa(lp562
g47
a(I1252
I36352
tp563
aa(lp564
g50
a(I476
I2048
tp565
aa(lp566
g53
a(I39
I252
tp567
aa(lp568
g56
a(I6
I64
tp569
aatp570
Rp571
aa(lp572
S'TPCHQ6_96000_outerPar_2_tileSize_112'
p573
ag0
((lp574
(lp575
g17
aI78569
aa(lp576
g19
aF19.549695172396238
aa(lp577
g21
aF0.0
aa(lp578
g23
a(I8
I64
tp579
aa(lp580
g26
a(I8
I64
tp581
aa(lp582
g29
a(I8
I34
tp583
aa(lp584
g32
a(I12
I153
tp585
aa(lp586
g35
a(I8
I34
tp587
aa(lp588
g38
a(I70
I3360
tp589
aa(lp590
g41
a(I2
I2240
tp591
aa(lp592
g44
a(I0
I6720
tp593
aa(lp594
g47
a(I1252
I36352
tp595
aa(lp596
g50
a(I476
I2048
tp597
aa(lp598
g53
a(I39
I252
tp599
aa(lp600
g56
a(I6
I64
tp601
aatp602
Rp603
aa(lp604
S'TPCHQ6_96000_outerPar_2_tileSize_144'
p605
ag0
((lp606
(lp607
g17
aI64694
aa(lp608
g19
aF23.7425418122237
aa(lp609
g21
aF0.0
aa(lp610
g23
a(I8
I64
tp611
aa(lp612
g26
a(I8
I64
tp613
aa(lp614
g29
a(I8
I34
tp615
aa(lp616
g32
a(I12
I153
tp617
aa(lp618
g35
a(I8
I34
tp619
aa(lp620
g38
a(I80
I3360
tp621
aa(lp622
g41
a(I2
I2240
tp623
aa(lp624
g44
a(I0
I6720
tp625
aa(lp626
g47
a(I1252
I36352
tp627
aa(lp628
g50
a(I476
I2048
tp629
aa(lp630
g53
a(I39
I252
tp631
aa(lp632
g56
a(I6
I64
tp633
aatp634
Rp635
aa(lp636
S'TPCHQ6_96000_outerPar_2_tileSize_176'
p637
ag0
((lp638
(lp639
g17
aI59850
aa(lp640
g19
aF25.664160401002505
aa(lp641
g21
aF0.0
aa(lp642
g23
a(I8
I64
tp643
aa(lp644
g26
a(I8
I64
tp645
aa(lp646
g29
a(I8
I34
tp647
aa(lp648
g32
a(I12
I153
tp649
aa(lp650
g35
a(I8
I34
tp651
aa(lp652
g38
a(I66
I3360
tp653
aa(lp654
g41
a(I2
I2240
tp655
aa(lp656
g44
a(I0
I6720
tp657
aa(lp658
g47
a(I1252
I36352
tp659
aa(lp660
g50
a(I476
I2048
tp661
aa(lp662
g53
a(I39
I252
tp663
aa(lp664
g56
a(I6
I64
tp665
aatp666
Rp667
aa(lp668
S'TPCHQ6_96000_outerPar_2_tileSize_208'
p669
ag0
((lp670
(lp671
g17
aI55820
aa(lp672
g19
aF27.517018989609458
aa(lp673
g21
aF0.0
aa(lp674
g23
a(I8
I64
tp675
aa(lp676
g26
a(I8
I64
tp677
aa(lp678
g29
a(I8
I34
tp679
aa(lp680
g32
a(I12
I153
tp681
aa(lp682
g35
a(I8
I34
tp683
aa(lp684
g38
a(I69
I3360
tp685
aa(lp686
g41
a(I2
I2240
tp687
aa(lp688
g44
a(I0
I6720
tp689
aa(lp690
g47
a(I1252
I36352
tp691
aa(lp692
g50
a(I476
I2048
tp693
aa(lp694
g53
a(I39
I252
tp695
aa(lp696
g56
a(I6
I64
tp697
aatp698
Rp699
aa(lp700
S'TPCHQ6_96000_outerPar_2_tileSize_240'
p701
ag0
((lp702
(lp703
g17
aI51062
aa(lp704
g19
aF30.081077905291608
aa(lp705
g21
aF0.0
aa(lp706
g23
a(I8
I64
tp707
aa(lp708
g26
a(I8
I64
tp709
aa(lp710
g29
a(I8
I34
tp711
aa(lp712
g32
a(I12
I153
tp713
aa(lp714
g35
a(I8
I34
tp715
aa(lp716
g38
a(I80
I3360
tp717
aa(lp718
g41
a(I2
I2240
tp719
aa(lp720
g44
a(I0
I6720
tp721
aa(lp722
g47
a(I1252
I36352
tp723
aa(lp724
g50
a(I476
I2048
tp725
aa(lp726
g53
a(I39
I252
tp727
aa(lp728
g56
a(I6
I64
tp729
aatp730
Rp731
aa(lp732
S'TPCHQ6_96000_outerPar_4_tileSize_16'
p733
ag0
((lp734
(lp735
g17
aI201953
aa(lp736
g19
aF7.605730046099835
aa(lp737
g21
aF0.0
aa(lp738
g23
a(I14
I64
tp739
aa(lp740
g26
a(I16
I64
tp741
aa(lp742
g29
a(I16
I34
tp743
aa(lp744
g32
a(I22
I153
tp745
aa(lp746
g35
a(I16
I34
tp747
aa(lp748
g38
a(I217
I3360
tp749
aa(lp750
g41
a(I5
I2240
tp751
aa(lp752
g44
a(I0
I6720
tp753
aa(lp754
g47
a(I2495
I69632
tp755
aa(lp756
g50
a(I950
I3904
tp757
aa(lp758
g53
a(I75
I478
tp759
aa(lp760
g56
a(I12
I120
tp761
aatp762
Rp763
aa(lp764
S'TPCHQ6_96000_outerPar_4_tileSize_48'
p765
ag0
((lp766
(lp767
g17
aI84737
aa(lp768
g19
aF18.126674298122424
aa(lp769
g21
aF0.0
aa(lp770
g23
a(I14
I64
tp771
aa(lp772
g26
a(I16
I64
tp773
aa(lp774
g29
a(I16
I34
tp775
aa(lp776
g32
a(I22
I153
tp777
aa(lp778
g35
a(I16
I34
tp779
aa(lp780
g38
a(I207
I3360
tp781
aa(lp782
g41
a(I5
I2240
tp783
aa(lp784
g44
a(I0
I6720
tp785
aa(lp786
g47
a(I2495
I69632
tp787
aa(lp788
g50
a(I950
I3904
tp789
aa(lp790
g53
a(I75
I478
tp791
aa(lp792
g56
a(I12
I120
tp793
aatp794
Rp795
aa(lp796
S'TPCHQ6_96000_outerPar_4_tileSize_80'
p797
ag0
((lp798
(lp799
g17
aI60710
aa(lp800
g19
aF25.300609454785047
aa(lp801
g21
aF0.0
aa(lp802
g23
a(I14
I64
tp803
aa(lp804
g26
a(I16
I64
tp805
aa(lp806
g29
a(I16
I34
tp807
aa(lp808
g32
a(I22
I153
tp809
aa(lp810
g35
a(I16
I34
tp811
aa(lp812
g38
a(I186
I3360
tp813
aa(lp814
g41
a(I5
I2240
tp815
aa(lp816
g44
a(I0
I6720
tp817
aa(lp818
g47
a(I2495
I69632
tp819
aa(lp820
g50
a(I950
I3904
tp821
aa(lp822
g53
a(I75
I478
tp823
aa(lp824
g56
a(I12
I120
tp825
aatp826
Rp827
aa(lp828
S'TPCHQ6_96000_outerPar_4_tileSize_112'
p829
ag0
((lp830
(lp831
g17
aI53686
aa(lp832
g19
aF28.610811012181944
aa(lp833
g21
aF0.0
aa(lp834
g23
a(I14
I64
tp835
aa(lp836
g26
a(I16
I64
tp837
aa(lp838
g29
a(I16
I34
tp839
aa(lp840
g32
a(I22
I153
tp841
aa(lp842
g35
a(I16
I34
tp843
aa(lp844
g38
a(I202
I3360
tp845
aa(lp846
g41
a(I5
I2240
tp847
aa(lp848
g44
a(I0
I6720
tp849
aa(lp850
g47
a(I2495
I69632
tp851
aa(lp852
g50
a(I950
I3904
tp853
aa(lp854
g53
a(I75
I478
tp855
aa(lp856
g56
a(I12
I120
tp857
aatp858
Rp859
aa(lp860
S'TPCHQ6_96000_outerPar_6_tileSize_16'
p861
ag0
((lp862
(lp863
g17
aI164316
aa(lp864
g19
aF9.347841963046813
aa(lp865
g21
aF0.0
aa(lp866
g23
a(I20
I64
tp867
aa(lp868
g26
a(I24
I64
tp869
aa(lp870
g29
a(I24
I34
tp871
aa(lp872
g32
a(I32
I153
tp873
aa(lp874
g35
a(I24
I34
tp875
aa(lp876
g38
a(I375
I3360
tp877
aa(lp878
g41
a(I11
I2240
tp879
aa(lp880
g44
a(I0
I6720
tp881
aa(lp882
g47
a(I3742
I102912
tp883
aa(lp884
g50
a(I1424
I5760
tp885
aa(lp886
g53
a(I111
I704
tp887
aa(lp888
g56
a(I18
I176
tp889
aatp890
Rp891
aa(lp892
S'TPCHQ6_96000_outerPar_6_tileSize_48'
p893
ag0
((lp894
(lp895
g17
aI68913
aa(lp896
g19
aF22.28897305297985
aa(lp897
g21
aF0.0
aa(lp898
g23
a(I20
I64
tp899
aa(lp900
g26
a(I24
I64
tp901
aa(lp902
g29
a(I24
I34
tp903
aa(lp904
g32
a(I32
I153
tp905
aa(lp906
g35
a(I24
I34
tp907
aa(lp908
g38
a(I348
I3360
tp909
aa(lp910
g41
a(I10
I2240
tp911
aa(lp912
g44
a(I0
I6720
tp913
aa(lp914
g47
a(I3742
I102912
tp915
aa(lp916
g50
a(I1424
I5760
tp917
aa(lp918
g53
a(I111
I704
tp919
aa(lp920
g56
a(I18
I176
tp921
aatp922
Rp923
aa(lp924
S'TPCHQ6_96000_outerPar_6_tileSize_80'
p925
ag0
((lp926
(lp927
g17
aI49357
aa(lp928
g19
aF31.120205847194928
aa(lp929
g21
aF0.0
aa(lp930
g23
a(I20
I64
tp931
aa(lp932
g26
a(I24
I64
tp933
aa(lp934
g29
a(I24
I34
tp935
aa(lp936
g32
a(I32
I153
tp937
aa(lp938
g35
a(I24
I34
tp939
aa(lp940
g38
a(I347
I3360
tp941
aa(lp942
g41
a(I11
I2240
tp943
aa(lp944
g44
a(I0
I6720
tp945
aa(lp946
g47
a(I3742
I102912
tp947
aa(lp948
g50
a(I1424
I5760
tp949
aa(lp950
g53
a(I111
I704
tp951
aa(lp952
g56
a(I18
I176
tp953
aatp954
Rp955
aa(lp956
S'TPCHQ6_96000_outerPar_8_tileSize_16'
p957
ag0
((lp958
(lp959
g17
aI133521
aa(lp960
g19
aF11.503808389691509
aa(lp961
g21
aF0.0
aa(lp962
g23
a(I27
I64
tp963
aa(lp964
g26
a(I32
I64
tp965
aa(lp966
g29
a(I32
I34
tp967
aa(lp968
g32
a(I42
I153
tp969
aa(lp970
g35
a(I32
I34
tp971
aa(lp972
g38
a(I495
I3360
tp973
aa(lp974
g41
a(I17
I2240
tp975
aa(lp976
g44
a(I0
I6720
tp977
aa(lp978
g47
a(I4993
I137728
tp979
aa(lp980
g50
a(I1898
I7712
tp981
aa(lp982
g53
a(I149
I938
tp983
aa(lp984
g56
a(I24
I236
tp985
aatp986
Rp987
aa(lp988
S'TPCHQ6_96000_outerPar_8_tileSize_48'
p989
ag0
((lp990
(lp991
g17
aI54641
aa(lp992
g19
aF28.1107593199246
aa(lp993
g21
aF0.0
aa(lp994
g23
a(I27
I64
tp995
aa(lp996
g26
a(I32
I64
tp997
aa(lp998
g29
a(I32
I34
tp999
aa(lp1000
g32
a(I42
I153
tp1001
aa(lp1002
g35
a(I32
I34
tp1003
aa(lp1004
g38
a(I507
I3360
tp1005
aa(lp1006
g41
a(I19
I2240
tp1007
aa(lp1008
g44
a(I0
I6720
tp1009
aa(lp1010
g47
a(I4993
I137728
tp1011
aa(lp1012
g50
a(I1898
I7712
tp1013
aa(lp1014
g53
a(I149
I938
tp1015
aa(lp1016
g56
a(I24
I236
tp1017
aatp1018
Rp1019
aatp1020
Rp1021
aatp1022
Rp1023
aa(lp1024
S'GDA'
p1025
ag0
((lp1026
(lp1027
S'19200'
p1028
ag0
((lp1029
tp1030
Rp1031
aatp1032
Rp1033
aa(lp1034
S'BlackScholes'
p1035
ag0
((lp1036
(lp1037
S'1966080'
p1038
ag0
((lp1039
(lp1040
S'BlackScholes_1966080_outerPar_1_tileSize_1024'
p1041
ag0
((lp1042
(lp1043
S'cycle'
p1044
aI1248537
aa(lp1045
S'lavgbw'
p1046
aF37.79296889078978
aa(lp1047
S'savgbw'
p1048
aF6.298828148464963
aa(lp1049
S'pcuUtil'
p1050
a(I37
I64
tp1051
aa(lp1052
S'mcuUtil'
p1053
a(I7
I64
tp1054
aa(lp1055
S'scuUtil'
p1056
a(I7
I34
tp1057
aa(lp1058
S'ocuUtil'
p1059
a(I9
I153
tp1060
aa(lp1061
S'mcUtil'
p1062
a(I7
I34
tp1063
aa(lp1064
S'slinkUtil'
p1065
a(I125
I3360
tp1066
aa(lp1067
S'vlinkUtil'
p1068
a(I154
I2240
tp1069
aa(lp1070
S'clinkUtil'
p1071
a(I0
I6720
tp1072
aa(lp1073
S'totalRegUtil'
p1074
a(I9069
I77888
tp1075
aa(lp1076
S'totalFUUtil'
p1077
a(I2821
I4672
tp1078
aa(lp1079
S'totalSBufUtil'
p1080
a(I37
I453
tp1081
aa(lp1082
S'totalVBufUtil'
p1083
a(I96
I176
tp1084
aatp1085
Rp1086
aa(lp1087
S'BlackScholes_1966080_outerPar_1_tileSize_2048'
p1088
ag0
((lp1089
(lp1090
g1044
aI1167681
aa(lp1091
g1046
aF40.40994072867504
aa(lp1092
g1048
aF6.73499012144584
aa(lp1093
g1050
a(I37
I64
tp1094
aa(lp1095
g1053
a(I7
I64
tp1096
aa(lp1097
g1056
a(I7
I34
tp1098
aa(lp1099
g1059
a(I9
I153
tp1100
aa(lp1101
g1062
a(I7
I34
tp1102
aa(lp1103
g1065
a(I111
I3360
tp1104
aa(lp1105
g1068
a(I186
I2240
tp1106
aa(lp1107
g1071
a(I0
I6720
tp1108
aa(lp1109
g1074
a(I9069
I77888
tp1110
aa(lp1111
g1077
a(I2821
I4672
tp1112
aa(lp1113
g1080
a(I37
I453
tp1114
aa(lp1115
g1083
a(I96
I176
tp1116
aatp1117
Rp1118
aa(lp1119
S'BlackScholes_1966080_outerPar_1_tileSize_3072'
p1120
ag0
((lp1121
(lp1122
g1044
aI1238092
aa(lp1123
g1046
aF38.11180429241122
aa(lp1124
g1048
aF6.351967382068537
aa(lp1125
g1050
a(I37
I64
tp1126
aa(lp1127
g1053
a(I7
I64
tp1128
aa(lp1129
g1056
a(I7
I34
tp1130
aa(lp1131
g1059
a(I9
I153
tp1132
aa(lp1133
g1062
a(I7
I34
tp1134
aa(lp1135
g1065
a(I152
I3360
tp1136
aa(lp1137
g1068
a(I162
I2240
tp1138
aa(lp1139
g1071
a(I0
I6720
tp1140
aa(lp1141
g1074
a(I9069
I77888
tp1142
aa(lp1143
g1077
a(I2821
I4672
tp1144
aa(lp1145
g1080
a(I37
I453
tp1146
aa(lp1147
g1083
a(I96
I176
tp1148
aatp1149
Rp1150
aa(lp1151
S'BlackScholes_1966080_outerPar_1_tileSize_4096'
p1152
ag0
((lp1153
(lp1154
g1044
aI1150591
aa(lp1155
g1046
aF41.01015912691825
aa(lp1156
g1048
aF6.835026521153042
aa(lp1157
g1050
a(I37
I64
tp1158
aa(lp1159
g1053
a(I7
I64
tp1160
aa(lp1161
g1056
a(I7
I34
tp1162
aa(lp1163
g1059
a(I9
I153
tp1164
aa(lp1165
g1062
a(I7
I34
tp1166
aa(lp1167
g1065
a(I128
I3360
tp1168
aa(lp1169
g1068
a(I154
I2240
tp1170
aa(lp1171
g1071
a(I0
I6720
tp1172
aa(lp1173
g1074
a(I9069
I77888
tp1174
aa(lp1175
g1077
a(I2821
I4672
tp1176
aa(lp1177
g1080
a(I37
I453
tp1178
aa(lp1179
g1083
a(I96
I176
tp1180
aatp1181
Rp1182
aa(lp1183
S'BlackScholes_1966080_outerPar_1_tileSize_5120'
p1184
ag0
((lp1185
(lp1186
g1044
aI1123589
aa(lp1187
g1046
aF41.995711955172226
aa(lp1188
g1048
aF6.999285325862037
aa(lp1189
g1050
a(I37
I64
tp1190
aa(lp1191
g1053
a(I7
I64
tp1192
aa(lp1193
g1056
a(I7
I34
tp1194
aa(lp1195
g1059
a(I9
I153
tp1196
aa(lp1197
g1062
a(I7
I34
tp1198
aa(lp1199
g1065
a(I116
I3360
tp1200
aa(lp1201
g1068
a(I173
I2240
tp1202
aa(lp1203
g1071
a(I0
I6720
tp1204
aa(lp1205
g1074
a(I9069
I77888
tp1206
aa(lp1207
g1077
a(I2821
I4672
tp1208
aa(lp1209
g1080
a(I37
I453
tp1210
aa(lp1211
g1083
a(I96
I176
tp1212
aatp1213
Rp1214
aa(lp1215
S'BlackScholes_1966080_outerPar_1_tileSize_6144'
p1216
ag0
((lp1217
(lp1218
g1044
aI1118236
aa(lp1219
g1046
aF42.19674558858774
aa(lp1220
g1048
aF7.03279093143129
aa(lp1221
g1050
a(I37
I64
tp1222
aa(lp1223
g1053
a(I7
I64
tp1224
aa(lp1225
g1056
a(I7
I34
tp1226
aa(lp1227
g1059
a(I9
I153
tp1228
aa(lp1229
g1062
a(I7
I34
tp1230
aa(lp1231
g1065
a(I114
I3360
tp1232
aa(lp1233
g1068
a(I194
I2240
tp1234
aa(lp1235
g1071
a(I0
I6720
tp1236
aa(lp1237
g1074
a(I9069
I77888
tp1238
aa(lp1239
g1077
a(I2821
I4672
tp1240
aa(lp1241
g1080
a(I37
I453
tp1242
aa(lp1243
g1083
a(I96
I176
tp1244
aatp1245
Rp1246
aa(lp1247
S'BlackScholes_1966080_outerPar_1_tileSize_7168'
p1248
ag0
((lp1249
(lp1250
g1044
aI1116949
aa(lp1251
g1046
aF42.24536661924583
aa(lp1252
g1048
aF7.040894436540971
aa(lp1253
g1050
a(I37
I64
tp1254
aa(lp1255
g1053
a(I7
I64
tp1256
aa(lp1257
g1056
a(I7
I34
tp1258
aa(lp1259
g1059
a(I9
I153
tp1260
aa(lp1261
g1062
a(I7
I34
tp1262
aa(lp1263
g1065
a(I103
I3360
tp1264
aa(lp1265
g1068
a(I195
I2240
tp1266
aa(lp1267
g1071
a(I0
I6720
tp1268
aa(lp1269
g1074
a(I9069
I77888
tp1270
aa(lp1271
g1077
a(I2821
I4672
tp1272
aa(lp1273
g1080
a(I37
I453
tp1274
aa(lp1275
g1083
a(I96
I176
tp1276
aatp1277
Rp1278
aa(lp1279
S'BlackScholes_1966080_outerPar_1_tileSize_8192'
p1280
ag0
((lp1281
(lp1282
g1044
aI1114544
aa(lp1283
g1046
aF42.33652507213712
aa(lp1284
g1048
aF7.056087512022854
aa(lp1285
g1050
a(I37
I64
tp1286
aa(lp1287
g1053
a(I7
I64
tp1288
aa(lp1289
g1056
a(I7
I34
tp1290
aa(lp1291
g1059
a(I9
I153
tp1292
aa(lp1293
g1062
a(I7
I34
tp1294
aa(lp1295
g1065
a(I98
I3360
tp1296
aa(lp1297
g1068
a(I196
I2240
tp1298
aa(lp1299
g1071
a(I0
I6720
tp1300
aa(lp1301
g1074
a(I9069
I77888
tp1302
aa(lp1303
g1077
a(I2821
I4672
tp1304
aa(lp1305
g1080
a(I37
I453
tp1306
aa(lp1307
g1083
a(I96
I176
tp1308
aatp1309
Rp1310
aa(lp1311
S'BlackScholes_1966080_outerPar_1_tileSize_16384'
p1312
ag0
((lp1313
(lp1314
g1044
aI1106333
aa(lp1315
g1046
aF42.65073897280475
aa(lp1316
g1048
aF7.1084564954674585
aa(lp1317
g1050
a(I37
I64
tp1318
aa(lp1319
g1053
a(I7
I64
tp1320
aa(lp1321
g1056
a(I7
I34
tp1322
aa(lp1323
g1059
a(I9
I153
tp1324
aa(lp1325
g1062
a(I7
I34
tp1326
aa(lp1327
g1065
a(I116
I3360
tp1328
aa(lp1329
g1068
a(I191
I2240
tp1330
aa(lp1331
g1071
a(I0
I6720
tp1332
aa(lp1333
g1074
a(I9069
I80464
tp1334
aa(lp1335
g1077
a(I2821
I4784
tp1336
aa(lp1337
g1080
a(I37
I453
tp1338
aa(lp1339
g1083
a(I96
I176
tp1340
aatp1341
Rp1342
aa(lp1343
S'BlackScholes_1966080_outerPar_1_tileSize_32768'
p1344
ag0
((lp1345
(lp1346
g1044
aI1090177
aa(lp1347
g1046
aF43.282806369974786
aa(lp1348
g1048
aF7.2138010616624655
aa(lp1349
g1050
a(I37
I64
tp1350
aa(lp1351
g1053
a(I7
I64
tp1352
aa(lp1353
g1056
a(I7
I34
tp1354
aa(lp1355
g1059
a(I9
I153
tp1356
aa(lp1357
g1062
a(I7
I34
tp1358
aa(lp1359
g1065
a(I120
I3360
tp1360
aa(lp1361
g1068
a(I199
I2240
tp1362
aa(lp1363
g1071
a(I0
I6720
tp1364
aa(lp1365
g1074
a(I9069
I80464
tp1366
aa(lp1367
g1077
a(I2821
I4784
tp1368
aa(lp1369
g1080
a(I37
I453
tp1370
aa(lp1371
g1083
a(I96
I176
tp1372
aatp1373
Rp1374
aa(lp1375
S'BlackScholes_1966080_outerPar_1_tileSize_49152'
p1376
ag0
((lp1377
(lp1378
g1044
aI1094698
aa(lp1379
g1046
aF43.104052441860674
aa(lp1380
g1048
aF7.184008740310112
aa(lp1381
g1050
a(I37
I64
tp1382
aa(lp1383
g1053
a(I7
I64
tp1384
aa(lp1385
g1056
a(I7
I34
tp1386
aa(lp1387
g1059
a(I9
I153
tp1388
aa(lp1389
g1062
a(I7
I34
tp1390
aa(lp1391
g1065
a(I122
I3360
tp1392
aa(lp1393
g1068
a(I178
I2240
tp1394
aa(lp1395
g1071
a(I0
I6720
tp1396
aa(lp1397
g1074
a(I9069
I80464
tp1398
aa(lp1399
g1077
a(I2821
I4784
tp1400
aa(lp1401
g1080
a(I37
I453
tp1402
aa(lp1403
g1083
a(I96
I176
tp1404
aatp1405
Rp1406
aa(lp1407
S'BlackScholes_1966080_outerPar_1_tileSize_65536'
p1408
ag0
((lp1409
(lp1410
g1044
aI1103476
aa(lp1411
g1046
aF42.76116562571365
aa(lp1412
g1048
aF7.126860937618942
aa(lp1413
g1050
a(I37
I64
tp1414
aa(lp1415
g1053
a(I7
I64
tp1416
aa(lp1417
g1056
a(I7
I34
tp1418
aa(lp1419
g1059
a(I9
I153
tp1420
aa(lp1421
g1062
a(I7
I34
tp1422
aa(lp1423
g1065
a(I118
I3360
tp1424
aa(lp1425
g1068
a(I166
I2240
tp1426
aa(lp1427
g1071
a(I0
I6720
tp1428
aa(lp1429
g1074
a(I9069
I80464
tp1430
aa(lp1431
g1077
a(I2821
I4784
tp1432
aa(lp1433
g1080
a(I37
I453
tp1434
aa(lp1435
g1083
a(I96
I176
tp1436
aatp1437
Rp1438
aa(lp1439
S'BlackScholes_1966080_outerPar_1_tileSize_81920'
p1440
ag0
((lp1441
(lp1442
g1044
aI1104239
aa(lp1443
g1046
aF42.73161878904838
aa(lp1444
g1048
aF7.121936464841398
aa(lp1445
g1050
a(I37
I64
tp1446
aa(lp1447
g1053
a(I7
I64
tp1448
aa(lp1449
g1056
a(I7
I34
tp1450
aa(lp1451
g1059
a(I9
I153
tp1452
aa(lp1453
g1062
a(I7
I34
tp1454
aa(lp1455
g1065
a(I118
I3360
tp1456
aa(lp1457
g1068
a(I213
I2240
tp1458
aa(lp1459
g1071
a(I0
I6720
tp1460
aa(lp1461
g1074
a(I9069
I80464
tp1462
aa(lp1463
g1077
a(I2821
I4784
tp1464
aa(lp1465
g1080
a(I37
I453
tp1466
aa(lp1467
g1083
a(I96
I176
tp1468
aatp1469
Rp1470
aa(lp1471
S'BlackScholes_1966080_outerPar_1_tileSize_98304'
p1472
ag0
((lp1473
(lp1474
g1044
aI1098941
aa(lp1475
g1046
aF42.93762813472243
aa(lp1476
g1048
aF7.156271355787071
aa(lp1477
g1050
a(I37
I64
tp1478
aa(lp1479
g1053
a(I7
I64
tp1480
aa(lp1481
g1056
a(I7
I34
tp1482
aa(lp1483
g1059
a(I9
I153
tp1484
aa(lp1485
g1062
a(I7
I34
tp1486
aa(lp1487
g1065
a(I122
I3360
tp1488
aa(lp1489
g1068
a(I172
I2240
tp1490
aa(lp1491
g1071
a(I0
I6720
tp1492
aa(lp1493
g1074
a(I9069
I80464
tp1494
aa(lp1495
g1077
a(I2821
I4784
tp1496
aa(lp1497
g1080
a(I37
I453
tp1498
aa(lp1499
g1083
a(I96
I176
tp1500
aatp1501
Rp1502
aa(lp1503
S'BlackScholes_1966080_outerPar_1_tileSize_131072'
p1504
ag0
((lp1505
(lp1506
g1044
aI1095237
aa(lp1507
g1046
aF43.08283960457874
aa(lp1508
g1048
aF7.1804732674297895
aa(lp1509
g1050
a(I37
I64
tp1510
aa(lp1511
g1053
a(I7
I64
tp1512
aa(lp1513
g1056
a(I7
I34
tp1514
aa(lp1515
g1059
a(I9
I153
tp1516
aa(lp1517
g1062
a(I7
I34
tp1518
aa(lp1519
g1065
a(I129
I3360
tp1520
aa(lp1521
g1068
a(I155
I2240
tp1522
aa(lp1523
g1071
a(I0
I6720
tp1524
aa(lp1525
g1074
a(I9069
I80464
tp1526
aa(lp1527
g1077
a(I2821
I4784
tp1528
aa(lp1529
g1080
a(I37
I453
tp1530
aa(lp1531
g1083
a(I96
I176
tp1532
aatp1533
Rp1534
aatp1535
Rp1536
aatp1537
Rp1538
aa(lp1539
S'Kmeans_plasticine'
p1540
ag0
((lp1541
(lp1542
S'1_6144'
p1543
ag0
((lp1544
(lp1545
S'Kmeans_plasticine_1_6144_tileSize_128'
p1546
ag0
((lp1547
(lp1548
g1044
aI5963667
aa(lp1549
g1046
aF0.3968994244648469
aa(lp1550
g1048
aF0.001287798262377829
aa(lp1551
g1050
a(I8
I64
tp1552
aa(lp1553
g1053
a(I11
I64
tp1554
aa(lp1555
g1056
a(I3
I34
tp1556
aa(lp1557
g1059
a(I9
I153
tp1558
aa(lp1559
g1062
a(I3
I34
tp1560
aa(lp1561
g1065
a(I57
I3360
tp1562
aa(lp1563
g1068
a(I6
I2240
tp1564
aa(lp1565
g1071
a(I0
I6720
tp1566
aa(lp1567
g1074
a(I605
I37136
tp1568
aa(lp1569
g1077
a(I249
I1936
tp1570
aa(lp1571
g1080
a(I34
I221
tp1572
aa(lp1573
g1083
a(I1
I76
tp1574
aatp1575
Rp1576
aa(lp1577
S'Kmeans_plasticine_1_6144_tileSize_256'
p1578
ag0
((lp1579
(lp1580
g1044
aI5950139
aa(lp1581
g1046
aF0.3978017992520847
aa(lp1582
g1048
aF0.0012907261494227277
aa(lp1583
g1050
a(I8
I64
tp1584
aa(lp1585
g1053
a(I11
I64
tp1586
aa(lp1587
g1056
a(I3
I34
tp1588
aa(lp1589
g1059
a(I9
I153
tp1590
aa(lp1591
g1062
a(I3
I34
tp1592
aa(lp1593
g1065
a(I48
I3360
tp1594
aa(lp1595
g1068
a(I7
I2240
tp1596
aa(lp1597
g1071
a(I0
I6720
tp1598
aa(lp1599
g1074
a(I605
I37136
tp1600
aa(lp1601
g1077
a(I249
I1936
tp1602
aa(lp1603
g1080
a(I34
I221
tp1604
aa(lp1605
g1083
a(I1
I76
tp1606
aatp1607
Rp1608
aa(lp1609
S'Kmeans_plasticine_1_6144_tileSize_384'
p1610
ag0
((lp1611
(lp1612
g1044
aI5946286
aa(lp1613
g1046
aF0.39805956188451075
aa(lp1614
g1048
aF0.001291562498002955
aa(lp1615
g1050
a(I8
I64
tp1616
aa(lp1617
g1053
a(I11
I64
tp1618
aa(lp1619
g1056
a(I3
I34
tp1620
aa(lp1621
g1059
a(I9
I153
tp1622
aa(lp1623
g1062
a(I3
I34
tp1624
aa(lp1625
g1065
a(I54
I3360
tp1626
aa(lp1627
g1068
a(I2
I2240
tp1628
aa(lp1629
g1071
a(I0
I6720
tp1630
aa(lp1631
g1074
a(I605
I37136
tp1632
aa(lp1633
g1077
a(I249
I1936
tp1634
aa(lp1635
g1080
a(I34
I221
tp1636
aa(lp1637
g1083
a(I1
I76
tp1638
aatp1639
Rp1640
aa(lp1641
S'Kmeans_plasticine_1_6144_tileSize_512'
p1642
ag0
((lp1643
(lp1644
g1044
aI5945063
aa(lp1645
g1046
aF0.39814144946823943
aa(lp1646
g1048
aF0.0012918281942512636
aa(lp1647
g1050
a(I8
I64
tp1648
aa(lp1649
g1053
a(I11
I64
tp1650
aa(lp1651
g1056
a(I3
I34
tp1652
aa(lp1653
g1059
a(I9
I153
tp1654
aa(lp1655
g1062
a(I3
I34
tp1656
aa(lp1657
g1065
a(I62
I3360
tp1658
aa(lp1659
g1068
a(I9
I2240
tp1660
aa(lp1661
g1071
a(I0
I6720
tp1662
aa(lp1663
g1074
a(I605
I37136
tp1664
aa(lp1665
g1077
a(I249
I1936
tp1666
aa(lp1667
g1080
a(I34
I221
tp1668
aa(lp1669
g1083
a(I1
I76
tp1670
aatp1671
Rp1672
aa(lp1673
S'Kmeans_plasticine_1_6144_tileSize_1024'
p1674
ag0
((lp1675
(lp1676
g1044
aI5945409
aa(lp1677
g1046
aF0.3981182791629643
aa(lp1678
g1048
aF0.001291753014805205
aa(lp1679
g1050
a(I8
I64
tp1680
aa(lp1681
g1053
a(I11
I64
tp1682
aa(lp1683
g1056
a(I3
I34
tp1684
aa(lp1685
g1059
a(I9
I153
tp1686
aa(lp1687
g1062
a(I3
I34
tp1688
aa(lp1689
g1065
a(I54
I3360
tp1690
aa(lp1691
g1068
a(I1
I2240
tp1692
aa(lp1693
g1071
a(I0
I6720
tp1694
aa(lp1695
g1074
a(I605
I33088
tp1696
aa(lp1697
g1077
a(I249
I1760
tp1698
aa(lp1699
g1080
a(I34
I221
tp1700
aa(lp1701
g1083
a(I1
I76
tp1702
aatp1703
Rp1704
aatp1705
Rp1706
aatp1707
Rp1708
aa(lp1709
S'PageRank_plasticine'
p1710
ag0
((lp1711
(lp1712
S'1_491520_0.125'
p1713
ag0
((lp1714
tp1715
Rp1716
aatp1717
Rp1718
aa(lp1719
S'SPMV_CRS'
p1720
ag0
((lp1721
(lp1722
S''
p1723
ag0
((lp1724
(lp1725
S'SPMV_CRS__tileSize_80_tile_par_1_pt_par_1'
p1726
ag0
((lp1727
(lp1728
g17
aI93202
aa(lp1729
g19
aF0.0
aa(lp1730
g21
aF0.0
aa(lp1731
g23
a(I25
I64
tp1732
aa(lp1733
g26
a(I6
I64
tp1734
aa(lp1735
g29
a(I5
I34
tp1736
aa(lp1737
g32
a(I15
I153
tp1738
aa(lp1739
g35
a(I5
I34
tp1740
aa(lp1741
g38
a(I303
I3360
tp1742
aa(lp1743
g41
a(I0
I2240
tp1744
aa(lp1745
g44
a(I0
I6720
tp1746
aa(lp1747
g47
a(I868
I54912
tp1748
aa(lp1749
g50
a(I319
I3264
tp1750
aa(lp1751
g53
a(I107
I363
tp1752
aa(lp1753
g56
a(I1
I124
tp1754
aatp1755
Rp1756
aa(lp1757
S'SPMV_CRS__tileSize_80_tile_par_1_pt_par_2'
p1758
ag0
((lp1759
(lp1760
g17
aI83538
aa(lp1761
g19
aF0.0
aa(lp1762
g21
aF0.0
aa(lp1763
g23
a(I40
I64
tp1764
aa(lp1765
g26
a(I9
I64
tp1766
aa(lp1767
g29
a(I8
I34
tp1768
aa(lp1769
g32
a(I22
I153
tp1770
aa(lp1771
g35
a(I8
I34
tp1772
aa(lp1773
g38
a(I524
I3360
tp1774
aa(lp1775
g41
a(I0
I2240
tp1776
aa(lp1777
g44
a(I0
I6720
tp1778
aa(lp1779
g47
a(I1321
I86976
tp1780
aa(lp1781
g50
a(I497
I5184
tp1782
aa(lp1783
g53
a(I168
I566
tp1784
aa(lp1785
g56
a(I2
I196
tp1786
aatp1787
Rp1788
aa(lp1789
S'SPMV_CRS__tileSize_80_tile_par_2_pt_par_1'
p1790
ag0
((lp1791
(lp1792
g17
aI69732
aa(lp1793
g19
aF0.0
aa(lp1794
g21
aF0.0
aa(lp1795
g23
a(I49
I64
tp1796
aa(lp1797
g26
a(I12
I64
tp1798
aa(lp1799
g29
a(I10
I34
tp1800
aa(lp1801
g32
a(I28
I153
tp1802
aa(lp1803
g35
a(I10
I34
tp1804
aa(lp1805
g38
a(I675
I3360
tp1806
aa(lp1807
g41
a(I0
I2240
tp1808
aa(lp1809
g44
a(I0
I6720
tp1810
aa(lp1811
g47
a(I1730
I108288
tp1812
aa(lp1813
g50
a(I637
I6432
tp1814
aa(lp1815
g53
a(I212
I708
tp1816
aa(lp1817
g56
a(I2
I244
tp1818
aatp1819
Rp1820
aa(lp1821
S'SPMV_CRS__tileSize_144_tile_par_1_pt_par_1'
p1822
ag0
((lp1823
(lp1824
g17
aI83563
aa(lp1825
g19
aF0.0
aa(lp1826
g21
aF0.0
aa(lp1827
g23
a(I25
I64
tp1828
aa(lp1829
g26
a(I6
I64
tp1830
aa(lp1831
g29
a(I5
I34
tp1832
aa(lp1833
g32
a(I15
I153
tp1834
aa(lp1835
g35
a(I5
I34
tp1836
aa(lp1837
g38
a(I307
I3360
tp1838
aa(lp1839
g41
a(I0
I2240
tp1840
aa(lp1841
g44
a(I0
I6720
tp1842
aa(lp1843
g47
a(I868
I54912
tp1844
aa(lp1845
g50
a(I319
I3264
tp1846
aa(lp1847
g53
a(I107
I363
tp1848
aa(lp1849
g56
a(I1
I124
tp1850
aatp1851
Rp1852
aa(lp1853
S'SPMV_CRS__tileSize_144_tile_par_1_pt_par_2'
p1854
ag0
((lp1855
(lp1856
g17
aI74606
aa(lp1857
g19
aF0.0
aa(lp1858
g21
aF0.0
aa(lp1859
g23
a(I40
I64
tp1860
aa(lp1861
g26
a(I9
I64
tp1862
aa(lp1863
g29
a(I8
I34
tp1864
aa(lp1865
g32
a(I22
I153
tp1866
aa(lp1867
g35
a(I8
I34
tp1868
aa(lp1869
g38
a(I592
I3360
tp1870
aa(lp1871
g41
a(I0
I2240
tp1872
aa(lp1873
g44
a(I0
I6720
tp1874
aa(lp1875
g47
a(I1321
I86976
tp1876
aa(lp1877
g50
a(I497
I5184
tp1878
aa(lp1879
g53
a(I168
I566
tp1880
aa(lp1881
g56
a(I2
I196
tp1882
aatp1883
Rp1884
aa(lp1885
S'SPMV_CRS__tileSize_144_tile_par_2_pt_par_1'
p1886
ag0
((lp1887
(lp1888
g17
aI69177
aa(lp1889
g19
aF0.0
aa(lp1890
g21
aF0.0
aa(lp1891
g23
a(I49
I64
tp1892
aa(lp1893
g26
a(I12
I64
tp1894
aa(lp1895
g29
a(I10
I34
tp1896
aa(lp1897
g32
a(I28
I153
tp1898
aa(lp1899
g35
a(I10
I34
tp1900
aa(lp1901
g38
a(I762
I3360
tp1902
aa(lp1903
g41
a(I0
I2240
tp1904
aa(lp1905
g44
a(I0
I6720
tp1906
aa(lp1907
g47
a(I1730
I108288
tp1908
aa(lp1909
g50
a(I637
I6432
tp1910
aa(lp1911
g53
a(I212
I708
tp1912
aa(lp1913
g56
a(I2
I244
tp1914
aatp1915
Rp1916
aa(lp1917
S'SPMV_CRS__tileSize_208_tile_par_1_pt_par_1'
p1918
ag0
((lp1919
(lp1920
g17
aI80064
aa(lp1921
g19
aF0.0
aa(lp1922
g21
aF0.0
aa(lp1923
g23
a(I25
I64
tp1924
aa(lp1925
g26
a(I6
I64
tp1926
aa(lp1927
g29
a(I5
I34
tp1928
aa(lp1929
g32
a(I15
I153
tp1930
aa(lp1931
g35
a(I5
I34
tp1932
aa(lp1933
g38
a(I254
I3360
tp1934
aa(lp1935
g41
a(I0
I2240
tp1936
aa(lp1937
g44
a(I0
I6720
tp1938
aa(lp1939
g47
a(I868
I54912
tp1940
aa(lp1941
g50
a(I319
I3264
tp1942
aa(lp1943
g53
a(I107
I363
tp1944
aa(lp1945
g56
a(I1
I124
tp1946
aatp1947
Rp1948
aa(lp1949
S'SPMV_CRS__tileSize_208_tile_par_1_pt_par_2'
p1950
ag0
((lp1951
(lp1952
g17
aI71824
aa(lp1953
g19
aF0.0
aa(lp1954
g21
aF0.0
aa(lp1955
g23
a(I40
I64
tp1956
aa(lp1957
g26
a(I9
I64
tp1958
aa(lp1959
g29
a(I8
I34
tp1960
aa(lp1961
g32
a(I22
I153
tp1962
aa(lp1963
g35
a(I8
I34
tp1964
aa(lp1965
g38
a(I527
I3360
tp1966
aa(lp1967
g41
a(I0
I2240
tp1968
aa(lp1969
g44
a(I0
I6720
tp1970
aa(lp1971
g47
a(I1321
I86976
tp1972
aa(lp1973
g50
a(I497
I5184
tp1974
aa(lp1975
g53
a(I168
I566
tp1976
aa(lp1977
g56
a(I2
I196
tp1978
aatp1979
Rp1980
aa(lp1981
S'SPMV_CRS__tileSize_208_tile_par_2_pt_par_1'
p1982
ag0
((lp1983
(lp1984
g17
aI60012
aa(lp1985
g19
aF0.0
aa(lp1986
g21
aF0.0
aa(lp1987
g23
a(I49
I64
tp1988
aa(lp1989
g26
a(I12
I64
tp1990
aa(lp1991
g29
a(I10
I34
tp1992
aa(lp1993
g32
a(I28
I153
tp1994
aa(lp1995
g35
a(I10
I34
tp1996
aa(lp1997
g38
a(I789
I3360
tp1998
aa(lp1999
g41
a(I0
I2240
tp2000
aa(lp2001
g44
a(I0
I6720
tp2002
aa(lp2003
g47
a(I1730
I108288
tp2004
aa(lp2005
g50
a(I637
I6432
tp2006
aa(lp2007
g53
a(I212
I708
tp2008
aa(lp2009
g56
a(I2
I244
tp2010
aatp2011
Rp2012
aatp2013
Rp2014
aatp2015
Rp2016
aa(lp2017
S'GEMM_Blocked'
p2018
ag0
((lp2019
(lp2020
g1723
ag0
((lp2021
(lp2022
S'GEMM_Blocked__tileSize_16_i_tileSize_16_loop_jj_1_loop_ii_1_loop_kk_1_loop_i_1_loop_k_1'
p2023
ag0
((lp2024
(lp2025
g1044
aI71521420
aa(lp2026
g1046
aF0.9383044128598118
aa(lp2027
g1048
aF0.01466100645093456
aa(lp2028
g1050
a(I18
I64
tp2029
aa(lp2030
g1053
a(I8
I64
tp2031
aa(lp2032
g1056
a(I3
I34
tp2033
aa(lp2034
g1059
a(I11
I153
tp2035
aa(lp2036
g1062
a(I3
I34
tp2037
aa(lp2038
g1065
a(I170
I3360
tp2039
aa(lp2040
g1068
a(I0
I2240
tp2041
aa(lp2042
g1071
a(I0
I6720
tp2043
aa(lp2044
g1074
a(I789
I46976
tp2045
aa(lp2046
g1077
a(I236
I2656
tp2047
aa(lp2048
g1080
a(I81
I287
tp2049
aa(lp2050
g1083
a(I0
I104
tp2051
aatp2052
Rp2053
aa(lp2054
S'GEMM_Blocked__tileSize_16_i_tileSize_16_loop_jj_1_loop_ii_1_loop_kk_1_loop_i_2_loop_k_1'
p2055
ag0
((lp2056
(lp2057
g1044
aI38484739
aa(lp2058
g1046
aF1.7437785923402003
aa(lp2059
g1048
aF0.02724654050531563
aa(lp2060
g1050
a(I25
I64
tp2061
aa(lp2062
g1053
a(I14
I64
tp2063
aa(lp2064
g1056
a(I4
I34
tp2065
aa(lp2066
g1059
a(I14
I153
tp2067
aa(lp2068
g1062
a(I4
I34
tp2069
aa(lp2070
g1065
a(I274
I3360
tp2071
aa(lp2072
g1068
a(I0
I2240
tp2073
aa(lp2074
g1071
a(I0
I6720
tp2075
aa(lp2076
g1074
a(I1076
I70304
tp2077
aa(lp2078
g1077
a(I303
I3904
tp2079
aa(lp2080
g1080
a(I114
I414
tp2081
aa(lp2082
g1083
a(I0
I156
tp2083
aatp2084
Rp2085
aa(lp2086
S'GEMM_Blocked__tileSize_16_i_tileSize_16_loop_jj_1_loop_ii_1_loop_kk_1_loop_i_2_loop_k_2'
p2087
ag0
((lp2088
(lp2089
g1044
aI28935759
aa(lp2090
g1046
aF2.319236346971234
aa(lp2091
g1048
aF0.03623806792142553
aa(lp2092
g1050
a(I27
I64
tp2093
aa(lp2094
g1053
a(I18
I64
tp2095
aa(lp2096
g1056
a(I4
I34
tp2097
aa(lp2098
g1059
a(I14
I153
tp2099
aa(lp2100
g1062
a(I4
I34
tp2101
aa(lp2102
g1065
a(I262
I3360
tp2103
aa(lp2104
g1068
a(I0
I2240
tp2105
aa(lp2106
g1071
a(I0
I6720
tp2107
aa(lp2108
g1074
a(I1312
I80736
tp2109
aa(lp2110
g1077
a(I377
I4416
tp2111
aa(lp2112
g1080
a(I130
I462
tp2113
aa(lp2114
g1083
a(I0
I180
tp2115
aatp2116
Rp2117
aa(lp2118
S'GEMM_Blocked__tileSize_16_i_tileSize_16_loop_jj_1_loop_ii_1_loop_kk_2_loop_i_1_loop_k_1'
p2119
ag0
((lp2120
(lp2121
g1044
aI36502225
aa(lp2122
g1046
aF1.8384869415494536
aa(lp2123
g1048
aF0.028726358461710212
aa(lp2124
g1050
a(I30
I64
tp2125
aa(lp2126
g1053
a(I14
I64
tp2127
aa(lp2128
g1056
a(I5
I34
tp2129
aa(lp2130
g1059
a(I17
I153
tp2131
aa(lp2132
g1062
a(I5
I34
tp2133
aa(lp2134
g1065
a(I359
I3360
tp2135
aa(lp2136
g1068
a(I0
I2240
tp2137
aa(lp2138
g1071
a(I0
I6720
tp2139
aa(lp2140
g1074
a(I1206
I79520
tp2141
aa(lp2142
g1077
a(I375
I4480
tp2143
aa(lp2144
g1080
a(I134
I477
tp2145
aa(lp2146
g1083
a(I0
I176
tp2147
aatp2148
Rp2149
aa(lp2150
S'GEMM_Blocked__tileSize_16_i_tileSize_16_loop_jj_1_loop_ii_1_loop_kk_2_loop_i_1_loop_k_2'
p2151
ag0
((lp2152
(lp2153
g1044
aI26960180
aa(lp2154
g1046
aF2.4891845677588207
aa(lp2155
g1048
aF0.03889350887123157
aa(lp2156
g1050
a(I32
I64
tp2157
aa(lp2158
g1053
a(I18
I64
tp2159
aa(lp2160
g1056
a(I5
I34
tp2161
aa(lp2162
g1059
a(I17
I153
tp2163
aa(lp2164
g1062
a(I5
I34
tp2165
aa(lp2166
g1065
a(I407
I3360
tp2167
aa(lp2168
g1068
a(I0
I2240
tp2169
aa(lp2170
g1071
a(I0
I6720
tp2171
aa(lp2172
g1074
a(I1442
I89952
tp2173
aa(lp2174
g1077
a(I449
I4992
tp2175
aa(lp2176
g1080
a(I150
I525
tp2177
aa(lp2178
g1083
a(I0
I200
tp2179
aatp2180
Rp2181
aa(lp2182
S'GEMM_Blocked__tileSize_16_i_tileSize_16_loop_jj_1_loop_ii_1_loop_kk_2_loop_i_2_loop_k_1'
p2183
ag0
((lp2184
(lp2185
g1044
aI19968305
aa(lp2186
g1046
aF3.3607691789563514
aa(lp2187
g1048
aF0.05251201842119299
aa(lp2188
g1050
a(I44
I64
tp2189
aa(lp2190
g1053
a(I26
I64
tp2191
aa(lp2192
g1056
a(I7
I34
tp2193
aa(lp2194
g1059
a(I23
I153
tp2195
aa(lp2196
g1062
a(I7
I34
tp2197
aa(lp2198
g1065
a(I535
I3360
tp2199
aa(lp2200
g1068
a(I0
I2240
tp2201
aa(lp2202
g1071
a(I0
I6720
tp2203
aa(lp2204
g1074
a(I1780
I126176
tp2205
aa(lp2206
g1077
a(I509
I6976
tp2207
aa(lp2208
g1080
a(I200
I731
tp2209
aa(lp2210
g1083
a(I0
I280
tp2211
aatp2212
Rp2213
aa(lp2214
S'GEMM_Blocked__tileSize_16_i_tileSize_16_loop_jj_1_loop_ii_1_loop_kk_2_loop_i_2_loop_k_2'
p2215
ag0
((lp2216
(lp2217
g1044
aI15225514
aa(lp2218
g1046
aF4.407658355573414
aa(lp2219
g1048
aF0.06886966180583459
aa(lp2220
g1050
a(I48
I64
tp2221
aa(lp2222
g1053
a(I34
I64
tp2223
aa(lp2224
g1056
a(I7
I34
tp2225
aa(lp2226
g1059
a(I23
I153
tp2227
aa(lp2228
g1062
a(I7
I34
tp2229
aa(lp2230
g1065
a(I662
I3360
tp2231
aa(lp2232
g1068
a(I0
I2240
tp2233
aa(lp2234
g1071
a(I0
I6720
tp2235
aa(lp2236
g1074
a(I2252
I147040
tp2237
aa(lp2238
g1077
a(I657
I8000
tp2239
aa(lp2240
g1080
a(I232
I827
tp2241
aa(lp2242
g1083
a(I0
I328
tp2243
aatp2244
Rp2245
aa(lp2246
S'GEMM_Blocked__tileSize_16_i_tileSize_16_loop_jj_1_loop_ii_2_loop_kk_1_loop_i_1_loop_k_2'
p2247
ag0
((lp2248
(lp2249
g1044
aI26373270
aa(lp2250
g1046
aF2.544578810287841
aa(lp2251
g1048
aF0.03975904391074751
aa(lp2252
g1050
a(I38
I64
tp2253
aa(lp2254
g1053
a(I20
I64
tp2255
aa(lp2256
g1056
a(I6
I34
tp2257
aa(lp2258
g1059
a(I23
I153
tp2259
aa(lp2260
g1062
a(I6
I34
tp2261
aa(lp2262
g1065
a(I507
I3360
tp2263
aa(lp2264
g1068
a(I0
I2240
tp2265
aa(lp2266
g1071
a(I0
I6720
tp2267
aa(lp2268
g1074
a(I1814
I104384
tp2269
aa(lp2270
g1077
a(I546
I5824
tp2271
aa(lp2272
g1080
a(I179
I627
tp2273
aa(lp2274
g1083
a(I0
I232
tp2275
aatp2276
Rp2277
aa(lp2278
S'GEMM_Blocked__tileSize_16_i_tileSize_16_loop_jj_1_loop_ii_2_loop_kk_1_loop_i_2_loop_k_2'
p2279
ag0
((lp2280
(lp2281
g1044
aI14668242
aa(lp2282
g1046
aF4.575112954913069
aa(lp2283
g1048
aF0.07148613992051671
aa(lp2284
g1050
a(I54
I64
tp2285
aa(lp2286
g1053
a(I36
I64
tp2287
aa(lp2288
g1056
a(I8
I34
tp2289
aa(lp2290
g1059
a(I29
I153
tp2291
aa(lp2292
g1062
a(I8
I34
tp2293
aa(lp2294
g1065
a(I786
I3360
tp2295
aa(lp2296
g1068
a(I0
I2240
tp2297
aa(lp2298
g1071
a(I0
I6720
tp2299
aa(lp2300
g1074
a(I2624
I161472
tp2301
aa(lp2302
g1077
a(I754
I8832
tp2303
aa(lp2304
g1080
a(I261
I929
tp2305
aa(lp2306
g1083
a(I0
I360
tp2307
aatp2308
Rp2309
aa(lp2310
S'GEMM_Blocked__tileSize_16_i_tileSize_16_loop_jj_1_loop_ii_2_loop_kk_2_loop_i_1_loop_k_2'
p2311
ag0
((lp2312
(lp2313
g1044
aI13866271
aa(lp2314
g1046
aF4.839719633346268
aa(lp2315
g1048
aF0.07562061927103544
aa(lp2316
g1050
a(I64
I64
tp2317
aa(lp2318
g1053
a(I36
I64
tp2319
aa(lp2320
g1056
a(I10
I34
tp2321
aa(lp2322
g1059
a(I35
I153
tp2323
aa(lp2324
g1062
a(I10
I34
tp2325
aa(lp2326
g1065
a(I920
I3360
tp2327
aa(lp2328
g1068
a(I0
I2240
tp2329
aa(lp2330
g1071
a(I0
I6720
tp2331
aa(lp2332
g1074
a(I2884
I179904
tp2333
aa(lp2334
g1077
a(I898
I9984
tp2335
aa(lp2336
g1080
a(I301
I1055
tp2337
aa(lp2338
g1083
a(I0
I400
tp2339
aatp2340
Rp2341
aa(lp2342
S'GEMM_Blocked__tileSize_16_i_tileSize_16_loop_jj_2_loop_ii_1_loop_kk_1_loop_i_1_loop_k_1'
p2343
ag0
((lp2344
(lp2345
g1044
aI35922717
aa(lp2346
g1046
aF1.868145552576104
aa(lp2347
g1048
aF0.029189774259001624
aa(lp2348
g1050
a(I36
I64
tp2349
aa(lp2350
g1053
a(I16
I64
tp2351
aa(lp2352
g1056
a(I6
I34
tp2353
aa(lp2354
g1059
a(I21
I153
tp2355
aa(lp2356
g1062
a(I6
I34
tp2357
aa(lp2358
g1065
a(I457
I3360
tp2359
aa(lp2360
g1068
a(I0
I2240
tp2361
aa(lp2362
g1071
a(I0
I6720
tp2363
aa(lp2364
g1074
a(I1578
I93952
tp2365
aa(lp2366
g1077
a(I472
I5312
tp2367
aa(lp2368
g1080
a(I161
I569
tp2369
aa(lp2370
g1083
a(I0
I208
tp2371
aatp2372
Rp2373
aa(lp2374
S'GEMM_Blocked__tileSize_16_i_tileSize_16_loop_jj_2_loop_ii_1_loop_kk_1_loop_i_2_loop_k_2'
p2375
ag0
((lp2376
(lp2377
g1044
aI14594499
aa(lp2378
g1046
aF4.598230059147628
aa(lp2379
g1048
aF0.07184734467418169
aa(lp2380
g1050
a(I54
I64
tp2381
aa(lp2382
g1053
a(I36
I64
tp2383
aa(lp2384
g1056
a(I8
I34
tp2385
aa(lp2386
g1059
a(I27
I153
tp2387
aa(lp2388
g1062
a(I8
I34
tp2389
aa(lp2390
g1065
a(I830
I3360
tp2391
aa(lp2392
g1068
a(I0
I2240
tp2393
aa(lp2394
g1071
a(I0
I6720
tp2395
aa(lp2396
g1074
a(I2624
I161472
tp2397
aa(lp2398
g1077
a(I754
I8832
tp2399
aa(lp2400
g1080
a(I259
I919
tp2401
aa(lp2402
g1083
a(I0
I360
tp2403
aatp2404
Rp2405
aa(lp2406
S'GEMM_Blocked__tileSize_16_i_tileSize_16_loop_jj_2_loop_ii_1_loop_kk_2_loop_i_1_loop_k_1'
p2407
ag0
((lp2408
(lp2409
g1044
aI18283225
aa(lp2410
g1046
aF3.67051567762252
aa(lp2411
g1048
aF0.05735180746285187
aa(lp2412
g1050
a(I60
I64
tp2413
aa(lp2414
g1053
a(I28
I64
tp2415
aa(lp2416
g1056
a(I10
I34
tp2417
aa(lp2418
g1059
a(I33
I153
tp2419
aa(lp2420
g1062
a(I10
I34
tp2421
aa(lp2422
g1065
a(I839
I3360
tp2423
aa(lp2424
g1068
a(I0
I2240
tp2425
aa(lp2426
g1071
a(I0
I6720
tp2427
aa(lp2428
g1074
a(I2412
I159040
tp2429
aa(lp2430
g1077
a(I750
I8960
tp2431
aa(lp2432
g1080
a(I267
I949
tp2433
aa(lp2434
g1083
a(I0
I352
tp2435
aatp2436
Rp2437
aa(lp2438
S'GEMM_Blocked__tileSize_16_i_tileSize_256_loop_jj_1_loop_ii_1_loop_kk_1_loop_i_1_loop_k_1'
p2439
ag0
((lp2440
(lp2441
g1044
aI68229998
aa(lp2442
g1046
aF0.5225206660565929
aa(lp2443
g1048
aF0.015368254884017437
aa(lp2444
g1050
a(I18
I64
tp2445
aa(lp2446
g1053
a(I8
I64
tp2447
aa(lp2448
g1056
a(I3
I34
tp2449
aa(lp2450
g1059
a(I11
I153
tp2451
aa(lp2452
g1062
a(I3
I34
tp2453
aa(lp2454
g1065
a(I176
I3360
tp2455
aa(lp2456
g1068
a(I0
I2240
tp2457
aa(lp2458
g1071
a(I0
I6720
tp2459
aa(lp2460
g1074
a(I789
I46976
tp2461
aa(lp2462
g1077
a(I236
I2656
tp2463
aa(lp2464
g1080
a(I81
I287
tp2465
aa(lp2466
g1083
a(I0
I104
tp2467
aatp2468
Rp2469
aa(lp2470
S'GEMM_Blocked__tileSize_16_i_tileSize_256_loop_jj_1_loop_ii_1_loop_kk_1_loop_i_2_loop_k_1'
p2471
ag0
((lp2472
(lp2473
g1044
aI34846139
aa(lp2474
g1046
aF1.0231143255211144
aa(lp2475
g1048
aF0.030091597809444544
aa(lp2476
g1050
a(I25
I64
tp2477
aa(lp2478
g1053
a(I14
I64
tp2479
aa(lp2480
g1056
a(I4
I34
tp2481
aa(lp2482
g1059
a(I14
I153
tp2483
aa(lp2484
g1062
a(I4
I34
tp2485
aa(lp2486
g1065
a(I304
I3360
tp2487
aa(lp2488
g1068
a(I0
I2240
tp2489
aa(lp2490
g1071
a(I0
I6720
tp2491
aa(lp2492
g1074
a(I1076
I70304
tp2493
aa(lp2494
g1077
a(I303
I3904
tp2495
aa(lp2496
g1080
a(I114
I414
tp2497
aa(lp2498
g1083
a(I0
I156
tp2499
aatp2500
Rp2501
aa(lp2502
S'GEMM_Blocked__tileSize_16_i_tileSize_256_loop_jj_1_loop_ii_1_loop_kk_2_loop_i_1_loop_k_2'
p2503
ag0
((lp2504
(lp2505
g1044
aI24598886
aa(lp2506
g1046
aF1.449317013786722
aa(lp2507
g1048
aF0.04262697099372711
aa(lp2508
g1050
a(I32
I64
tp2509
aa(lp2510
g1053
a(I18
I64
tp2511
aa(lp2512
g1056
a(I5
I34
tp2513
aa(lp2514
g1059
a(I17
I153
tp2515
aa(lp2516
g1062
a(I5
I34
tp2517
aa(lp2518
g1065
a(I386
I3360
tp2519
aa(lp2520
g1068
a(I0
I2240
tp2521
aa(lp2522
g1071
a(I0
I6720
tp2523
aa(lp2524
g1074
a(I1442
I89952
tp2525
aa(lp2526
g1077
a(I449
I4992
tp2527
aa(lp2528
g1080
a(I150
I525
tp2529
aa(lp2530
g1083
a(I0
I200
tp2531
aatp2532
Rp2533
aa(lp2534
S'GEMM_Blocked__tileSize_16_i_tileSize_256_loop_jj_1_loop_ii_1_loop_kk_2_loop_i_2_loop_k_1'
p2535
ag0
((lp2536
(lp2537
g1044
aI17541238
aa(lp2538
g1046
aF2.032444004237329
aa(lp2539
g1048
aF0.05977776483050968
aa(lp2540
g1050
a(I44
I64
tp2541
aa(lp2542
g1053
a(I26
I64
tp2543
aa(lp2544
g1056
a(I7
I34
tp2545
aa(lp2546
g1059
a(I23
I153
tp2547
aa(lp2548
g1062
a(I7
I34
tp2549
aa(lp2550
g1065
a(I506
I3360
tp2551
aa(lp2552
g1068
a(I0
I2240
tp2553
aa(lp2554
g1071
a(I0
I6720
tp2555
aa(lp2556
g1074
a(I1780
I126176
tp2557
aa(lp2558
g1077
a(I509
I6976
tp2559
aa(lp2560
g1080
a(I200
I731
tp2561
aa(lp2562
g1083
a(I0
I280
tp2563
aatp2564
Rp2565
aa(lp2566
S'GEMM_Blocked__tileSize_16_i_tileSize_256_loop_jj_1_loop_ii_1_loop_kk_2_loop_i_2_loop_k_2'
p2567
ag0
((lp2568
(lp2569
g1044
aI12713018
aa(lp2570
g1046
aF2.80433678297317
aa(lp2571
g1048
aF0.08248049361685793
aa(lp2572
g1050
a(I48
I64
tp2573
aa(lp2574
g1053
a(I34
I64
tp2575
aa(lp2576
g1056
a(I7
I34
tp2577
aa(lp2578
g1059
a(I23
I153
tp2579
aa(lp2580
g1062
a(I7
I34
tp2581
aa(lp2582
g1065
a(I634
I3360
tp2583
aa(lp2584
g1068
a(I0
I2240
tp2585
aa(lp2586
g1071
a(I0
I6720
tp2587
aa(lp2588
g1074
a(I2252
I147040
tp2589
aa(lp2590
g1077
a(I657
I8000
tp2591
aa(lp2592
g1080
a(I232
I827
tp2593
aa(lp2594
g1083
a(I0
I328
tp2595
aatp2596
Rp2597
aa(lp2598
S'GEMM_Blocked__tileSize_16_i_tileSize_256_loop_jj_1_loop_ii_2_loop_kk_1_loop_i_1_loop_k_2'
p2599
ag0
((lp2600
(lp2601
g1044
aI25823937
aa(lp2602
g1046
aF1.380563467142907
aa(lp2603
g1048
aF0.04060480785714432
aa(lp2604
g1050
a(I38
I64
tp2605
aa(lp2606
g1053
a(I20
I64
tp2607
aa(lp2608
g1056
a(I6
I34
tp2609
aa(lp2610
g1059
a(I23
I153
tp2611
aa(lp2612
g1062
a(I6
I34
tp2613
aa(lp2614
g1065
a(I509
I3360
tp2615
aa(lp2616
g1068
a(I0
I2240
tp2617
aa(lp2618
g1071
a(I0
I6720
tp2619
aa(lp2620
g1074
a(I1814
I104384
tp2621
aa(lp2622
g1077
a(I546
I5824
tp2623
aa(lp2624
g1080
a(I179
I627
tp2625
aa(lp2626
g1083
a(I0
I232
tp2627
aatp2628
Rp2629
aa(lp2630
S'GEMM_Blocked__tileSize_16_i_tileSize_256_loop_jj_1_loop_ii_2_loop_kk_1_loop_i_2_loop_k_1'
p2631
ag0
((lp2632
(lp2633
g1044
aI17506145
aa(lp2634
g1046
aF2.0365182625872227
aa(lp2635
g1048
aF0.05989759595844773
aa(lp2636
g1050
a(I50
I64
tp2637
aa(lp2638
g1053
a(I28
I64
tp2639
aa(lp2640
g1056
a(I8
I34
tp2641
aa(lp2642
g1059
a(I29
I153
tp2643
aa(lp2644
g1062
a(I8
I34
tp2645
aa(lp2646
g1065
a(I655
I3360
tp2647
aa(lp2648
g1068
a(I0
I2240
tp2649
aa(lp2650
g1071
a(I0
I6720
tp2651
aa(lp2652
g1074
a(I2152
I140608
tp2653
aa(lp2654
g1077
a(I606
I7808
tp2655
aa(lp2656
g1080
a(I229
I833
tp2657
aa(lp2658
g1083
a(I0
I312
tp2659
aatp2660
Rp2661
aa(lp2662
S'GEMM_Blocked__tileSize_16_i_tileSize_256_loop_jj_1_loop_ii_2_loop_kk_1_loop_i_2_loop_k_2'
p2663
ag0
((lp2664
(lp2665
g1044
aI12800236
aa(lp2666
g1046
aF2.7852286473468144
aa(lp2667
g1048
aF0.0819184896278475
aa(lp2668
g1050
a(I54
I64
tp2669
aa(lp2670
g1053
a(I36
I64
tp2671
aa(lp2672
g1056
a(I8
I34
tp2673
aa(lp2674
g1059
a(I29
I153
tp2675
aa(lp2676
g1062
a(I8
I34
tp2677
aa(lp2678
g1065
a(I808
I3360
tp2679
aa(lp2680
g1068
a(I0
I2240
tp2681
aa(lp2682
g1071
a(I0
I6720
tp2683
aa(lp2684
g1074
a(I2624
I161472
tp2685
aa(lp2686
g1077
a(I754
I8832
tp2687
aa(lp2688
g1080
a(I261
I929
tp2689
aa(lp2690
g1083
a(I0
I360
tp2691
aatp2692
Rp2693
aa(lp2694
S'GEMM_Blocked__tileSize_16_i_tileSize_256_loop_jj_1_loop_ii_2_loop_kk_2_loop_i_1_loop_k_2'
p2695
ag0
((lp2696
(lp2697
g1044
aI13025035
aa(lp2698
g1046
aF2.737158403029243
aa(lp2699
g1048
aF0.08050465891262479
aa(lp2700
g1050
a(I64
I64
tp2701
aa(lp2702
g1053
a(I36
I64
tp2703
aa(lp2704
g1056
a(I10
I34
tp2705
aa(lp2706
g1059
a(I35
I153
tp2707
aa(lp2708
g1062
a(I10
I34
tp2709
aa(lp2710
g1065
a(I1027
I3360
tp2711
aa(lp2712
g1068
a(I0
I2240
tp2713
aa(lp2714
g1071
a(I0
I6720
tp2715
aa(lp2716
g1074
a(I2884
I179904
tp2717
aa(lp2718
g1077
a(I898
I9984
tp2719
aa(lp2720
g1080
a(I301
I1055
tp2721
aa(lp2722
g1083
a(I0
I400
tp2723
aatp2724
Rp2725
aa(lp2726
S'GEMM_Blocked__tileSize_16_i_tileSize_256_loop_jj_2_loop_ii_1_loop_kk_1_loop_i_1_loop_k_1'
p2727
ag0
((lp2728
(lp2729
g1044
aI34144736
aa(lp2730
g1046
aF1.0441311949226961
aa(lp2731
g1048
aF0.03070974102713812
aa(lp2732
g1050
a(I36
I64
tp2733
aa(lp2734
g1053
a(I16
I64
tp2735
aa(lp2736
g1056
a(I6
I34
tp2737
aa(lp2738
g1059
a(I21
I153
tp2739
aa(lp2740
g1062
a(I6
I34
tp2741
aa(lp2742
g1065
a(I470
I3360
tp2743
aa(lp2744
g1068
a(I0
I2240
tp2745
aa(lp2746
g1071
a(I0
I6720
tp2747
aa(lp2748
g1074
a(I1578
I93952
tp2749
aa(lp2750
g1077
a(I472
I5312
tp2751
aa(lp2752
g1080
a(I161
I569
tp2753
aa(lp2754
g1083
a(I0
I208
tp2755
aatp2756
Rp2757
aa(lp2758
S'GEMM_Blocked__tileSize_16_i_tileSize_256_loop_jj_2_loop_ii_1_loop_kk_1_loop_i_1_loop_k_2'
p2759
ag0
((lp2760
(lp2761
g1044
aI24586004
aa(lp2762
g1046
aF1.4500763930567975
aa(lp2763
g1048
aF0.042649305678141104
aa(lp2764
g1050
a(I38
I64
tp2765
aa(lp2766
g1053
a(I20
I64
tp2767
aa(lp2768
g1056
a(I6
I34
tp2769
aa(lp2770
g1059
a(I21
I153
tp2771
aa(lp2772
g1062
a(I6
I34
tp2773
aa(lp2774
g1065
a(I566
I3360
tp2775
aa(lp2776
g1068
a(I0
I2240
tp2777
aa(lp2778
g1071
a(I0
I6720
tp2779
aa(lp2780
g1074
a(I1814
I104384
tp2781
aa(lp2782
g1077
a(I546
I5824
tp2783
aa(lp2784
g1080
a(I177
I617
tp2785
aa(lp2786
g1083
a(I0
I232
tp2787
aatp2788
Rp2789
aa(lp2790
S'GEMM_Blocked__tileSize_16_i_tileSize_256_loop_jj_2_loop_ii_1_loop_kk_1_loop_i_2_loop_k_2'
p2791
ag0
((lp2792
(lp2793
g1044
aI12714609
aa(lp2794
g1046
aF2.8039858716850827
aa(lp2795
g1048
aF0.08247017269662009
aa(lp2796
g1050
a(I54
I64
tp2797
aa(lp2798
g1053
a(I36
I64
tp2799
aa(lp2800
g1056
a(I8
I34
tp2801
aa(lp2802
g1059
a(I27
I153
tp2803
aa(lp2804
g1062
a(I8
I34
tp2805
aa(lp2806
g1065
a(I781
I3360
tp2807
aa(lp2808
g1068
a(I0
I2240
tp2809
aa(lp2810
g1071
a(I0
I6720
tp2811
aa(lp2812
g1074
a(I2624
I161472
tp2813
aa(lp2814
g1077
a(I754
I8832
tp2815
aa(lp2816
g1080
a(I259
I919
tp2817
aa(lp2818
g1083
a(I0
I360
tp2819
aatp2820
Rp2821
aa(lp2822
S'GEMM_Blocked__tileSize_16_i_tileSize_256_loop_jj_2_loop_ii_1_loop_kk_2_loop_i_1_loop_k_2'
p2823
ag0
((lp2824
(lp2825
g1044
aI12337205
aa(lp2826
g1046
aF2.8897618220658567
aa(lp2827
g1048
aF0.08499299476664285
aa(lp2828
g1050
a(I64
I64
tp2829
aa(lp2830
g1053
a(I36
I64
tp2831
aa(lp2832
g1056
a(I10
I34
tp2833
aa(lp2834
g1059
a(I33
I153
tp2835
aa(lp2836
g1062
a(I10
I34
tp2837
aa(lp2838
g1065
a(I931
I3360
tp2839
aa(lp2840
g1068
a(I0
I2240
tp2841
aa(lp2842
g1071
a(I0
I6720
tp2843
aa(lp2844
g1074
a(I2884
I179904
tp2845
aa(lp2846
g1077
a(I898
I9984
tp2847
aa(lp2848
g1080
a(I299
I1045
tp2849
aa(lp2850
g1083
a(I0
I400
tp2851
aatp2852
Rp2853
aa(lp2854
S'GEMM_Blocked__tileSize_256_i_tileSize_16_loop_jj_1_loop_ii_1_loop_kk_1_loop_i_1_loop_k_2'
p2855
ag0
((lp2856
(lp2857
g1044
aI5572523
aa(lp2858
g1046
aF6.397745509529525
aa(lp2859
g1048
aF0.1881689855743978
aa(lp2860
g1050
a(I19
I64
tp2861
aa(lp2862
g1053
a(I10
I64
tp2863
aa(lp2864
g1056
a(I3
I34
tp2865
aa(lp2866
g1059
a(I11
I153
tp2867
aa(lp2868
g1062
a(I3
I34
tp2869
aa(lp2870
g1065
a(I221
I3360
tp2871
aa(lp2872
g1068
a(I0
I2240
tp2873
aa(lp2874
g1071
a(I0
I6720
tp2875
aa(lp2876
g1074
a(I907
I52192
tp2877
aa(lp2878
g1077
a(I273
I2912
tp2879
aa(lp2880
g1080
a(I89
I311
tp2881
aa(lp2882
g1083
a(I0
I116
tp2883
aatp2884
Rp2885
aa(lp2886
S'GEMM_Blocked__tileSize_256_i_tileSize_16_loop_jj_1_loop_ii_1_loop_kk_1_loop_i_2_loop_k_2'
p2887
ag0
((lp2888
(lp2889
g1044
aI3408851
aa(lp2890
g1046
aF10.45853397523095
aa(lp2891
g1048
aF0.3076039404479691
aa(lp2892
g1050
a(I27
I64
tp2893
aa(lp2894
g1053
a(I18
I64
tp2895
aa(lp2896
g1056
a(I4
I34
tp2897
aa(lp2898
g1059
a(I14
I153
tp2899
aa(lp2900
g1062
a(I4
I34
tp2901
aa(lp2902
g1065
a(I294
I3360
tp2903
aa(lp2904
g1068
a(I0
I2240
tp2905
aa(lp2906
g1071
a(I0
I6720
tp2907
aa(lp2908
g1074
a(I1312
I80736
tp2909
aa(lp2910
g1077
a(I377
I4416
tp2911
aa(lp2912
g1080
a(I130
I462
tp2913
aa(lp2914
g1083
a(I0
I180
tp2915
aatp2916
Rp2917
aa(lp2918
S'GEMM_Blocked__tileSize_256_i_tileSize_16_loop_jj_1_loop_ii_1_loop_kk_2_loop_i_1_loop_k_1'
p2919
ag0
((lp2920
(lp2921
g1044
aI5271241
aa(lp2922
g1046
aF6.763413776755796
aa(lp2923
g1048
aF0.19892393461046456
aa(lp2924
g1050
a(I30
I64
tp2925
aa(lp2926
g1053
a(I14
I64
tp2927
aa(lp2928
g1056
a(I5
I34
tp2929
aa(lp2930
g1059
a(I17
I153
tp2931
aa(lp2932
g1062
a(I5
I34
tp2933
aa(lp2934
g1065
a(I369
I3360
tp2935
aa(lp2936
g1068
a(I0
I2240
tp2937
aa(lp2938
g1071
a(I0
I6720
tp2939
aa(lp2940
g1074
a(I1206
I79520
tp2941
aa(lp2942
g1077
a(I375
I4480
tp2943
aa(lp2944
g1080
a(I134
I477
tp2945
aa(lp2946
g1083
a(I0
I176
tp2947
aatp2948
Rp2949
aa(lp2950
S'GEMM_Blocked__tileSize_256_i_tileSize_16_loop_jj_1_loop_ii_1_loop_kk_2_loop_i_1_loop_k_2'
p2951
ag0
((lp2952
(lp2953
g1044
aI3638520
aa(lp2954
g1046
aF9.798375163528029
aa(lp2955
g1048
aF0.28818750480964783
aa(lp2956
g1050
a(I32
I64
tp2957
aa(lp2958
g1053
a(I18
I64
tp2959
aa(lp2960
g1056
a(I5
I34
tp2961
aa(lp2962
g1059
a(I17
I153
tp2963
aa(lp2964
g1062
a(I5
I34
tp2965
aa(lp2966
g1065
a(I400
I3360
tp2967
aa(lp2968
g1068
a(I0
I2240
tp2969
aa(lp2970
g1071
a(I0
I6720
tp2971
aa(lp2972
g1074
a(I1442
I89952
tp2973
aa(lp2974
g1077
a(I449
I4992
tp2975
aa(lp2976
g1080
a(I150
I525
tp2977
aa(lp2978
g1083
a(I0
I200
tp2979
aatp2980
Rp2981
aa(lp2982
S'GEMM_Blocked__tileSize_256_i_tileSize_16_loop_jj_1_loop_ii_1_loop_kk_2_loop_i_2_loop_k_1'
p2983
ag0
((lp2984
(lp2985
g1044
aI3368261
aa(lp2986
g1046
aF10.584566932313143
aa(lp2987
g1048
aF0.31131079212685714
aa(lp2988
g1050
a(I44
I64
tp2989
aa(lp2990
g1053
a(I26
I64
tp2991
aa(lp2992
g1056
a(I7
I34
tp2993
aa(lp2994
g1059
a(I23
I153
tp2995
aa(lp2996
g1062
a(I7
I34
tp2997
aa(lp2998
g1065
a(I517
I3360
tp2999
aa(lp3000
g1068
a(I0
I2240
tp3001
aa(lp3002
g1071
a(I0
I6720
tp3003
aa(lp3004
g1074
a(I1780
I126176
tp3005
aa(lp3006
g1077
a(I509
I6976
tp3007
aa(lp3008
g1080
a(I200
I731
tp3009
aa(lp3010
g1083
a(I0
I280
tp3011
aatp3012
Rp3013
aa(lp3014
S'GEMM_Blocked__tileSize_256_i_tileSize_16_loop_jj_1_loop_ii_2_loop_kk_1_loop_i_1_loop_k_1'
p3015
ag0
((lp3016
(lp3017
g1044
aI4864954
aa(lp3018
g1046
aF7.328246885787615
aa(lp3019
g1048
aF0.21553667311140043
aa(lp3020
g1050
a(I36
I64
tp3021
aa(lp3022
g1053
a(I16
I64
tp3023
aa(lp3024
g1056
a(I6
I34
tp3025
aa(lp3026
g1059
a(I23
I153
tp3027
aa(lp3028
g1062
a(I6
I34
tp3029
aa(lp3030
g1065
a(I465
I3360
tp3031
aa(lp3032
g1068
a(I0
I2240
tp3033
aa(lp3034
g1071
a(I0
I6720
tp3035
aa(lp3036
g1074
a(I1578
I93952
tp3037
aa(lp3038
g1077
a(I472
I5312
tp3039
aa(lp3040
g1080
a(I163
I579
tp3041
aa(lp3042
g1083
a(I0
I208
tp3043
aatp3044
Rp3045
aa(lp3046
S'GEMM_Blocked__tileSize_256_i_tileSize_16_loop_jj_1_loop_ii_2_loop_kk_1_loop_i_1_loop_k_2'
p3047
ag0
((lp3048
(lp3049
g1044
aI3331849
aa(lp3050
g1046
aF10.700240016879517
aa(lp3051
g1048
aF0.31471294167292696
aa(lp3052
g1050
a(I38
I64
tp3053
aa(lp3054
g1053
a(I20
I64
tp3055
aa(lp3056
g1056
a(I6
I34
tp3057
aa(lp3058
g1059
a(I23
I153
tp3059
aa(lp3060
g1062
a(I6
I34
tp3061
aa(lp3062
g1065
a(I520
I3360
tp3063
aa(lp3064
g1068
a(I0
I2240
tp3065
aa(lp3066
g1071
a(I0
I6720
tp3067
aa(lp3068
g1074
a(I1814
I104384
tp3069
aa(lp3070
g1077
a(I546
I5824
tp3071
aa(lp3072
g1080
a(I179
I627
tp3073
aa(lp3074
g1083
a(I0
I232
tp3075
aatp3076
Rp3077
aa(lp3078
S'GEMM_Blocked__tileSize_256_i_tileSize_16_loop_jj_1_loop_ii_2_loop_kk_1_loop_i_2_loop_k_1'
p3079
ag0
((lp3080
(lp3081
g1044
aI2939744
aa(lp3082
g1046
aF12.127445110866796
aa(lp3083
g1048
aF0.3566895620843175
aa(lp3084
g1050
a(I50
I64
tp3085
aa(lp3086
g1053
a(I28
I64
tp3087
aa(lp3088
g1056
a(I8
I34
tp3089
aa(lp3090
g1059
a(I29
I153
tp3091
aa(lp3092
g1062
a(I8
I34
tp3093
aa(lp3094
g1065
a(I717
I3360
tp3095
aa(lp3096
g1068
a(I0
I2240
tp3097
aa(lp3098
g1071
a(I0
I6720
tp3099
aa(lp3100
g1074
a(I2152
I140608
tp3101
aa(lp3102
g1077
a(I606
I7808
tp3103
aa(lp3104
g1080
a(I229
I833
tp3105
aa(lp3106
g1083
a(I0
I312
tp3107
aatp3108
Rp3109
aa(lp3110
S'GEMM_Blocked__tileSize_256_i_tileSize_16_loop_jj_1_loop_ii_2_loop_kk_2_loop_i_1_loop_k_1'
p3111
ag0
((lp3112
(lp3113
g1044
aI3336106
aa(lp3114
g1046
aF10.686586097683946
aa(lp3115
g1048
aF0.3143113558142337
aa(lp3116
g1050
a(I60
I64
tp3117
aa(lp3118
g1053
a(I28
I64
tp3119
aa(lp3120
g1056
a(I10
I34
tp3121
aa(lp3122
g1059
a(I35
I153
tp3123
aa(lp3124
g1062
a(I10
I34
tp3125
aa(lp3126
g1065
a(I881
I3360
tp3127
aa(lp3128
g1068
a(I0
I2240
tp3129
aa(lp3130
g1071
a(I0
I6720
tp3131
aa(lp3132
g1074
a(I2412
I159040
tp3133
aa(lp3134
g1077
a(I750
I8960
tp3135
aa(lp3136
g1080
a(I269
I959
tp3137
aa(lp3138
g1083
a(I0
I352
tp3139
aatp3140
Rp3141
aa(lp3142
S'GEMM_Blocked__tileSize_256_i_tileSize_16_loop_jj_1_loop_ii_2_loop_kk_2_loop_i_1_loop_k_2'
p3143
ag0
((lp3144
(lp3145
g1044
aI2518525
aa(lp3146
g1046
aF14.15573956978787
aa(lp3147
g1048
aF0.4163452814643491
aa(lp3148
g1050
a(I64
I64
tp3149
aa(lp3150
g1053
a(I36
I64
tp3151
aa(lp3152
g1056
a(I10
I34
tp3153
aa(lp3154
g1059
a(I35
I153
tp3155
aa(lp3156
g1062
a(I10
I34
tp3157
aa(lp3158
g1065
a(I920
I3360
tp3159
aa(lp3160
g1068
a(I0
I2240
tp3161
aa(lp3162
g1071
a(I0
I6720
tp3163
aa(lp3164
g1074
a(I2884
I179904
tp3165
aa(lp3166
g1077
a(I898
I9984
tp3167
aa(lp3168
g1080
a(I301
I1055
tp3169
aa(lp3170
g1083
a(I0
I400
tp3171
aatp3172
Rp3173
aa(lp3174
S'GEMM_Blocked__tileSize_256_i_tileSize_16_loop_jj_2_loop_ii_1_loop_kk_1_loop_i_1_loop_k_1'
p3175
ag0
((lp3176
(lp3177
g1044
aI5120110
aa(lp3178
g1046
aF6.963050403213994
aa(lp3179
g1048
aF0.20479560009452924
aa(lp3180
g1050
a(I36
I64
tp3181
aa(lp3182
g1053
a(I16
I64
tp3183
aa(lp3184
g1056
a(I6
I34
tp3185
aa(lp3186
g1059
a(I21
I153
tp3187
aa(lp3188
g1062
a(I6
I34
tp3189
aa(lp3190
g1065
a(I448
I3360
tp3191
aa(lp3192
g1068
a(I0
I2240
tp3193
aa(lp3194
g1071
a(I0
I6720
tp3195
aa(lp3196
g1074
a(I1578
I93952
tp3197
aa(lp3198
g1077
a(I472
I5312
tp3199
aa(lp3200
g1080
a(I161
I569
tp3201
aa(lp3202
g1083
a(I0
I208
tp3203
aatp3204
Rp3205
aa(lp3206
S'GEMM_Blocked__tileSize_256_i_tileSize_16_loop_jj_2_loop_ii_1_loop_kk_1_loop_i_2_loop_k_1'
p3207
ag0
((lp3208
(lp3209
g1044
aI3243147
aa(lp3210
g1046
aF10.992897947579927
aa(lp3211
g1048
aF0.3233205278699979
aa(lp3212
g1050
a(I50
I64
tp3213
aa(lp3214
g1053
a(I28
I64
tp3215
aa(lp3216
g1056
a(I8
I34
tp3217
aa(lp3218
g1059
a(I27
I153
tp3219
aa(lp3220
g1062
a(I8
I34
tp3221
aa(lp3222
g1065
a(I711
I3360
tp3223
aa(lp3224
g1068
a(I0
I2240
tp3225
aa(lp3226
g1071
a(I0
I6720
tp3227
aa(lp3228
g1074
a(I2152
I140608
tp3229
aa(lp3230
g1077
a(I606
I7808
tp3231
aa(lp3232
g1080
a(I227
I823
tp3233
aa(lp3234
g1083
a(I0
I312
tp3235
aatp3236
Rp3237
aa(lp3238
S'GEMM_Blocked__tileSize_256_i_tileSize_16_loop_jj_2_loop_ii_1_loop_kk_1_loop_i_2_loop_k_2'
p3239
ag0
((lp3240
(lp3241
g1044
aI2465940
aa(lp3242
g1046
aF14.457603996853129
aa(lp3243
g1048
aF0.42522364696626846
aa(lp3244
g1050
a(I54
I64
tp3245
aa(lp3246
g1053
a(I36
I64
tp3247
aa(lp3248
g1056
a(I8
I34
tp3249
aa(lp3250
g1059
a(I27
I153
tp3251
aa(lp3252
g1062
a(I8
I34
tp3253
aa(lp3254
g1065
a(I818
I3360
tp3255
aa(lp3256
g1068
a(I0
I2240
tp3257
aa(lp3258
g1071
a(I0
I6720
tp3259
aa(lp3260
g1074
a(I2624
I161472
tp3261
aa(lp3262
g1077
a(I754
I8832
tp3263
aa(lp3264
g1080
a(I259
I919
tp3265
aa(lp3266
g1083
a(I0
I360
tp3267
aatp3268
Rp3269
aa(lp3270
S'GEMM_Blocked__tileSize_256_i_tileSize_16_loop_jj_2_loop_ii_1_loop_kk_2_loop_i_1_loop_k_1'
p3271
ag0
((lp3272
(lp3273
g1044
aI3314015
aa(lp3274
g1046
aF10.757822158318534
aa(lp3275
g1048
aF0.3164065340681922
aa(lp3276
g1050
a(I60
I64
tp3277
aa(lp3278
g1053
a(I28
I64
tp3279
aa(lp3280
g1056
a(I10
I34
tp3281
aa(lp3282
g1059
a(I33
I153
tp3283
aa(lp3284
g1062
a(I10
I34
tp3285
aa(lp3286
g1065
a(I855
I3360
tp3287
aa(lp3288
g1068
a(I0
I2240
tp3289
aa(lp3290
g1071
a(I0
I6720
tp3291
aa(lp3292
g1074
a(I2412
I159040
tp3293
aa(lp3294
g1077
a(I750
I8960
tp3295
aa(lp3296
g1080
a(I267
I949
tp3297
aa(lp3298
g1083
a(I0
I352
tp3299
aatp3300
Rp3301
aa(lp3302
S'GEMM_Blocked__tileSize_256_i_tileSize_256_loop_jj_1_loop_ii_1_loop_kk_1_loop_i_1_loop_k_1'
p3303
ag0
((lp3304
(lp3305
g1044
aI7766298
aa(lp3306
g1046
aF0.5400647773237648
aa(lp3307
g1048
aF0.1350161943309412
aa(lp3308
g1050
a(I18
I64
tp3309
aa(lp3310
g1053
a(I8
I64
tp3311
aa(lp3312
g1056
a(I3
I34
tp3313
aa(lp3314
g1059
a(I11
I153
tp3315
aa(lp3316
g1062
a(I3
I34
tp3317
aa(lp3318
g1065
a(I188
I3360
tp3319
aa(lp3320
g1068
a(I0
I2240
tp3321
aa(lp3322
g1071
a(I0
I6720
tp3323
aa(lp3324
g1074
a(I789
I46976
tp3325
aa(lp3326
g1077
a(I236
I2656
tp3327
aa(lp3328
g1080
a(I81
I287
tp3329
aa(lp3330
g1083
a(I0
I104
tp3331
aatp3332
Rp3333
aa(lp3334
S'GEMM_Blocked__tileSize_256_i_tileSize_256_loop_jj_1_loop_ii_1_loop_kk_1_loop_i_1_loop_k_2'
p3335
ag0
((lp3336
(lp3337
g1044
aI4510843
aa(lp3338
g1046
aF0.9298270855358965
aa(lp3339
g1048
aF0.23245677138397414
aa(lp3340
g1050
a(I19
I64
tp3341
aa(lp3342
g1053
a(I10
I64
tp3343
aa(lp3344
g1056
a(I3
I34
tp3345
aa(lp3346
g1059
a(I11
I153
tp3347
aa(lp3348
g1062
a(I3
I34
tp3349
aa(lp3350
g1065
a(I161
I3360
tp3351
aa(lp3352
g1068
a(I0
I2240
tp3353
aa(lp3354
g1071
a(I0
I6720
tp3355
aa(lp3356
g1074
a(I907
I52192
tp3357
aa(lp3358
g1077
a(I273
I2912
tp3359
aa(lp3360
g1080
a(I89
I311
tp3361
aa(lp3362
g1083
a(I0
I116
tp3363
aatp3364
Rp3365
aa(lp3366
S'GEMM_Blocked__tileSize_256_i_tileSize_256_loop_jj_1_loop_ii_1_loop_kk_1_loop_i_2_loop_k_1'
p3367
ag0
((lp3368
(lp3369
g1044
aI3947718
aa(lp3370
g1046
aF1.062462921616995
aa(lp3371
g1048
aF0.26561573040424874
aa(lp3372
g1050
a(I25
I64
tp3373
aa(lp3374
g1053
a(I14
I64
tp3375
aa(lp3376
g1056
a(I4
I34
tp3377
aa(lp3378
g1059
a(I14
I153
tp3379
aa(lp3380
g1062
a(I4
I34
tp3381
aa(lp3382
g1065
a(I308
I3360
tp3383
aa(lp3384
g1068
a(I0
I2240
tp3385
aa(lp3386
g1071
a(I0
I6720
tp3387
aa(lp3388
g1074
a(I1076
I70304
tp3389
aa(lp3390
g1077
a(I303
I3904
tp3391
aa(lp3392
g1080
a(I114
I414
tp3393
aa(lp3394
g1083
a(I0
I156
tp3395
aatp3396
Rp3397
aa(lp3398
S'GEMM_Blocked__tileSize_256_i_tileSize_256_loop_jj_1_loop_ii_1_loop_kk_1_loop_i_2_loop_k_2'
p3399
ag0
((lp3400
(lp3401
g1044
aI2319805
aa(lp3402
g1046
aF1.80804162418824
aa(lp3403
g1048
aF0.45201040604706
aa(lp3404
g1050
a(I27
I64
tp3405
aa(lp3406
g1053
a(I18
I64
tp3407
aa(lp3408
g1056
a(I4
I34
tp3409
aa(lp3410
g1059
a(I14
I153
tp3411
aa(lp3412
g1062
a(I4
I34
tp3413
aa(lp3414
g1065
a(I355
I3360
tp3415
aa(lp3416
g1068
a(I0
I2240
tp3417
aa(lp3418
g1071
a(I0
I6720
tp3419
aa(lp3420
g1074
a(I1312
I80736
tp3421
aa(lp3422
g1077
a(I377
I4416
tp3423
aa(lp3424
g1080
a(I130
I462
tp3425
aa(lp3426
g1083
a(I0
I180
tp3427
aatp3428
Rp3429
aa(lp3430
S'GEMM_Blocked__tileSize_256_i_tileSize_256_loop_jj_1_loop_ii_1_loop_kk_2_loop_i_1_loop_k_1'
p3431
ag0
((lp3432
(lp3433
g1044
aI3968536
aa(lp3434
g1046
aF1.0568894927499712
aa(lp3435
g1048
aF0.2642223731874928
aa(lp3436
g1050
a(I30
I64
tp3437
aa(lp3438
g1053
a(I14
I64
tp3439
aa(lp3440
g1056
a(I5
I34
tp3441
aa(lp3442
g1059
a(I17
I153
tp3443
aa(lp3444
g1062
a(I5
I34
tp3445
aa(lp3446
g1065
a(I341
I3360
tp3447
aa(lp3448
g1068
a(I0
I2240
tp3449
aa(lp3450
g1071
a(I0
I6720
tp3451
aa(lp3452
g1074
a(I1206
I79520
tp3453
aa(lp3454
g1077
a(I375
I4480
tp3455
aa(lp3456
g1080
a(I134
I477
tp3457
aa(lp3458
g1083
a(I0
I176
tp3459
aatp3460
Rp3461
aa(lp3462
S'GEMM_Blocked__tileSize_256_i_tileSize_256_loop_jj_1_loop_ii_1_loop_kk_2_loop_i_1_loop_k_2'
p3463
ag0
((lp3464
(lp3465
g1044
aI2333046
aa(lp3466
g1046
aF1.7977802409382413
aa(lp3467
g1048
aF0.4494450602345603
aa(lp3468
g1050
a(I32
I64
tp3469
aa(lp3470
g1053
a(I18
I64
tp3471
aa(lp3472
g1056
a(I5
I34
tp3473
aa(lp3474
g1059
a(I17
I153
tp3475
aa(lp3476
g1062
a(I5
I34
tp3477
aa(lp3478
g1065
a(I396
I3360
tp3479
aa(lp3480
g1068
a(I0
I2240
tp3481
aa(lp3482
g1071
a(I0
I6720
tp3483
aa(lp3484
g1074
a(I1442
I89952
tp3485
aa(lp3486
g1077
a(I449
I4992
tp3487
aa(lp3488
g1080
a(I150
I525
tp3489
aa(lp3490
g1083
a(I0
I200
tp3491
aatp3492
Rp3493
aa(lp3494
S'GEMM_Blocked__tileSize_256_i_tileSize_256_loop_jj_1_loop_ii_1_loop_kk_2_loop_i_2_loop_k_1'
p3495
ag0
((lp3496
(lp3497
g1044
aI2056265
aa(lp3498
g1046
aF2.039768220535777
aa(lp3499
g1048
aF0.5099420551339443
aa(lp3500
g1050
a(I44
I64
tp3501
aa(lp3502
g1053
a(I26
I64
tp3503
aa(lp3504
g1056
a(I7
I34
tp3505
aa(lp3506
g1059
a(I23
I153
tp3507
aa(lp3508
g1062
a(I7
I34
tp3509
aa(lp3510
g1065
a(I521
I3360
tp3511
aa(lp3512
g1068
a(I0
I2240
tp3513
aa(lp3514
g1071
a(I0
I6720
tp3515
aa(lp3516
g1074
a(I1780
I126176
tp3517
aa(lp3518
g1077
a(I509
I6976
tp3519
aa(lp3520
g1080
a(I200
I731
tp3521
aa(lp3522
g1083
a(I0
I280
tp3523
aatp3524
Rp3525
aa(lp3526
S'GEMM_Blocked__tileSize_256_i_tileSize_256_loop_jj_1_loop_ii_1_loop_kk_1_loop_i_1_loop_k_3'
p3527
ag0
((lp3528
(lp3529
g1044
aI3096349
aa(lp3530
g1046
aF1.3545966556095583
aa(lp3531
g1048
aF0.3386491639023896
aa(lp3532
g1050
a(I20
I64
tp3533
aa(lp3534
g1053
a(I12
I64
tp3535
aa(lp3536
g1056
a(I3
I34
tp3537
aa(lp3538
g1059
a(I11
I153
tp3539
aa(lp3540
g1062
a(I3
I34
tp3541
aa(lp3542
g1065
a(I193
I3360
tp3543
aa(lp3544
g1068
a(I0
I2240
tp3545
aa(lp3546
g1071
a(I0
I6720
tp3547
aa(lp3548
g1074
a(I1041
I57408
tp3549
aa(lp3550
g1077
a(I310
I3168
tp3551
aa(lp3552
g1080
a(I97
I335
tp3553
aa(lp3554
g1083
a(I0
I128
tp3555
aatp3556
Rp3557
aa(lp3558
S'GEMM_Blocked__tileSize_256_i_tileSize_256_loop_jj_1_loop_ii_1_loop_kk_1_loop_i_1_loop_k_4'
p3559
ag0
((lp3560
(lp3561
g1044
aI2353981
aa(lp3562
g1046
aF1.781791781666887
aa(lp3563
g1048
aF0.4454479454167217
aa(lp3564
g1050
a(I21
I64
tp3565
aa(lp3566
g1053
a(I14
I64
tp3567
aa(lp3568
g1056
a(I3
I34
tp3569
aa(lp3570
g1059
a(I11
I153
tp3571
aa(lp3572
g1062
a(I3
I34
tp3573
aa(lp3574
g1065
a(I196
I3360
tp3575
aa(lp3576
g1068
a(I0
I2240
tp3577
aa(lp3578
g1071
a(I0
I6720
tp3579
aa(lp3580
g1074
a(I1191
I62624
tp3581
aa(lp3582
g1077
a(I347
I3424
tp3583
aa(lp3584
g1080
a(I105
I359
tp3585
aa(lp3586
g1083
a(I0
I140
tp3587
aatp3588
Rp3589
aa(lp3590
S'GEMM_Blocked__tileSize_256_i_tileSize_256_loop_jj_1_loop_ii_1_loop_kk_1_loop_i_2_loop_k_3'
p3591
ag0
((lp3592
(lp3593
g1044
aI1612503
aa(lp3594
g1046
aF2.6011139204082103
aa(lp3595
g1048
aF0.6502784801020526
aa(lp3596
g1050
a(I29
I64
tp3597
aa(lp3598
g1053
a(I22
I64
tp3599
aa(lp3600
g1056
a(I4
I34
tp3601
aa(lp3602
g1059
a(I14
I153
tp3603
aa(lp3604
g1062
a(I4
I34
tp3605
aa(lp3606
g1065
a(I391
I3360
tp3607
aa(lp3608
g1068
a(I0
I2240
tp3609
aa(lp3610
g1071
a(I0
I6720
tp3611
aa(lp3612
g1074
a(I1580
I91168
tp3613
aa(lp3614
g1077
a(I451
I4928
tp3615
aa(lp3616
g1080
a(I146
I510
tp3617
aa(lp3618
g1083
a(I0
I204
tp3619
aatp3620
Rp3621
aa(lp3622
S'GEMM_Blocked__tileSize_256_i_tileSize_256_loop_jj_1_loop_ii_1_loop_kk_1_loop_i_3_loop_k_1'
p3623
ag0
((lp3624
(lp3625
g1044
aI2693928
aa(lp3626
g1046
aF1.5569473274712613
aa(lp3627
g1048
aF0.3892368318678153
aa(lp3628
g1050
a(I32
I64
tp3629
aa(lp3630
g1053
a(I20
I64
tp3631
aa(lp3632
g1056
a(I5
I34
tp3633
aa(lp3634
g1059
a(I17
I153
tp3635
aa(lp3636
g1062
a(I5
I34
tp3637
aa(lp3638
g1065
a(I328
I3360
tp3639
aa(lp3640
g1068
a(I0
I2240
tp3641
aa(lp3642
g1071
a(I0
I6720
tp3643
aa(lp3644
g1074
a(I1363
I93632
tp3645
aa(lp3646
g1077
a(I370
I5152
tp3647
aa(lp3648
g1080
a(I147
I541
tp3649
aa(lp3650
g1083
a(I0
I208
tp3651
aatp3652
Rp3653
aa(lp3654
S'GEMM_Blocked__tileSize_256_i_tileSize_256_loop_jj_1_loop_ii_1_loop_kk_1_loop_i_3_loop_k_3'
p3655
ag0
((lp3656
(lp3657
g1044
aI1132475
aa(lp3658
g1046
aF3.703661449480121
aa(lp3659
g1048
aF0.9259153623700302
aa(lp3660
g1050
a(I38
I64
tp3661
aa(lp3662
g1053
a(I32
I64
tp3663
aa(lp3664
g1056
a(I5
I34
tp3665
aa(lp3666
g1059
a(I17
I153
tp3667
aa(lp3668
g1062
a(I5
I34
tp3669
aa(lp3670
g1065
a(I553
I3360
tp3671
aa(lp3672
g1068
a(I0
I2240
tp3673
aa(lp3674
g1071
a(I0
I6720
tp3675
aa(lp3676
g1074
a(I2119
I124928
tp3677
aa(lp3678
g1077
a(I592
I6688
tp3679
aa(lp3680
g1080
a(I195
I685
tp3681
aa(lp3682
g1083
a(I0
I280
tp3683
aatp3684
Rp3685
aa(lp3686
S'GEMM_Blocked__tileSize_256_i_tileSize_256_loop_jj_1_loop_ii_1_loop_kk_1_loop_i_3_loop_k_4'
p3687
ag0
((lp3688
(lp3689
g1044
aI884363
aa(lp3690
g1046
aF4.742740254850101
aa(lp3691
g1048
aF1.1856850637125254
aa(lp3692
g1050
a(I41
I64
tp3693
aa(lp3694
g1053
a(I38
I64
tp3695
aa(lp3696
g1056
a(I5
I34
tp3697
aa(lp3698
g1059
a(I17
I153
tp3699
aa(lp3700
g1062
a(I5
I34
tp3701
aa(lp3702
g1065
a(I577
I3360
tp3703
aa(lp3704
g1068
a(I0
I2240
tp3705
aa(lp3706
g1071
a(I0
I6720
tp3707
aa(lp3708
g1074
a(I2569
I140576
tp3709
aa(lp3710
g1077
a(I703
I7456
tp3711
aa(lp3712
g1080
a(I219
I757
tp3713
aa(lp3714
g1083
a(I0
I316
tp3715
aatp3716
Rp3717
aa(lp3718
S'GEMM_Blocked__tileSize_256_i_tileSize_256_loop_jj_1_loop_ii_1_loop_kk_1_loop_i_4_loop_k_1'
p3719
ag0
((lp3720
(lp3721
g1044
aI2030451
aa(lp3722
g1046
aF2.065700674382194
aa(lp3723
g1048
aF0.5164251685955485
aa(lp3724
g1050
a(I39
I64
tp3725
aa(lp3726
g1053
a(I26
I64
tp3727
aa(lp3728
g1056
a(I6
I34
tp3729
aa(lp3730
g1059
a(I20
I153
tp3731
aa(lp3732
g1062
a(I6
I34
tp3733
aa(lp3734
g1065
a(I519
I3360
tp3735
aa(lp3736
g1068
a(I0
I2240
tp3737
aa(lp3738
g1071
a(I0
I6720
tp3739
aa(lp3740
g1074
a(I1650
I116960
tp3741
aa(lp3742
g1077
a(I437
I6400
tp3743
aa(lp3744
g1080
a(I180
I668
tp3745
aa(lp3746
g1083
a(I0
I260
tp3747
aatp3748
Rp3749
aa(lp3750
S'GEMM_Blocked__tileSize_256_i_tileSize_256_loop_jj_1_loop_ii_1_loop_kk_1_loop_i_4_loop_k_2'
p3751
ag0
((lp3752
(lp3753
g1044
aI1226891
aa(lp3754
g1046
aF3.4186443620500926
aa(lp3755
g1048
aF0.8546610905125231
aa(lp3756
g1050
a(I43
I64
tp3757
aa(lp3758
g1053
a(I34
I64
tp3759
aa(lp3760
g1056
a(I6
I34
tp3761
aa(lp3762
g1059
a(I20
I153
tp3763
aa(lp3764
g1062
a(I6
I34
tp3765
aa(lp3766
g1065
a(I584
I3360
tp3767
aa(lp3768
g1068
a(I0
I2240
tp3769
aa(lp3770
g1071
a(I0
I6720
tp3771
aa(lp3772
g1074
a(I2122
I137824
tp3773
aa(lp3774
g1077
a(I585
I7424
tp3775
aa(lp3776
g1080
a(I212
I764
tp3777
aa(lp3778
g1083
a(I0
I308
tp3779
aatp3780
Rp3781
aa(lp3782
S'GEMM_Blocked__tileSize_256_i_tileSize_256_loop_jj_1_loop_ii_1_loop_kk_1_loop_i_4_loop_k_3'
p3783
ag0
((lp3784
(lp3785
g1044
aI875881
aa(lp3786
g1046
aF4.788668780348015
aa(lp3787
g1048
aF1.1971671950870038
aa(lp3788
g1050
a(I47
I64
tp3789
aa(lp3790
g1053
a(I42
I64
tp3791
aa(lp3792
g1056
a(I6
I34
tp3793
aa(lp3794
g1059
a(I20
I153
tp3795
aa(lp3796
g1062
a(I6
I34
tp3797
aa(lp3798
g1065
a(I693
I3360
tp3799
aa(lp3800
g1068
a(I0
I2240
tp3801
aa(lp3802
g1071
a(I0
I6720
tp3803
aa(lp3804
g1074
a(I2658
I158688
tp3805
aa(lp3806
g1077
a(I733
I8448
tp3807
aa(lp3808
g1080
a(I244
I860
tp3809
aa(lp3810
g1083
a(I0
I356
tp3811
aatp3812
Rp3813
aatp3814
Rp3815
aatp3816
Rp3817
aatp3818
Rp3819
.