ccollections
OrderedDict
p0
((lp1
(lp2
S'DotProduct'
p3
ag0
((lp4
tp5
Rp6
aa(lp7
S'TPCHQ6'
p8
ag0
((lp9
(lp10
S'96000'
p11
ag0
((lp12
(lp13
S'TPCHQ6_96000_outerPar_1_tileSize_3000'
p14
ag0
((lp15
(lp16
S'cycle'
p17
aI33435
aa(lp18
S'lavgbw'
p19
aF45.93988335576491
aa(lp20
S'savgbw'
p21
aF0.0
aa(lp22
S'pcuUtil'
p23
a(I5
I64
tp24
aa(lp25
S'mcuUtil'
p26
a(I4
I64
tp27
aa(lp28
S'scuUtil'
p29
a(I4
I34
tp30
aa(lp31
S'ocuUtil'
p32
a(I7
I153
tp33
aa(lp34
S'mcUtil'
p35
a(I4
I34
tp36
aa(lp37
S'slinkUtil'
p38
a(I27
I3360
tp39
aa(lp40
S'vlinkUtil'
p41
a(I1
I2240
tp42
aa(lp43
S'clinkUtil'
p44
a(I0
I6720
tp45
aa(lp46
S'totalRegUtil'
p47
a(I632
I19712
tp48
aa(lp49
S'totalFUUtil'
p50
a(I240
I1120
tp51
aa(lp52
S'totalSBufUtil'
p53
a(I21
I139
tp54
aa(lp55
S'totalVBufUtil'
p56
a(I3
I36
tp57
aatp58
Rp59
aa(lp60
S'TPCHQ6_96000_outerPar_1_tileSize_6000'
p61
ag0
((lp62
(lp63
g17
aI31633
aa(lp64
g19
aF48.55688679543515
aa(lp65
g21
aF0.0
aa(lp66
g23
a(I5
I64
tp67
aa(lp68
g26
a(I4
I64
tp69
aa(lp70
g29
a(I4
I34
tp71
aa(lp72
g32
a(I7
I153
tp73
aa(lp74
g35
a(I4
I34
tp75
aa(lp76
g38
a(I22
I3360
tp77
aa(lp78
g41
a(I1
I2240
tp79
aa(lp80
g44
a(I0
I6720
tp81
aa(lp82
g47
a(I632
I19712
tp83
aa(lp84
g50
a(I240
I1120
tp85
aa(lp86
g53
a(I21
I139
tp87
aa(lp88
g56
a(I3
I36
tp89
aatp90
Rp91
aa(lp92
S'TPCHQ6_96000_outerPar_3_tileSize_3000'
p93
ag0
((lp94
(lp95
g17
aI33381
aa(lp96
g19
aF46.01419969443696
aa(lp97
g21
aF0.0
aa(lp98
g23
a(I11
I64
tp99
aa(lp100
g26
a(I12
I64
tp101
aa(lp102
g29
a(I12
I34
tp103
aa(lp104
g32
a(I17
I153
tp105
aa(lp106
g35
a(I12
I34
tp107
aa(lp108
g38
a(I112
I3360
tp109
aa(lp110
g41
a(I4
I2240
tp111
aa(lp112
g44
a(I0
I6720
tp113
aa(lp114
g47
a(I1873
I52992
tp115
aa(lp116
g50
a(I713
I2976
tp117
aa(lp118
g53
a(I57
I365
tp119
aa(lp120
g56
a(I9
I92
tp121
aatp122
Rp123
aa(lp124
S'TPCHQ6_96000_outerPar_3_tileSize_6000'
p125
ag0
((lp126
(lp127
g17
aI32712
aa(lp128
g19
aF46.95524578136463
aa(lp129
g21
aF0.0
aa(lp130
g23
a(I11
I64
tp131
aa(lp132
g26
a(I12
I64
tp133
aa(lp134
g29
a(I12
I34
tp135
aa(lp136
g32
a(I17
I153
tp137
aa(lp138
g35
a(I12
I34
tp139
aa(lp140
g38
a(I95
I3360
tp141
aa(lp142
g41
a(I4
I2240
tp143
aa(lp144
g44
a(I0
I6720
tp145
aa(lp146
g47
a(I1873
I52992
tp147
aa(lp148
g50
a(I713
I2976
tp149
aa(lp150
g53
a(I57
I365
tp151
aa(lp152
g56
a(I9
I92
tp153
aatp154
Rp155
aa(lp156
S'TPCHQ6_96000_outerPar_5_tileSize_3000'
p157
ag0
((lp158
(lp159
g17
aI32514
aa(lp160
g19
aF47.24118841114596
aa(lp161
g21
aF0.0
aa(lp162
g23
a(I17
I64
tp163
aa(lp164
g26
a(I20
I64
tp165
aa(lp166
g29
a(I20
I34
tp167
aa(lp168
g32
a(I27
I153
tp169
aa(lp170
g35
a(I20
I34
tp171
aa(lp172
g38
a(I273
I3360
tp173
aa(lp174
g41
a(I7
I2240
tp175
aa(lp176
g44
a(I0
I6720
tp177
aa(lp178
g47
a(I3118
I86272
tp179
aa(lp180
g50
a(I1187
I4832
tp181
aa(lp182
g53
a(I93
I591
tp183
aa(lp184
g56
a(I15
I148
tp185
aatp186
Rp187
aa(lp188
S'TPCHQ6_96000_outerPar_6_tileSize_400'
p189
ag0
((lp190
(lp191
g17
aI36846
aa(lp192
g19
aF41.687021657710474
aa(lp193
g21
aF0.0
aa(lp194
g23
a(I20
I64
tp195
aa(lp196
g26
a(I24
I64
tp197
aa(lp198
g29
a(I24
I34
tp199
aa(lp200
g32
a(I32
I153
tp201
aa(lp202
g35
a(I24
I34
tp203
aa(lp204
g38
a(I339
I3360
tp205
aa(lp206
g41
a(I11
I2240
tp207
aa(lp208
g44
a(I0
I6720
tp209
aa(lp210
g47
a(I3742
I102912
tp211
aa(lp212
g50
a(I1424
I5760
tp213
aa(lp214
g53
a(I111
I704
tp215
aa(lp216
g56
a(I18
I176
tp217
aatp218
Rp219
aa(lp220
S'TPCHQ6_96000_outerPar_6_tileSize_1200'
p221
ag0
((lp222
(lp223
g17
aI33181
aa(lp224
g19
aF46.291552394442604
aa(lp225
g21
aF0.0
aa(lp226
g23
a(I20
I64
tp227
aa(lp228
g26
a(I24
I64
tp229
aa(lp230
g29
a(I24
I34
tp231
aa(lp232
g32
a(I32
I153
tp233
aa(lp234
g35
a(I24
I34
tp235
aa(lp236
g38
a(I337
I3360
tp237
aa(lp238
g41
a(I10
I2240
tp239
aa(lp240
g44
a(I0
I6720
tp241
aa(lp242
g47
a(I3742
I102912
tp243
aa(lp244
g50
a(I1424
I5760
tp245
aa(lp246
g53
a(I111
I704
tp247
aa(lp248
g56
a(I18
I176
tp249
aatp250
Rp251
aa(lp252
S'TPCHQ6_96000_outerPar_6_tileSize_2000'
p253
ag0
((lp254
(lp255
g17
aI33123
aa(lp256
g19
aF46.37261117652386
aa(lp257
g21
aF0.0
aa(lp258
g23
a(I20
I64
tp259
aa(lp260
g26
a(I24
I64
tp261
aa(lp262
g29
a(I24
I34
tp263
aa(lp264
g32
a(I32
I153
tp265
aa(lp266
g35
a(I24
I34
tp267
aa(lp268
g38
a(I337
I3360
tp269
aa(lp270
g41
a(I11
I2240
tp271
aa(lp272
g44
a(I0
I6720
tp273
aa(lp274
g47
a(I3742
I102912
tp275
aa(lp276
g50
a(I1424
I5760
tp277
aa(lp278
g53
a(I111
I704
tp279
aa(lp280
g56
a(I18
I176
tp281
aatp282
Rp283
aa(lp284
S'TPCHQ6_96000_outerPar_6_tileSize_2800'
p285
ag0
((lp286
(lp287
g17
aI32621
aa(lp288
g19
aF47.08623279482543
aa(lp289
g21
aF0.0
aa(lp290
g23
a(I20
I64
tp291
aa(lp292
g26
a(I24
I64
tp293
aa(lp294
g29
a(I24
I34
tp295
aa(lp296
g32
a(I32
I153
tp297
aa(lp298
g35
a(I24
I34
tp299
aa(lp300
g38
a(I344
I3360
tp301
aa(lp302
g41
a(I10
I2240
tp303
aa(lp304
g44
a(I0
I6720
tp305
aa(lp306
g47
a(I3742
I102912
tp307
aa(lp308
g50
a(I1424
I5760
tp309
aa(lp310
g53
a(I111
I704
tp311
aa(lp312
g56
a(I18
I176
tp313
aatp314
Rp315
aa(lp316
S'TPCHQ6_96000_outerPar_6_tileSize_3600'
p317
ag0
((lp318
(lp319
g17
aI32361
aa(lp320
g19
aF47.464540650783356
aa(lp321
g21
aF0.0
aa(lp322
g23
a(I20
I64
tp323
aa(lp324
g26
a(I24
I64
tp325
aa(lp326
g29
a(I24
I34
tp327
aa(lp328
g32
a(I32
I153
tp329
aa(lp330
g35
a(I24
I34
tp331
aa(lp332
g38
a(I343
I3360
tp333
aa(lp334
g41
a(I11
I2240
tp335
aa(lp336
g44
a(I0
I6720
tp337
aa(lp338
g47
a(I3742
I102912
tp339
aa(lp340
g50
a(I1424
I5760
tp341
aa(lp342
g53
a(I111
I704
tp343
aa(lp344
g56
a(I18
I176
tp345
aatp346
Rp347
aa(lp348
S'TPCHQ6_96000_outerPar_8_tileSize_400'
p349
ag0
((lp350
(lp351
g17
aI35423
aa(lp352
g19
aF43.36165768003839
aa(lp353
g21
aF0.0
aa(lp354
g23
a(I27
I64
tp355
aa(lp356
g26
a(I32
I64
tp357
aa(lp358
g29
a(I32
I34
tp359
aa(lp360
g32
a(I42
I153
tp361
aa(lp362
g35
a(I32
I34
tp363
aa(lp364
g38
a(I479
I3360
tp365
aa(lp366
g41
a(I17
I2240
tp367
aa(lp368
g44
a(I0
I6720
tp369
aa(lp370
g47
a(I4993
I137728
tp371
aa(lp372
g50
a(I1898
I7712
tp373
aa(lp374
g53
a(I149
I938
tp375
aa(lp376
g56
a(I24
I236
tp377
aatp378
Rp379
aa(lp380
S'TPCHQ6_96000_outerPar_8_tileSize_1200'
p381
ag0
((lp382
(lp383
g17
aI33196
aa(lp384
g19
aF46.27063501626702
aa(lp385
g21
aF0.0
aa(lp386
g23
a(I27
I64
tp387
aa(lp388
g26
a(I32
I64
tp389
aa(lp390
g29
a(I32
I34
tp391
aa(lp392
g32
a(I42
I153
tp393
aa(lp394
g35
a(I32
I34
tp395
aa(lp396
g38
a(I533
I3360
tp397
aa(lp398
g41
a(I34
I2240
tp399
aa(lp400
g44
a(I0
I6720
tp401
aa(lp402
g47
a(I4993
I137728
tp403
aa(lp404
g50
a(I1898
I7712
tp405
aa(lp406
g53
a(I149
I938
tp407
aa(lp408
g56
a(I24
I236
tp409
aatp410
Rp411
aa(lp412
S'TPCHQ6_96000_outerPar_8_tileSize_2000'
p413
ag0
((lp414
(lp415
g17
aI31906
aa(lp416
g19
aF48.14141540776029
aa(lp417
g21
aF0.0
aa(lp418
g23
a(I27
I64
tp419
aa(lp420
g26
a(I32
I64
tp421
aa(lp422
g29
a(I32
I34
tp423
aa(lp424
g32
a(I42
I153
tp425
aa(lp426
g35
a(I32
I34
tp427
aa(lp428
g38
a(I502
I3360
tp429
aa(lp430
g41
a(I26
I2240
tp431
aa(lp432
g44
a(I0
I6720
tp433
aa(lp434
g47
a(I4993
I137728
tp435
aa(lp436
g50
a(I1898
I7712
tp437
aa(lp438
g53
a(I149
I938
tp439
aa(lp440
g56
a(I24
I236
tp441
aatp442
Rp443
aa(lp444
S'TPCHQ6_96000_outerPar_8_tileSize_2800'
p445
ag0
((lp446
(lp447
g17
aI32844
aa(lp448
g19
aF46.766532700036535
aa(lp449
g21
aF0.0
aa(lp450
g23
a(I27
I64
tp451
aa(lp452
g26
a(I32
I64
tp453
aa(lp454
g29
a(I32
I34
tp455
aa(lp456
g32
a(I42
I153
tp457
aa(lp458
g35
a(I32
I34
tp459
aa(lp460
g38
a(I481
I3360
tp461
aa(lp462
g41
a(I17
I2240
tp463
aa(lp464
g44
a(I0
I6720
tp465
aa(lp466
g47
a(I4993
I137728
tp467
aa(lp468
g50
a(I1898
I7712
tp469
aa(lp470
g53
a(I149
I938
tp471
aa(lp472
g56
a(I24
I236
tp473
aatp474
Rp475
aa(lp476
S'TPCHQ6_96000_outerPar_2_tileSize_16'
p477
ag0
((lp478
(lp479
g17
aI405792
aa(lp480
g19
aF3.785190442394133
aa(lp481
g21
aF0.0
aa(lp482
g23
a(I8
I64
tp483
aa(lp484
g26
a(I8
I64
tp485
aa(lp486
g29
a(I8
I34
tp487
aa(lp488
g32
a(I12
I153
tp489
aa(lp490
g35
a(I8
I34
tp491
aa(lp492
g38
a(I105
I3360
tp493
aa(lp494
g41
a(I3
I2240
tp495
aa(lp496
g44
a(I0
I6720
tp497
aa(lp498
g47
a(I1252
I36352
tp499
aa(lp500
g50
a(I476
I2048
tp501
aa(lp502
g53
a(I39
I252
tp503
aa(lp504
g56
a(I6
I64
tp505
aatp506
Rp507
aa(lp508
S'TPCHQ6_96000_outerPar_2_tileSize_48'
p509
ag0
((lp510
(lp511
g17
aI137843
aa(lp512
g19
aF11.143112091292268
aa(lp513
g21
aF0.0
aa(lp514
g23
a(I8
I64
tp515
aa(lp516
g26
a(I8
I64
tp517
aa(lp518
g29
a(I8
I34
tp519
aa(lp520
g32
a(I12
I153
tp521
aa(lp522
g35
a(I8
I34
tp523
aa(lp524
g38
a(I75
I3360
tp525
aa(lp526
g41
a(I2
I2240
tp527
aa(lp528
g44
a(I0
I6720
tp529
aa(lp530
g47
a(I1252
I36352
tp531
aa(lp532
g50
a(I476
I2048
tp533
aa(lp534
g53
a(I39
I252
tp535
aa(lp536
g56
a(I6
I64
tp537
aatp538
Rp539
aa(lp540
S'TPCHQ6_96000_outerPar_2_tileSize_80'
p541
ag0
((lp542
(lp543
g17
aI99063
aa(lp544
g19
aF15.505284515914116
aa(lp545
g21
aF0.0
aa(lp546
g23
a(I8
I64
tp547
aa(lp548
g26
a(I8
I64
tp549
aa(lp550
g29
a(I8
I34
tp551
aa(lp552
g32
a(I12
I153
tp553
aa(lp554
g35
a(I8
I34
tp555
aa(lp556
g38
a(I74
I3360
tp557
aa(lp558
g41
a(I2
I2240
tp559
aa(lp560
g44
a(I0
I6720
tp561
aa(lp562
g47
a(I1252
I36352
tp563
aa(lp564
g50
a(I476
I2048
tp565
aa(lp566
g53
a(I39
I252
tp567
aa(lp568
g56
a(I6
I64
tp569
aatp570
Rp571
aa(lp572
S'TPCHQ6_96000_outerPar_2_tileSize_112'
p573
ag0
((lp574
(lp575
g17
aI78569
aa(lp576
g19
aF19.549695172396238
aa(lp577
g21
aF0.0
aa(lp578
g23
a(I8
I64
tp579
aa(lp580
g26
a(I8
I64
tp581
aa(lp582
g29
a(I8
I34
tp583
aa(lp584
g32
a(I12
I153
tp585
aa(lp586
g35
a(I8
I34
tp587
aa(lp588
g38
a(I70
I3360
tp589
aa(lp590
g41
a(I2
I2240
tp591
aa(lp592
g44
a(I0
I6720
tp593
aa(lp594
g47
a(I1252
I36352
tp595
aa(lp596
g50
a(I476
I2048
tp597
aa(lp598
g53
a(I39
I252
tp599
aa(lp600
g56
a(I6
I64
tp601
aatp602
Rp603
aa(lp604
S'TPCHQ6_96000_outerPar_2_tileSize_144'
p605
ag0
((lp606
(lp607
g17
aI64694
aa(lp608
g19
aF23.7425418122237
aa(lp609
g21
aF0.0
aa(lp610
g23
a(I8
I64
tp611
aa(lp612
g26
a(I8
I64
tp613
aa(lp614
g29
a(I8
I34
tp615
aa(lp616
g32
a(I12
I153
tp617
aa(lp618
g35
a(I8
I34
tp619
aa(lp620
g38
a(I80
I3360
tp621
aa(lp622
g41
a(I2
I2240
tp623
aa(lp624
g44
a(I0
I6720
tp625
aa(lp626
g47
a(I1252
I36352
tp627
aa(lp628
g50
a(I476
I2048
tp629
aa(lp630
g53
a(I39
I252
tp631
aa(lp632
g56
a(I6
I64
tp633
aatp634
Rp635
aa(lp636
S'TPCHQ6_96000_outerPar_2_tileSize_176'
p637
ag0
((lp638
(lp639
g17
aI59850
aa(lp640
g19
aF25.664160401002505
aa(lp641
g21
aF0.0
aa(lp642
g23
a(I8
I64
tp643
aa(lp644
g26
a(I8
I64
tp645
aa(lp646
g29
a(I8
I34
tp647
aa(lp648
g32
a(I12
I153
tp649
aa(lp650
g35
a(I8
I34
tp651
aa(lp652
g38
a(I66
I3360
tp653
aa(lp654
g41
a(I2
I2240
tp655
aa(lp656
g44
a(I0
I6720
tp657
aa(lp658
g47
a(I1252
I36352
tp659
aa(lp660
g50
a(I476
I2048
tp661
aa(lp662
g53
a(I39
I252
tp663
aa(lp664
g56
a(I6
I64
tp665
aatp666
Rp667
aa(lp668
S'TPCHQ6_96000_outerPar_2_tileSize_208'
p669
ag0
((lp670
(lp671
g17
aI55820
aa(lp672
g19
aF27.517018989609458
aa(lp673
g21
aF0.0
aa(lp674
g23
a(I8
I64
tp675
aa(lp676
g26
a(I8
I64
tp677
aa(lp678
g29
a(I8
I34
tp679
aa(lp680
g32
a(I12
I153
tp681
aa(lp682
g35
a(I8
I34
tp683
aa(lp684
g38
a(I69
I3360
tp685
aa(lp686
g41
a(I2
I2240
tp687
aa(lp688
g44
a(I0
I6720
tp689
aa(lp690
g47
a(I1252
I36352
tp691
aa(lp692
g50
a(I476
I2048
tp693
aa(lp694
g53
a(I39
I252
tp695
aa(lp696
g56
a(I6
I64
tp697
aatp698
Rp699
aa(lp700
S'TPCHQ6_96000_outerPar_2_tileSize_240'
p701
ag0
((lp702
(lp703
g17
aI51062
aa(lp704
g19
aF30.081077905291608
aa(lp705
g21
aF0.0
aa(lp706
g23
a(I8
I64
tp707
aa(lp708
g26
a(I8
I64
tp709
aa(lp710
g29
a(I8
I34
tp711
aa(lp712
g32
a(I12
I153
tp713
aa(lp714
g35
a(I8
I34
tp715
aa(lp716
g38
a(I80
I3360
tp717
aa(lp718
g41
a(I2
I2240
tp719
aa(lp720
g44
a(I0
I6720
tp721
aa(lp722
g47
a(I1252
I36352
tp723
aa(lp724
g50
a(I476
I2048
tp725
aa(lp726
g53
a(I39
I252
tp727
aa(lp728
g56
a(I6
I64
tp729
aatp730
Rp731
aa(lp732
S'TPCHQ6_96000_outerPar_4_tileSize_16'
p733
ag0
((lp734
(lp735
g17
aI201953
aa(lp736
g19
aF7.605730046099835
aa(lp737
g21
aF0.0
aa(lp738
g23
a(I14
I64
tp739
aa(lp740
g26
a(I16
I64
tp741
aa(lp742
g29
a(I16
I34
tp743
aa(lp744
g32
a(I22
I153
tp745
aa(lp746
g35
a(I16
I34
tp747
aa(lp748
g38
a(I217
I3360
tp749
aa(lp750
g41
a(I5
I2240
tp751
aa(lp752
g44
a(I0
I6720
tp753
aa(lp754
g47
a(I2495
I69632
tp755
aa(lp756
g50
a(I950
I3904
tp757
aa(lp758
g53
a(I75
I478
tp759
aa(lp760
g56
a(I12
I120
tp761
aatp762
Rp763
aa(lp764
S'TPCHQ6_96000_outerPar_4_tileSize_48'
p765
ag0
((lp766
(lp767
g17
aI84737
aa(lp768
g19
aF18.126674298122424
aa(lp769
g21
aF0.0
aa(lp770
g23
a(I14
I64
tp771
aa(lp772
g26
a(I16
I64
tp773
aa(lp774
g29
a(I16
I34
tp775
aa(lp776
g32
a(I22
I153
tp777
aa(lp778
g35
a(I16
I34
tp779
aa(lp780
g38
a(I207
I3360
tp781
aa(lp782
g41
a(I5
I2240
tp783
aa(lp784
g44
a(I0
I6720
tp785
aa(lp786
g47
a(I2495
I69632
tp787
aa(lp788
g50
a(I950
I3904
tp789
aa(lp790
g53
a(I75
I478
tp791
aa(lp792
g56
a(I12
I120
tp793
aatp794
Rp795
aa(lp796
S'TPCHQ6_96000_outerPar_4_tileSize_80'
p797
ag0
((lp798
(lp799
g17
aI60710
aa(lp800
g19
aF25.300609454785047
aa(lp801
g21
aF0.0
aa(lp802
g23
a(I14
I64
tp803
aa(lp804
g26
a(I16
I64
tp805
aa(lp806
g29
a(I16
I34
tp807
aa(lp808
g32
a(I22
I153
tp809
aa(lp810
g35
a(I16
I34
tp811
aa(lp812
g38
a(I186
I3360
tp813
aa(lp814
g41
a(I5
I2240
tp815
aa(lp816
g44
a(I0
I6720
tp817
aa(lp818
g47
a(I2495
I69632
tp819
aa(lp820
g50
a(I950
I3904
tp821
aa(lp822
g53
a(I75
I478
tp823
aa(lp824
g56
a(I12
I120
tp825
aatp826
Rp827
aa(lp828
S'TPCHQ6_96000_outerPar_4_tileSize_112'
p829
ag0
((lp830
(lp831
g17
aI53686
aa(lp832
g19
aF28.610811012181944
aa(lp833
g21
aF0.0
aa(lp834
g23
a(I14
I64
tp835
aa(lp836
g26
a(I16
I64
tp837
aa(lp838
g29
a(I16
I34
tp839
aa(lp840
g32
a(I22
I153
tp841
aa(lp842
g35
a(I16
I34
tp843
aa(lp844
g38
a(I202
I3360
tp845
aa(lp846
g41
a(I5
I2240
tp847
aa(lp848
g44
a(I0
I6720
tp849
aa(lp850
g47
a(I2495
I69632
tp851
aa(lp852
g50
a(I950
I3904
tp853
aa(lp854
g53
a(I75
I478
tp855
aa(lp856
g56
a(I12
I120
tp857
aatp858
Rp859
aa(lp860
S'TPCHQ6_96000_outerPar_6_tileSize_16'
p861
ag0
((lp862
(lp863
g17
aI164316
aa(lp864
g19
aF9.347841963046813
aa(lp865
g21
aF0.0
aa(lp866
g23
a(I20
I64
tp867
aa(lp868
g26
a(I24
I64
tp869
aa(lp870
g29
a(I24
I34
tp871
aa(lp872
g32
a(I32
I153
tp873
aa(lp874
g35
a(I24
I34
tp875
aa(lp876
g38
a(I375
I3360
tp877
aa(lp878
g41
a(I11
I2240
tp879
aa(lp880
g44
a(I0
I6720
tp881
aa(lp882
g47
a(I3742
I102912
tp883
aa(lp884
g50
a(I1424
I5760
tp885
aa(lp886
g53
a(I111
I704
tp887
aa(lp888
g56
a(I18
I176
tp889
aatp890
Rp891
aa(lp892
S'TPCHQ6_96000_outerPar_6_tileSize_48'
p893
ag0
((lp894
(lp895
g17
aI68913
aa(lp896
g19
aF22.28897305297985
aa(lp897
g21
aF0.0
aa(lp898
g23
a(I20
I64
tp899
aa(lp900
g26
a(I24
I64
tp901
aa(lp902
g29
a(I24
I34
tp903
aa(lp904
g32
a(I32
I153
tp905
aa(lp906
g35
a(I24
I34
tp907
aa(lp908
g38
a(I348
I3360
tp909
aa(lp910
g41
a(I10
I2240
tp911
aa(lp912
g44
a(I0
I6720
tp913
aa(lp914
g47
a(I3742
I102912
tp915
aa(lp916
g50
a(I1424
I5760
tp917
aa(lp918
g53
a(I111
I704
tp919
aa(lp920
g56
a(I18
I176
tp921
aatp922
Rp923
aa(lp924
S'TPCHQ6_96000_outerPar_6_tileSize_80'
p925
ag0
((lp926
(lp927
g17
aI49357
aa(lp928
g19
aF31.120205847194928
aa(lp929
g21
aF0.0
aa(lp930
g23
a(I20
I64
tp931
aa(lp932
g26
a(I24
I64
tp933
aa(lp934
g29
a(I24
I34
tp935
aa(lp936
g32
a(I32
I153
tp937
aa(lp938
g35
a(I24
I34
tp939
aa(lp940
g38
a(I347
I3360
tp941
aa(lp942
g41
a(I11
I2240
tp943
aa(lp944
g44
a(I0
I6720
tp945
aa(lp946
g47
a(I3742
I102912
tp947
aa(lp948
g50
a(I1424
I5760
tp949
aa(lp950
g53
a(I111
I704
tp951
aa(lp952
g56
a(I18
I176
tp953
aatp954
Rp955
aa(lp956
S'TPCHQ6_96000_outerPar_8_tileSize_16'
p957
ag0
((lp958
(lp959
g17
aI133521
aa(lp960
g19
aF11.503808389691509
aa(lp961
g21
aF0.0
aa(lp962
g23
a(I27
I64
tp963
aa(lp964
g26
a(I32
I64
tp965
aa(lp966
g29
a(I32
I34
tp967
aa(lp968
g32
a(I42
I153
tp969
aa(lp970
g35
a(I32
I34
tp971
aa(lp972
g38
a(I495
I3360
tp973
aa(lp974
g41
a(I17
I2240
tp975
aa(lp976
g44
a(I0
I6720
tp977
aa(lp978
g47
a(I4993
I137728
tp979
aa(lp980
g50
a(I1898
I7712
tp981
aa(lp982
g53
a(I149
I938
tp983
aa(lp984
g56
a(I24
I236
tp985
aatp986
Rp987
aa(lp988
S'TPCHQ6_96000_outerPar_8_tileSize_48'
p989
ag0
((lp990
(lp991
g17
aI54641
aa(lp992
g19
aF28.1107593199246
aa(lp993
g21
aF0.0
aa(lp994
g23
a(I27
I64
tp995
aa(lp996
g26
a(I32
I64
tp997
aa(lp998
g29
a(I32
I34
tp999
aa(lp1000
g32
a(I42
I153
tp1001
aa(lp1002
g35
a(I32
I34
tp1003
aa(lp1004
g38
a(I507
I3360
tp1005
aa(lp1006
g41
a(I19
I2240
tp1007
aa(lp1008
g44
a(I0
I6720
tp1009
aa(lp1010
g47
a(I4993
I137728
tp1011
aa(lp1012
g50
a(I1898
I7712
tp1013
aa(lp1014
g53
a(I149
I938
tp1015
aa(lp1016
g56
a(I24
I236
tp1017
aatp1018
Rp1019
aatp1020
Rp1021
aatp1022
Rp1023
aa(lp1024
S'GDA'
p1025
ag0
((lp1026
(lp1027
S'19200'
p1028
ag0
((lp1029
tp1030
Rp1031
aatp1032
Rp1033
aa(lp1034
S'BlackScholes'
p1035
ag0
((lp1036
(lp1037
S'1966080'
p1038
ag0
((lp1039
tp1040
Rp1041
aatp1042
Rp1043
aa(lp1044
S'Kmeans_plasticine'
p1045
ag0
((lp1046
(lp1047
S'1_6144'
p1048
ag0
((lp1049
tp1050
Rp1051
aatp1052
Rp1053
aa(lp1054
S'PageRank_plasticine'
p1055
ag0
((lp1056
(lp1057
S'1_491520_0.125'
p1058
ag0
((lp1059
tp1060
Rp1061
aatp1062
Rp1063
aa(lp1064
S'SPMV_CRS'
p1065
ag0
((lp1066
(lp1067
S''
p1068
ag0
((lp1069
(lp1070
S'SPMV_CRS__tileSize_80_tile_par_1_pt_par_1'
p1071
ag0
((lp1072
(lp1073
g17
aI93202
aa(lp1074
g19
aF0.0
aa(lp1075
g21
aF0.0
aa(lp1076
g23
a(I25
I64
tp1077
aa(lp1078
g26
a(I6
I64
tp1079
aa(lp1080
g29
a(I5
I34
tp1081
aa(lp1082
g32
a(I15
I153
tp1083
aa(lp1084
g35
a(I5
I34
tp1085
aa(lp1086
g38
a(I303
I3360
tp1087
aa(lp1088
g41
a(I0
I2240
tp1089
aa(lp1090
g44
a(I0
I6720
tp1091
aa(lp1092
g47
a(I868
I54912
tp1093
aa(lp1094
g50
a(I319
I3264
tp1095
aa(lp1096
g53
a(I107
I363
tp1097
aa(lp1098
g56
a(I1
I124
tp1099
aatp1100
Rp1101
aa(lp1102
S'SPMV_CRS__tileSize_80_tile_par_1_pt_par_2'
p1103
ag0
((lp1104
(lp1105
g17
aI83538
aa(lp1106
g19
aF0.0
aa(lp1107
g21
aF0.0
aa(lp1108
g23
a(I40
I64
tp1109
aa(lp1110
g26
a(I9
I64
tp1111
aa(lp1112
g29
a(I8
I34
tp1113
aa(lp1114
g32
a(I22
I153
tp1115
aa(lp1116
g35
a(I8
I34
tp1117
aa(lp1118
g38
a(I524
I3360
tp1119
aa(lp1120
g41
a(I0
I2240
tp1121
aa(lp1122
g44
a(I0
I6720
tp1123
aa(lp1124
g47
a(I1321
I86976
tp1125
aa(lp1126
g50
a(I497
I5184
tp1127
aa(lp1128
g53
a(I168
I566
tp1129
aa(lp1130
g56
a(I2
I196
tp1131
aatp1132
Rp1133
aa(lp1134
S'SPMV_CRS__tileSize_80_tile_par_2_pt_par_1'
p1135
ag0
((lp1136
(lp1137
g17
aI69732
aa(lp1138
g19
aF0.0
aa(lp1139
g21
aF0.0
aa(lp1140
g23
a(I49
I64
tp1141
aa(lp1142
g26
a(I12
I64
tp1143
aa(lp1144
g29
a(I10
I34
tp1145
aa(lp1146
g32
a(I28
I153
tp1147
aa(lp1148
g35
a(I10
I34
tp1149
aa(lp1150
g38
a(I675
I3360
tp1151
aa(lp1152
g41
a(I0
I2240
tp1153
aa(lp1154
g44
a(I0
I6720
tp1155
aa(lp1156
g47
a(I1730
I108288
tp1157
aa(lp1158
g50
a(I637
I6432
tp1159
aa(lp1160
g53
a(I212
I708
tp1161
aa(lp1162
g56
a(I2
I244
tp1163
aatp1164
Rp1165
aa(lp1166
S'SPMV_CRS__tileSize_144_tile_par_1_pt_par_1'
p1167
ag0
((lp1168
(lp1169
g17
aI83563
aa(lp1170
g19
aF0.0
aa(lp1171
g21
aF0.0
aa(lp1172
g23
a(I25
I64
tp1173
aa(lp1174
g26
a(I6
I64
tp1175
aa(lp1176
g29
a(I5
I34
tp1177
aa(lp1178
g32
a(I15
I153
tp1179
aa(lp1180
g35
a(I5
I34
tp1181
aa(lp1182
g38
a(I307
I3360
tp1183
aa(lp1184
g41
a(I0
I2240
tp1185
aa(lp1186
g44
a(I0
I6720
tp1187
aa(lp1188
g47
a(I868
I54912
tp1189
aa(lp1190
g50
a(I319
I3264
tp1191
aa(lp1192
g53
a(I107
I363
tp1193
aa(lp1194
g56
a(I1
I124
tp1195
aatp1196
Rp1197
aa(lp1198
S'SPMV_CRS__tileSize_144_tile_par_1_pt_par_2'
p1199
ag0
((lp1200
(lp1201
g17
aI74606
aa(lp1202
g19
aF0.0
aa(lp1203
g21
aF0.0
aa(lp1204
g23
a(I40
I64
tp1205
aa(lp1206
g26
a(I9
I64
tp1207
aa(lp1208
g29
a(I8
I34
tp1209
aa(lp1210
g32
a(I22
I153
tp1211
aa(lp1212
g35
a(I8
I34
tp1213
aa(lp1214
g38
a(I592
I3360
tp1215
aa(lp1216
g41
a(I0
I2240
tp1217
aa(lp1218
g44
a(I0
I6720
tp1219
aa(lp1220
g47
a(I1321
I86976
tp1221
aa(lp1222
g50
a(I497
I5184
tp1223
aa(lp1224
g53
a(I168
I566
tp1225
aa(lp1226
g56
a(I2
I196
tp1227
aatp1228
Rp1229
aa(lp1230
S'SPMV_CRS__tileSize_144_tile_par_2_pt_par_1'
p1231
ag0
((lp1232
(lp1233
g17
aI69177
aa(lp1234
g19
aF0.0
aa(lp1235
g21
aF0.0
aa(lp1236
g23
a(I49
I64
tp1237
aa(lp1238
g26
a(I12
I64
tp1239
aa(lp1240
g29
a(I10
I34
tp1241
aa(lp1242
g32
a(I28
I153
tp1243
aa(lp1244
g35
a(I10
I34
tp1245
aa(lp1246
g38
a(I762
I3360
tp1247
aa(lp1248
g41
a(I0
I2240
tp1249
aa(lp1250
g44
a(I0
I6720
tp1251
aa(lp1252
g47
a(I1730
I108288
tp1253
aa(lp1254
g50
a(I637
I6432
tp1255
aa(lp1256
g53
a(I212
I708
tp1257
aa(lp1258
g56
a(I2
I244
tp1259
aatp1260
Rp1261
aa(lp1262
S'SPMV_CRS__tileSize_208_tile_par_1_pt_par_1'
p1263
ag0
((lp1264
(lp1265
g17
aI80064
aa(lp1266
g19
aF0.0
aa(lp1267
g21
aF0.0
aa(lp1268
g23
a(I25
I64
tp1269
aa(lp1270
g26
a(I6
I64
tp1271
aa(lp1272
g29
a(I5
I34
tp1273
aa(lp1274
g32
a(I15
I153
tp1275
aa(lp1276
g35
a(I5
I34
tp1277
aa(lp1278
g38
a(I254
I3360
tp1279
aa(lp1280
g41
a(I0
I2240
tp1281
aa(lp1282
g44
a(I0
I6720
tp1283
aa(lp1284
g47
a(I868
I54912
tp1285
aa(lp1286
g50
a(I319
I3264
tp1287
aa(lp1288
g53
a(I107
I363
tp1289
aa(lp1290
g56
a(I1
I124
tp1291
aatp1292
Rp1293
aa(lp1294
S'SPMV_CRS__tileSize_208_tile_par_1_pt_par_2'
p1295
ag0
((lp1296
(lp1297
g17
aI71824
aa(lp1298
g19
aF0.0
aa(lp1299
g21
aF0.0
aa(lp1300
g23
a(I40
I64
tp1301
aa(lp1302
g26
a(I9
I64
tp1303
aa(lp1304
g29
a(I8
I34
tp1305
aa(lp1306
g32
a(I22
I153
tp1307
aa(lp1308
g35
a(I8
I34
tp1309
aa(lp1310
g38
a(I527
I3360
tp1311
aa(lp1312
g41
a(I0
I2240
tp1313
aa(lp1314
g44
a(I0
I6720
tp1315
aa(lp1316
g47
a(I1321
I86976
tp1317
aa(lp1318
g50
a(I497
I5184
tp1319
aa(lp1320
g53
a(I168
I566
tp1321
aa(lp1322
g56
a(I2
I196
tp1323
aatp1324
Rp1325
aa(lp1326
S'SPMV_CRS__tileSize_208_tile_par_2_pt_par_1'
p1327
ag0
((lp1328
(lp1329
g17
aI60012
aa(lp1330
g19
aF0.0
aa(lp1331
g21
aF0.0
aa(lp1332
g23
a(I49
I64
tp1333
aa(lp1334
g26
a(I12
I64
tp1335
aa(lp1336
g29
a(I10
I34
tp1337
aa(lp1338
g32
a(I28
I153
tp1339
aa(lp1340
g35
a(I10
I34
tp1341
aa(lp1342
g38
a(I789
I3360
tp1343
aa(lp1344
g41
a(I0
I2240
tp1345
aa(lp1346
g44
a(I0
I6720
tp1347
aa(lp1348
g47
a(I1730
I108288
tp1349
aa(lp1350
g50
a(I637
I6432
tp1351
aa(lp1352
g53
a(I212
I708
tp1353
aa(lp1354
g56
a(I2
I244
tp1355
aatp1356
Rp1357
aatp1358
Rp1359
aatp1360
Rp1361
aa(lp1362
S'GEMM_Blocked'
p1363
ag0
((lp1364
(lp1365
g1068
ag0
((lp1366
tp1367
Rp1368
aatp1369
Rp1370
aatp1371
Rp1372
.