ccollections
OrderedDict
p0
((lp1
(lp2
S'DotProduct'
p3
ag0
((lp4
tp5
Rp6
aa(lp7
S'TPCHQ6'
p8
ag0
((lp9
(lp10
S'96000'
p11
ag0
((lp12
(lp13
S'TPCHQ6_96000_outerPar_1_tileSize_3000'
p14
ag0
((lp15
(lp16
S'cycle'
p17
aI33435
aa(lp18
S'avgbw'
p19
aF45.93988335576491
aa(lp20
S'pcuUtil'
p21
a(I5
I64
tp22
aa(lp23
S'mcuUtil'
p24
a(I4
I64
tp25
aa(lp26
S'scuUtil'
p27
a(I4
I34
tp28
aa(lp29
S'ocuUtil'
p30
a(I7
I153
tp31
aa(lp32
S'mcUtil'
p33
a(I4
I34
tp34
aa(lp35
S'slinkUtil'
p36
a(I27
I3360
tp37
aa(lp38
S'vlinkUtil'
p39
a(I1
I2240
tp40
aa(lp41
S'clinkUtil'
p42
a(I0
I6720
tp43
aa(lp44
S'totalRegUtil'
p45
a(I632
I19712
tp46
aa(lp47
S'totalFUUtil'
p48
a(I240
I1120
tp49
aa(lp50
S'totalSBufUtil'
p51
a(I21
I139
tp52
aa(lp53
S'totalVBufUtil'
p54
a(I3
I36
tp55
aatp56
Rp57
aa(lp58
S'TPCHQ6_96000_outerPar_1_tileSize_6000'
p59
ag0
((lp60
(lp61
g17
aI31633
aa(lp62
g19
aF48.55688679543515
aa(lp63
g21
a(I5
I64
tp64
aa(lp65
g24
a(I4
I64
tp66
aa(lp67
g27
a(I4
I34
tp68
aa(lp69
g30
a(I7
I153
tp70
aa(lp71
g33
a(I4
I34
tp72
aa(lp73
g36
a(I22
I3360
tp74
aa(lp75
g39
a(I1
I2240
tp76
aa(lp77
g42
a(I0
I6720
tp78
aa(lp79
g45
a(I632
I19712
tp80
aa(lp81
g48
a(I240
I1120
tp82
aa(lp83
g51
a(I21
I139
tp84
aa(lp85
g54
a(I3
I36
tp86
aatp87
Rp88
aa(lp89
S'TPCHQ6_96000_outerPar_3_tileSize_3000'
p90
ag0
((lp91
(lp92
g17
aI33381
aa(lp93
g19
aF46.01419969443696
aa(lp94
g21
a(I11
I64
tp95
aa(lp96
g24
a(I12
I64
tp97
aa(lp98
g27
a(I12
I34
tp99
aa(lp100
g30
a(I17
I153
tp101
aa(lp102
g33
a(I12
I34
tp103
aa(lp104
g36
a(I112
I3360
tp105
aa(lp106
g39
a(I4
I2240
tp107
aa(lp108
g42
a(I0
I6720
tp109
aa(lp110
g45
a(I1873
I52992
tp111
aa(lp112
g48
a(I713
I2976
tp113
aa(lp114
g51
a(I57
I365
tp115
aa(lp116
g54
a(I9
I92
tp117
aatp118
Rp119
aa(lp120
S'TPCHQ6_96000_outerPar_3_tileSize_6000'
p121
ag0
((lp122
(lp123
g17
aI32712
aa(lp124
g19
aF46.95524578136463
aa(lp125
g21
a(I11
I64
tp126
aa(lp127
g24
a(I12
I64
tp128
aa(lp129
g27
a(I12
I34
tp130
aa(lp131
g30
a(I17
I153
tp132
aa(lp133
g33
a(I12
I34
tp134
aa(lp135
g36
a(I95
I3360
tp136
aa(lp137
g39
a(I4
I2240
tp138
aa(lp139
g42
a(I0
I6720
tp140
aa(lp141
g45
a(I1873
I52992
tp142
aa(lp143
g48
a(I713
I2976
tp144
aa(lp145
g51
a(I57
I365
tp146
aa(lp147
g54
a(I9
I92
tp148
aatp149
Rp150
aa(lp151
S'TPCHQ6_96000_outerPar_5_tileSize_3000'
p152
ag0
((lp153
(lp154
g17
aI32514
aa(lp155
g19
aF47.24118841114596
aa(lp156
g21
a(I17
I64
tp157
aa(lp158
g24
a(I20
I64
tp159
aa(lp160
g27
a(I20
I34
tp161
aa(lp162
g30
a(I27
I153
tp163
aa(lp164
g33
a(I20
I34
tp165
aa(lp166
g36
a(I273
I3360
tp167
aa(lp168
g39
a(I7
I2240
tp169
aa(lp170
g42
a(I0
I6720
tp171
aa(lp172
g45
a(I3118
I86272
tp173
aa(lp174
g48
a(I1187
I4832
tp175
aa(lp176
g51
a(I93
I591
tp177
aa(lp178
g54
a(I15
I148
tp179
aatp180
Rp181
aa(lp182
S'TPCHQ6_96000_outerPar_6_tileSize_400'
p183
ag0
((lp184
(lp185
g17
aI36846
aa(lp186
g19
aF41.687021657710474
aa(lp187
g21
a(I20
I64
tp188
aa(lp189
g24
a(I24
I64
tp190
aa(lp191
g27
a(I24
I34
tp192
aa(lp193
g30
a(I32
I153
tp194
aa(lp195
g33
a(I24
I34
tp196
aa(lp197
g36
a(I339
I3360
tp198
aa(lp199
g39
a(I11
I2240
tp200
aa(lp201
g42
a(I0
I6720
tp202
aa(lp203
g45
a(I3742
I102912
tp204
aa(lp205
g48
a(I1424
I5760
tp206
aa(lp207
g51
a(I111
I704
tp208
aa(lp209
g54
a(I18
I176
tp210
aatp211
Rp212
aa(lp213
S'TPCHQ6_96000_outerPar_6_tileSize_1200'
p214
ag0
((lp215
(lp216
g17
aI33181
aa(lp217
g19
aF46.291552394442604
aa(lp218
g21
a(I20
I64
tp219
aa(lp220
g24
a(I24
I64
tp221
aa(lp222
g27
a(I24
I34
tp223
aa(lp224
g30
a(I32
I153
tp225
aa(lp226
g33
a(I24
I34
tp227
aa(lp228
g36
a(I337
I3360
tp229
aa(lp230
g39
a(I10
I2240
tp231
aa(lp232
g42
a(I0
I6720
tp233
aa(lp234
g45
a(I3742
I102912
tp235
aa(lp236
g48
a(I1424
I5760
tp237
aa(lp238
g51
a(I111
I704
tp239
aa(lp240
g54
a(I18
I176
tp241
aatp242
Rp243
aa(lp244
S'TPCHQ6_96000_outerPar_6_tileSize_2000'
p245
ag0
((lp246
(lp247
g17
aI33123
aa(lp248
g19
aF46.37261117652386
aa(lp249
g21
a(I20
I64
tp250
aa(lp251
g24
a(I24
I64
tp252
aa(lp253
g27
a(I24
I34
tp254
aa(lp255
g30
a(I32
I153
tp256
aa(lp257
g33
a(I24
I34
tp258
aa(lp259
g36
a(I337
I3360
tp260
aa(lp261
g39
a(I11
I2240
tp262
aa(lp263
g42
a(I0
I6720
tp264
aa(lp265
g45
a(I3742
I102912
tp266
aa(lp267
g48
a(I1424
I5760
tp268
aa(lp269
g51
a(I111
I704
tp270
aa(lp271
g54
a(I18
I176
tp272
aatp273
Rp274
aa(lp275
S'TPCHQ6_96000_outerPar_6_tileSize_2800'
p276
ag0
((lp277
(lp278
g17
aI32621
aa(lp279
g19
aF47.08623279482543
aa(lp280
g21
a(I20
I64
tp281
aa(lp282
g24
a(I24
I64
tp283
aa(lp284
g27
a(I24
I34
tp285
aa(lp286
g30
a(I32
I153
tp287
aa(lp288
g33
a(I24
I34
tp289
aa(lp290
g36
a(I344
I3360
tp291
aa(lp292
g39
a(I10
I2240
tp293
aa(lp294
g42
a(I0
I6720
tp295
aa(lp296
g45
a(I3742
I102912
tp297
aa(lp298
g48
a(I1424
I5760
tp299
aa(lp300
g51
a(I111
I704
tp301
aa(lp302
g54
a(I18
I176
tp303
aatp304
Rp305
aa(lp306
S'TPCHQ6_96000_outerPar_6_tileSize_3600'
p307
ag0
((lp308
(lp309
g17
aI32361
aa(lp310
g19
aF47.464540650783356
aa(lp311
g21
a(I20
I64
tp312
aa(lp313
g24
a(I24
I64
tp314
aa(lp315
g27
a(I24
I34
tp316
aa(lp317
g30
a(I32
I153
tp318
aa(lp319
g33
a(I24
I34
tp320
aa(lp321
g36
a(I343
I3360
tp322
aa(lp323
g39
a(I11
I2240
tp324
aa(lp325
g42
a(I0
I6720
tp326
aa(lp327
g45
a(I3742
I102912
tp328
aa(lp329
g48
a(I1424
I5760
tp330
aa(lp331
g51
a(I111
I704
tp332
aa(lp333
g54
a(I18
I176
tp334
aatp335
Rp336
aa(lp337
S'TPCHQ6_96000_outerPar_8_tileSize_400'
p338
ag0
((lp339
(lp340
g17
aI35423
aa(lp341
g19
aF43.36165768003839
aa(lp342
g21
a(I27
I64
tp343
aa(lp344
g24
a(I32
I64
tp345
aa(lp346
g27
a(I32
I34
tp347
aa(lp348
g30
a(I42
I153
tp349
aa(lp350
g33
a(I32
I34
tp351
aa(lp352
g36
a(I479
I3360
tp353
aa(lp354
g39
a(I17
I2240
tp355
aa(lp356
g42
a(I0
I6720
tp357
aa(lp358
g45
a(I4993
I137728
tp359
aa(lp360
g48
a(I1898
I7712
tp361
aa(lp362
g51
a(I149
I938
tp363
aa(lp364
g54
a(I24
I236
tp365
aatp366
Rp367
aa(lp368
S'TPCHQ6_96000_outerPar_8_tileSize_1200'
p369
ag0
((lp370
(lp371
g17
aI33196
aa(lp372
g19
aF46.27063501626702
aa(lp373
g21
a(I27
I64
tp374
aa(lp375
g24
a(I32
I64
tp376
aa(lp377
g27
a(I32
I34
tp378
aa(lp379
g30
a(I42
I153
tp380
aa(lp381
g33
a(I32
I34
tp382
aa(lp383
g36
a(I533
I3360
tp384
aa(lp385
g39
a(I34
I2240
tp386
aa(lp387
g42
a(I0
I6720
tp388
aa(lp389
g45
a(I4993
I137728
tp390
aa(lp391
g48
a(I1898
I7712
tp392
aa(lp393
g51
a(I149
I938
tp394
aa(lp395
g54
a(I24
I236
tp396
aatp397
Rp398
aa(lp399
S'TPCHQ6_96000_outerPar_8_tileSize_2000'
p400
ag0
((lp401
(lp402
g17
aI31906
aa(lp403
g19
aF48.14141540776029
aa(lp404
g21
a(I27
I64
tp405
aa(lp406
g24
a(I32
I64
tp407
aa(lp408
g27
a(I32
I34
tp409
aa(lp410
g30
a(I42
I153
tp411
aa(lp412
g33
a(I32
I34
tp413
aa(lp414
g36
a(I502
I3360
tp415
aa(lp416
g39
a(I26
I2240
tp417
aa(lp418
g42
a(I0
I6720
tp419
aa(lp420
g45
a(I4993
I137728
tp421
aa(lp422
g48
a(I1898
I7712
tp423
aa(lp424
g51
a(I149
I938
tp425
aa(lp426
g54
a(I24
I236
tp427
aatp428
Rp429
aa(lp430
S'TPCHQ6_96000_outerPar_8_tileSize_2800'
p431
ag0
((lp432
(lp433
g17
aI32844
aa(lp434
g19
aF46.766532700036535
aa(lp435
g21
a(I27
I64
tp436
aa(lp437
g24
a(I32
I64
tp438
aa(lp439
g27
a(I32
I34
tp440
aa(lp441
g30
a(I42
I153
tp442
aa(lp443
g33
a(I32
I34
tp444
aa(lp445
g36
a(I481
I3360
tp446
aa(lp447
g39
a(I17
I2240
tp448
aa(lp449
g42
a(I0
I6720
tp450
aa(lp451
g45
a(I4993
I137728
tp452
aa(lp453
g48
a(I1898
I7712
tp454
aa(lp455
g51
a(I149
I938
tp456
aa(lp457
g54
a(I24
I236
tp458
aatp459
Rp460
aa(lp461
S'TPCHQ6_96000_outerPar_2_tileSize_16'
p462
ag0
((lp463
(lp464
g17
aI405792
aa(lp465
g19
aF3.785190442394133
aa(lp466
g21
a(I8
I64
tp467
aa(lp468
g24
a(I8
I64
tp469
aa(lp470
g27
a(I8
I34
tp471
aa(lp472
g30
a(I12
I153
tp473
aa(lp474
g33
a(I8
I34
tp475
aa(lp476
g36
a(I105
I3360
tp477
aa(lp478
g39
a(I3
I2240
tp479
aa(lp480
g42
a(I0
I6720
tp481
aa(lp482
g45
a(I1252
I36352
tp483
aa(lp484
g48
a(I476
I2048
tp485
aa(lp486
g51
a(I39
I252
tp487
aa(lp488
g54
a(I6
I64
tp489
aatp490
Rp491
aa(lp492
S'TPCHQ6_96000_outerPar_2_tileSize_48'
p493
ag0
((lp494
(lp495
g17
aI137843
aa(lp496
g19
aF11.143112091292268
aa(lp497
g21
a(I8
I64
tp498
aa(lp499
g24
a(I8
I64
tp500
aa(lp501
g27
a(I8
I34
tp502
aa(lp503
g30
a(I12
I153
tp504
aa(lp505
g33
a(I8
I34
tp506
aa(lp507
g36
a(I75
I3360
tp508
aa(lp509
g39
a(I2
I2240
tp510
aa(lp511
g42
a(I0
I6720
tp512
aa(lp513
g45
a(I1252
I36352
tp514
aa(lp515
g48
a(I476
I2048
tp516
aa(lp517
g51
a(I39
I252
tp518
aa(lp519
g54
a(I6
I64
tp520
aatp521
Rp522
aa(lp523
S'TPCHQ6_96000_outerPar_2_tileSize_80'
p524
ag0
((lp525
(lp526
g17
aI99063
aa(lp527
g19
aF15.505284515914116
aa(lp528
g21
a(I8
I64
tp529
aa(lp530
g24
a(I8
I64
tp531
aa(lp532
g27
a(I8
I34
tp533
aa(lp534
g30
a(I12
I153
tp535
aa(lp536
g33
a(I8
I34
tp537
aa(lp538
g36
a(I74
I3360
tp539
aa(lp540
g39
a(I2
I2240
tp541
aa(lp542
g42
a(I0
I6720
tp543
aa(lp544
g45
a(I1252
I36352
tp545
aa(lp546
g48
a(I476
I2048
tp547
aa(lp548
g51
a(I39
I252
tp549
aa(lp550
g54
a(I6
I64
tp551
aatp552
Rp553
aa(lp554
S'TPCHQ6_96000_outerPar_2_tileSize_112'
p555
ag0
((lp556
(lp557
g17
aI78569
aa(lp558
g19
aF19.549695172396238
aa(lp559
g21
a(I8
I64
tp560
aa(lp561
g24
a(I8
I64
tp562
aa(lp563
g27
a(I8
I34
tp564
aa(lp565
g30
a(I12
I153
tp566
aa(lp567
g33
a(I8
I34
tp568
aa(lp569
g36
a(I70
I3360
tp570
aa(lp571
g39
a(I2
I2240
tp572
aa(lp573
g42
a(I0
I6720
tp574
aa(lp575
g45
a(I1252
I36352
tp576
aa(lp577
g48
a(I476
I2048
tp578
aa(lp579
g51
a(I39
I252
tp580
aa(lp581
g54
a(I6
I64
tp582
aatp583
Rp584
aa(lp585
S'TPCHQ6_96000_outerPar_2_tileSize_144'
p586
ag0
((lp587
(lp588
g17
aI64694
aa(lp589
g19
aF23.7425418122237
aa(lp590
g21
a(I8
I64
tp591
aa(lp592
g24
a(I8
I64
tp593
aa(lp594
g27
a(I8
I34
tp595
aa(lp596
g30
a(I12
I153
tp597
aa(lp598
g33
a(I8
I34
tp599
aa(lp600
g36
a(I80
I3360
tp601
aa(lp602
g39
a(I2
I2240
tp603
aa(lp604
g42
a(I0
I6720
tp605
aa(lp606
g45
a(I1252
I36352
tp607
aa(lp608
g48
a(I476
I2048
tp609
aa(lp610
g51
a(I39
I252
tp611
aa(lp612
g54
a(I6
I64
tp613
aatp614
Rp615
aa(lp616
S'TPCHQ6_96000_outerPar_2_tileSize_176'
p617
ag0
((lp618
(lp619
g17
aI59850
aa(lp620
g19
aF25.664160401002505
aa(lp621
g21
a(I8
I64
tp622
aa(lp623
g24
a(I8
I64
tp624
aa(lp625
g27
a(I8
I34
tp626
aa(lp627
g30
a(I12
I153
tp628
aa(lp629
g33
a(I8
I34
tp630
aa(lp631
g36
a(I66
I3360
tp632
aa(lp633
g39
a(I2
I2240
tp634
aa(lp635
g42
a(I0
I6720
tp636
aa(lp637
g45
a(I1252
I36352
tp638
aa(lp639
g48
a(I476
I2048
tp640
aa(lp641
g51
a(I39
I252
tp642
aa(lp643
g54
a(I6
I64
tp644
aatp645
Rp646
aa(lp647
S'TPCHQ6_96000_outerPar_2_tileSize_208'
p648
ag0
((lp649
(lp650
g17
aI55820
aa(lp651
g19
aF27.517018989609458
aa(lp652
g21
a(I8
I64
tp653
aa(lp654
g24
a(I8
I64
tp655
aa(lp656
g27
a(I8
I34
tp657
aa(lp658
g30
a(I12
I153
tp659
aa(lp660
g33
a(I8
I34
tp661
aa(lp662
g36
a(I69
I3360
tp663
aa(lp664
g39
a(I2
I2240
tp665
aa(lp666
g42
a(I0
I6720
tp667
aa(lp668
g45
a(I1252
I36352
tp669
aa(lp670
g48
a(I476
I2048
tp671
aa(lp672
g51
a(I39
I252
tp673
aa(lp674
g54
a(I6
I64
tp675
aatp676
Rp677
aa(lp678
S'TPCHQ6_96000_outerPar_2_tileSize_240'
p679
ag0
((lp680
(lp681
g17
aI51062
aa(lp682
g19
aF30.081077905291608
aa(lp683
g21
a(I8
I64
tp684
aa(lp685
g24
a(I8
I64
tp686
aa(lp687
g27
a(I8
I34
tp688
aa(lp689
g30
a(I12
I153
tp690
aa(lp691
g33
a(I8
I34
tp692
aa(lp693
g36
a(I80
I3360
tp694
aa(lp695
g39
a(I2
I2240
tp696
aa(lp697
g42
a(I0
I6720
tp698
aa(lp699
g45
a(I1252
I36352
tp700
aa(lp701
g48
a(I476
I2048
tp702
aa(lp703
g51
a(I39
I252
tp704
aa(lp705
g54
a(I6
I64
tp706
aatp707
Rp708
aa(lp709
S'TPCHQ6_96000_outerPar_4_tileSize_16'
p710
ag0
((lp711
(lp712
g17
aI201953
aa(lp713
g19
aF7.605730046099835
aa(lp714
g21
a(I14
I64
tp715
aa(lp716
g24
a(I16
I64
tp717
aa(lp718
g27
a(I16
I34
tp719
aa(lp720
g30
a(I22
I153
tp721
aa(lp722
g33
a(I16
I34
tp723
aa(lp724
g36
a(I217
I3360
tp725
aa(lp726
g39
a(I5
I2240
tp727
aa(lp728
g42
a(I0
I6720
tp729
aa(lp730
g45
a(I2495
I69632
tp731
aa(lp732
g48
a(I950
I3904
tp733
aa(lp734
g51
a(I75
I478
tp735
aa(lp736
g54
a(I12
I120
tp737
aatp738
Rp739
aa(lp740
S'TPCHQ6_96000_outerPar_4_tileSize_48'
p741
ag0
((lp742
(lp743
g17
aI84737
aa(lp744
g19
aF18.126674298122424
aa(lp745
g21
a(I14
I64
tp746
aa(lp747
g24
a(I16
I64
tp748
aa(lp749
g27
a(I16
I34
tp750
aa(lp751
g30
a(I22
I153
tp752
aa(lp753
g33
a(I16
I34
tp754
aa(lp755
g36
a(I207
I3360
tp756
aa(lp757
g39
a(I5
I2240
tp758
aa(lp759
g42
a(I0
I6720
tp760
aa(lp761
g45
a(I2495
I69632
tp762
aa(lp763
g48
a(I950
I3904
tp764
aa(lp765
g51
a(I75
I478
tp766
aa(lp767
g54
a(I12
I120
tp768
aatp769
Rp770
aa(lp771
S'TPCHQ6_96000_outerPar_4_tileSize_80'
p772
ag0
((lp773
(lp774
g17
aI60710
aa(lp775
g19
aF25.300609454785047
aa(lp776
g21
a(I14
I64
tp777
aa(lp778
g24
a(I16
I64
tp779
aa(lp780
g27
a(I16
I34
tp781
aa(lp782
g30
a(I22
I153
tp783
aa(lp784
g33
a(I16
I34
tp785
aa(lp786
g36
a(I186
I3360
tp787
aa(lp788
g39
a(I5
I2240
tp789
aa(lp790
g42
a(I0
I6720
tp791
aa(lp792
g45
a(I2495
I69632
tp793
aa(lp794
g48
a(I950
I3904
tp795
aa(lp796
g51
a(I75
I478
tp797
aa(lp798
g54
a(I12
I120
tp799
aatp800
Rp801
aa(lp802
S'TPCHQ6_96000_outerPar_4_tileSize_112'
p803
ag0
((lp804
(lp805
g17
aI53686
aa(lp806
g19
aF28.610811012181944
aa(lp807
g21
a(I14
I64
tp808
aa(lp809
g24
a(I16
I64
tp810
aa(lp811
g27
a(I16
I34
tp812
aa(lp813
g30
a(I22
I153
tp814
aa(lp815
g33
a(I16
I34
tp816
aa(lp817
g36
a(I202
I3360
tp818
aa(lp819
g39
a(I5
I2240
tp820
aa(lp821
g42
a(I0
I6720
tp822
aa(lp823
g45
a(I2495
I69632
tp824
aa(lp825
g48
a(I950
I3904
tp826
aa(lp827
g51
a(I75
I478
tp828
aa(lp829
g54
a(I12
I120
tp830
aatp831
Rp832
aa(lp833
S'TPCHQ6_96000_outerPar_6_tileSize_16'
p834
ag0
((lp835
(lp836
g17
aI164316
aa(lp837
g19
aF9.347841963046813
aa(lp838
g21
a(I20
I64
tp839
aa(lp840
g24
a(I24
I64
tp841
aa(lp842
g27
a(I24
I34
tp843
aa(lp844
g30
a(I32
I153
tp845
aa(lp846
g33
a(I24
I34
tp847
aa(lp848
g36
a(I375
I3360
tp849
aa(lp850
g39
a(I11
I2240
tp851
aa(lp852
g42
a(I0
I6720
tp853
aa(lp854
g45
a(I3742
I102912
tp855
aa(lp856
g48
a(I1424
I5760
tp857
aa(lp858
g51
a(I111
I704
tp859
aa(lp860
g54
a(I18
I176
tp861
aatp862
Rp863
aa(lp864
S'TPCHQ6_96000_outerPar_6_tileSize_48'
p865
ag0
((lp866
(lp867
g17
aI68913
aa(lp868
g19
aF22.28897305297985
aa(lp869
g21
a(I20
I64
tp870
aa(lp871
g24
a(I24
I64
tp872
aa(lp873
g27
a(I24
I34
tp874
aa(lp875
g30
a(I32
I153
tp876
aa(lp877
g33
a(I24
I34
tp878
aa(lp879
g36
a(I348
I3360
tp880
aa(lp881
g39
a(I10
I2240
tp882
aa(lp883
g42
a(I0
I6720
tp884
aa(lp885
g45
a(I3742
I102912
tp886
aa(lp887
g48
a(I1424
I5760
tp888
aa(lp889
g51
a(I111
I704
tp890
aa(lp891
g54
a(I18
I176
tp892
aatp893
Rp894
aa(lp895
S'TPCHQ6_96000_outerPar_6_tileSize_80'
p896
ag0
((lp897
(lp898
g17
aI49357
aa(lp899
g19
aF31.120205847194928
aa(lp900
g21
a(I20
I64
tp901
aa(lp902
g24
a(I24
I64
tp903
aa(lp904
g27
a(I24
I34
tp905
aa(lp906
g30
a(I32
I153
tp907
aa(lp908
g33
a(I24
I34
tp909
aa(lp910
g36
a(I347
I3360
tp911
aa(lp912
g39
a(I11
I2240
tp913
aa(lp914
g42
a(I0
I6720
tp915
aa(lp916
g45
a(I3742
I102912
tp917
aa(lp918
g48
a(I1424
I5760
tp919
aa(lp920
g51
a(I111
I704
tp921
aa(lp922
g54
a(I18
I176
tp923
aatp924
Rp925
aa(lp926
S'TPCHQ6_96000_outerPar_8_tileSize_16'
p927
ag0
((lp928
(lp929
g17
aI133521
aa(lp930
g19
aF11.503808389691509
aa(lp931
g21
a(I27
I64
tp932
aa(lp933
g24
a(I32
I64
tp934
aa(lp935
g27
a(I32
I34
tp936
aa(lp937
g30
a(I42
I153
tp938
aa(lp939
g33
a(I32
I34
tp940
aa(lp941
g36
a(I495
I3360
tp942
aa(lp943
g39
a(I17
I2240
tp944
aa(lp945
g42
a(I0
I6720
tp946
aa(lp947
g45
a(I4993
I137728
tp948
aa(lp949
g48
a(I1898
I7712
tp950
aa(lp951
g51
a(I149
I938
tp952
aa(lp953
g54
a(I24
I236
tp954
aatp955
Rp956
aa(lp957
S'TPCHQ6_96000_outerPar_8_tileSize_48'
p958
ag0
((lp959
(lp960
g17
aI54641
aa(lp961
g19
aF28.1107593199246
aa(lp962
g21
a(I27
I64
tp963
aa(lp964
g24
a(I32
I64
tp965
aa(lp966
g27
a(I32
I34
tp967
aa(lp968
g30
a(I42
I153
tp969
aa(lp970
g33
a(I32
I34
tp971
aa(lp972
g36
a(I507
I3360
tp973
aa(lp974
g39
a(I19
I2240
tp975
aa(lp976
g42
a(I0
I6720
tp977
aa(lp978
g45
a(I4993
I137728
tp979
aa(lp980
g48
a(I1898
I7712
tp981
aa(lp982
g51
a(I149
I938
tp983
aa(lp984
g54
a(I24
I236
tp985
aatp986
Rp987
aatp988
Rp989
aatp990
Rp991
aa(lp992
S'GDA'
p993
ag0
((lp994
(lp995
S'19200'
p996
ag0
((lp997
tp998
Rp999
aatp1000
Rp1001
aa(lp1002
S'BlackScholes'
p1003
ag0
((lp1004
(lp1005
S'1966080'
p1006
ag0
((lp1007
tp1008
Rp1009
aatp1010
Rp1011
aa(lp1012
S'Kmeans_plasticine'
p1013
ag0
((lp1014
(lp1015
S'1_6144'
p1016
ag0
((lp1017
tp1018
Rp1019
aatp1020
Rp1021
aa(lp1022
S'PageRank_plasticine'
p1023
ag0
((lp1024
(lp1025
S'1_491520_0.125'
p1026
ag0
((lp1027
tp1028
Rp1029
aatp1030
Rp1031
aa(lp1032
S'SPMV_CRS'
p1033
ag0
((lp1034
(lp1035
S''
p1036
ag0
((lp1037
(lp1038
S'SPMV_CRS__tileSize_80_tile_par_1_pt_par_1'
p1039
ag0
((lp1040
(lp1041
S'cycle'
p1042
aI93202
aa(lp1043
S'avgbw'
p1044
aF0.0
aa(lp1045
S'pcuUtil'
p1046
a(I25
I64
tp1047
aa(lp1048
S'mcuUtil'
p1049
a(I6
I64
tp1050
aa(lp1051
S'scuUtil'
p1052
a(I5
I34
tp1053
aa(lp1054
S'ocuUtil'
p1055
a(I15
I153
tp1056
aa(lp1057
S'mcUtil'
p1058
a(I5
I34
tp1059
aa(lp1060
S'slinkUtil'
p1061
a(I303
I3360
tp1062
aa(lp1063
S'vlinkUtil'
p1064
a(I0
I2240
tp1065
aa(lp1066
S'clinkUtil'
p1067
a(I0
I6720
tp1068
aa(lp1069
S'totalRegUtil'
p1070
a(I868
I54912
tp1071
aa(lp1072
S'totalFUUtil'
p1073
a(I319
I3264
tp1074
aa(lp1075
S'totalSBufUtil'
p1076
a(I107
I363
tp1077
aa(lp1078
S'totalVBufUtil'
p1079
a(I1
I124
tp1080
aatp1081
Rp1082
aa(lp1083
S'SPMV_CRS__tileSize_80_tile_par_1_pt_par_2'
p1084
ag0
((lp1085
(lp1086
g1042
aI83538
aa(lp1087
g1044
aF0.0
aa(lp1088
g1046
a(I40
I64
tp1089
aa(lp1090
g1049
a(I9
I64
tp1091
aa(lp1092
g1052
a(I8
I34
tp1093
aa(lp1094
g1055
a(I22
I153
tp1095
aa(lp1096
g1058
a(I8
I34
tp1097
aa(lp1098
g1061
a(I524
I3360
tp1099
aa(lp1100
g1064
a(I0
I2240
tp1101
aa(lp1102
g1067
a(I0
I6720
tp1103
aa(lp1104
g1070
a(I1321
I86976
tp1105
aa(lp1106
g1073
a(I497
I5184
tp1107
aa(lp1108
g1076
a(I168
I566
tp1109
aa(lp1110
g1079
a(I2
I196
tp1111
aatp1112
Rp1113
aa(lp1114
S'SPMV_CRS__tileSize_80_tile_par_2_pt_par_1'
p1115
ag0
((lp1116
(lp1117
g1042
aI69732
aa(lp1118
g1044
aF0.0
aa(lp1119
g1046
a(I49
I64
tp1120
aa(lp1121
g1049
a(I12
I64
tp1122
aa(lp1123
g1052
a(I10
I34
tp1124
aa(lp1125
g1055
a(I28
I153
tp1126
aa(lp1127
g1058
a(I10
I34
tp1128
aa(lp1129
g1061
a(I675
I3360
tp1130
aa(lp1131
g1064
a(I0
I2240
tp1132
aa(lp1133
g1067
a(I0
I6720
tp1134
aa(lp1135
g1070
a(I1730
I108288
tp1136
aa(lp1137
g1073
a(I637
I6432
tp1138
aa(lp1139
g1076
a(I212
I708
tp1140
aa(lp1141
g1079
a(I2
I244
tp1142
aatp1143
Rp1144
aa(lp1145
S'SPMV_CRS__tileSize_144_tile_par_1_pt_par_1'
p1146
ag0
((lp1147
(lp1148
g1042
aI83563
aa(lp1149
g1044
aF0.0
aa(lp1150
g1046
a(I25
I64
tp1151
aa(lp1152
g1049
a(I6
I64
tp1153
aa(lp1154
g1052
a(I5
I34
tp1155
aa(lp1156
g1055
a(I15
I153
tp1157
aa(lp1158
g1058
a(I5
I34
tp1159
aa(lp1160
g1061
a(I307
I3360
tp1161
aa(lp1162
g1064
a(I0
I2240
tp1163
aa(lp1164
g1067
a(I0
I6720
tp1165
aa(lp1166
g1070
a(I868
I54912
tp1167
aa(lp1168
g1073
a(I319
I3264
tp1169
aa(lp1170
g1076
a(I107
I363
tp1171
aa(lp1172
g1079
a(I1
I124
tp1173
aatp1174
Rp1175
aa(lp1176
S'SPMV_CRS__tileSize_144_tile_par_1_pt_par_2'
p1177
ag0
((lp1178
(lp1179
g1042
aI74606
aa(lp1180
g1044
aF0.0
aa(lp1181
g1046
a(I40
I64
tp1182
aa(lp1183
g1049
a(I9
I64
tp1184
aa(lp1185
g1052
a(I8
I34
tp1186
aa(lp1187
g1055
a(I22
I153
tp1188
aa(lp1189
g1058
a(I8
I34
tp1190
aa(lp1191
g1061
a(I592
I3360
tp1192
aa(lp1193
g1064
a(I0
I2240
tp1194
aa(lp1195
g1067
a(I0
I6720
tp1196
aa(lp1197
g1070
a(I1321
I86976
tp1198
aa(lp1199
g1073
a(I497
I5184
tp1200
aa(lp1201
g1076
a(I168
I566
tp1202
aa(lp1203
g1079
a(I2
I196
tp1204
aatp1205
Rp1206
aa(lp1207
S'SPMV_CRS__tileSize_144_tile_par_2_pt_par_1'
p1208
ag0
((lp1209
(lp1210
g1042
aI69177
aa(lp1211
g1044
aF0.0
aa(lp1212
g1046
a(I49
I64
tp1213
aa(lp1214
g1049
a(I12
I64
tp1215
aa(lp1216
g1052
a(I10
I34
tp1217
aa(lp1218
g1055
a(I28
I153
tp1219
aa(lp1220
g1058
a(I10
I34
tp1221
aa(lp1222
g1061
a(I762
I3360
tp1223
aa(lp1224
g1064
a(I0
I2240
tp1225
aa(lp1226
g1067
a(I0
I6720
tp1227
aa(lp1228
g1070
a(I1730
I108288
tp1229
aa(lp1230
g1073
a(I637
I6432
tp1231
aa(lp1232
g1076
a(I212
I708
tp1233
aa(lp1234
g1079
a(I2
I244
tp1235
aatp1236
Rp1237
aa(lp1238
S'SPMV_CRS__tileSize_208_tile_par_1_pt_par_1'
p1239
ag0
((lp1240
(lp1241
g1042
aI80064
aa(lp1242
g1044
aF0.0
aa(lp1243
g1046
a(I25
I64
tp1244
aa(lp1245
g1049
a(I6
I64
tp1246
aa(lp1247
g1052
a(I5
I34
tp1248
aa(lp1249
g1055
a(I15
I153
tp1250
aa(lp1251
g1058
a(I5
I34
tp1252
aa(lp1253
g1061
a(I254
I3360
tp1254
aa(lp1255
g1064
a(I0
I2240
tp1256
aa(lp1257
g1067
a(I0
I6720
tp1258
aa(lp1259
g1070
a(I868
I54912
tp1260
aa(lp1261
g1073
a(I319
I3264
tp1262
aa(lp1263
g1076
a(I107
I363
tp1264
aa(lp1265
g1079
a(I1
I124
tp1266
aatp1267
Rp1268
aa(lp1269
S'SPMV_CRS__tileSize_208_tile_par_1_pt_par_2'
p1270
ag0
((lp1271
(lp1272
g1042
aI71824
aa(lp1273
g1044
aF0.0
aa(lp1274
g1046
a(I40
I64
tp1275
aa(lp1276
g1049
a(I9
I64
tp1277
aa(lp1278
g1052
a(I8
I34
tp1279
aa(lp1280
g1055
a(I22
I153
tp1281
aa(lp1282
g1058
a(I8
I34
tp1283
aa(lp1284
g1061
a(I527
I3360
tp1285
aa(lp1286
g1064
a(I0
I2240
tp1287
aa(lp1288
g1067
a(I0
I6720
tp1289
aa(lp1290
g1070
a(I1321
I86976
tp1291
aa(lp1292
g1073
a(I497
I5184
tp1293
aa(lp1294
g1076
a(I168
I566
tp1295
aa(lp1296
g1079
a(I2
I196
tp1297
aatp1298
Rp1299
aa(lp1300
S'SPMV_CRS__tileSize_208_tile_par_2_pt_par_1'
p1301
ag0
((lp1302
(lp1303
g1042
aI60012
aa(lp1304
g1044
aF0.0
aa(lp1305
g1046
a(I49
I64
tp1306
aa(lp1307
g1049
a(I12
I64
tp1308
aa(lp1309
g1052
a(I10
I34
tp1310
aa(lp1311
g1055
a(I28
I153
tp1312
aa(lp1313
g1058
a(I10
I34
tp1314
aa(lp1315
g1061
a(I789
I3360
tp1316
aa(lp1317
g1064
a(I0
I2240
tp1318
aa(lp1319
g1067
a(I0
I6720
tp1320
aa(lp1321
g1070
a(I1730
I108288
tp1322
aa(lp1323
g1073
a(I637
I6432
tp1324
aa(lp1325
g1076
a(I212
I708
tp1326
aa(lp1327
g1079
a(I2
I244
tp1328
aatp1329
Rp1330
aatp1331
Rp1332
aatp1333
Rp1334
aa(lp1335
S'GEMM_Blocked'
p1336
ag0
((lp1337
(lp1338
g1036
ag0
((lp1339
tp1340
Rp1341
aatp1342
Rp1343
aatp1344
Rp1345
.